
ModuloATMEL.elf:     file format elf32-avr

Sections:
Idx Name          Size      VMA       LMA       File off  Algn
  0 .data         00000000  00800100  00800100  00001cbc  2**0
                  CONTENTS, ALLOC, LOAD, DATA
  1 .mySlaveAddress 00000001  008003ff  008003ff  00001b78  2**0
                  CONTENTS, ALLOC, LOAD, DATA
  2 .modbus_r     00000014  00800400  00800400  00001b79  2**0
                  CONTENTS, ALLOC, LOAD, DATA
  3 .fixed_events 0000012c  00800772  00800772  00001b8d  2**0
                  CONTENTS, ALLOC, LOAD, DATA
  4 .text         00001aa4  00000000  00000000  000000d4  2**1
                  CONTENTS, ALLOC, LOAD, READONLY, CODE
  5 .bss          0000027c  00800100  00800100  00001b78  2**0
                  ALLOC
  6 .fuse         00000003  00820000  00820000  00001cb9  2**0
                  CONTENTS, ALLOC, LOAD, DATA
  7 .comment      00000030  00000000  00000000  00001cbc  2**0
                  CONTENTS, READONLY
  8 .note.gnu.avr.deviceinfo 00000040  00000000  00000000  00001cec  2**2
                  CONTENTS, READONLY
  9 .debug_aranges 00000438  00000000  00000000  00001d2c  2**0
                  CONTENTS, READONLY, DEBUGGING
 10 .debug_info   00002c9f  00000000  00000000  00002164  2**0
                  CONTENTS, READONLY, DEBUGGING
 11 .debug_abbrev 00000f71  00000000  00000000  00004e03  2**0
                  CONTENTS, READONLY, DEBUGGING
 12 .debug_line   0000239d  00000000  00000000  00005d74  2**0
                  CONTENTS, READONLY, DEBUGGING
 13 .debug_frame  000008d8  00000000  00000000  00008114  2**2
                  CONTENTS, READONLY, DEBUGGING
 14 .debug_str    00001560  00000000  00000000  000089ec  2**0
                  CONTENTS, READONLY, DEBUGGING
 15 .debug_loc    00000bc3  00000000  00000000  00009f4c  2**0
                  CONTENTS, READONLY, DEBUGGING
 16 .debug_ranges 000003b0  00000000  00000000  0000ab0f  2**0
                  CONTENTS, READONLY, DEBUGGING

Disassembly of section .text:

00000000 <__vectors>:
       0:	0c 94 3b 00 	jmp	0x76	; 0x76 <__ctors_end>
       4:	0c 94 58 00 	jmp	0xb0	; 0xb0 <__bad_interrupt>
       8:	0c 94 58 00 	jmp	0xb0	; 0xb0 <__bad_interrupt>
       c:	0c 94 58 00 	jmp	0xb0	; 0xb0 <__bad_interrupt>
      10:	0c 94 58 00 	jmp	0xb0	; 0xb0 <__bad_interrupt>
      14:	0c 94 58 00 	jmp	0xb0	; 0xb0 <__bad_interrupt>
      18:	0c 94 58 00 	jmp	0xb0	; 0xb0 <__bad_interrupt>
      1c:	0c 94 9b 0b 	jmp	0x1736	; 0x1736 <__vector_7>
      20:	0c 94 58 00 	jmp	0xb0	; 0xb0 <__bad_interrupt>
      24:	0c 94 58 00 	jmp	0xb0	; 0xb0 <__bad_interrupt>
      28:	0c 94 45 0b 	jmp	0x168a	; 0x168a <__vector_10>
      2c:	0c 94 58 0b 	jmp	0x16b0	; 0x16b0 <__vector_11>
      30:	0c 94 2c 0b 	jmp	0x1658	; 0x1658 <__vector_12>
      34:	0c 94 3a 0b 	jmp	0x1674	; 0x1674 <__vector_13>
      38:	0c 94 e0 0a 	jmp	0x15c0	; 0x15c0 <__vector_14>
      3c:	0c 94 58 00 	jmp	0xb0	; 0xb0 <__bad_interrupt>
      40:	0c 94 58 00 	jmp	0xb0	; 0xb0 <__bad_interrupt>
      44:	0c 94 58 00 	jmp	0xb0	; 0xb0 <__bad_interrupt>
      48:	0c 94 1b 04 	jmp	0x836	; 0x836 <__vector_18>
      4c:	0c 94 58 00 	jmp	0xb0	; 0xb0 <__bad_interrupt>
      50:	0c 94 58 00 	jmp	0xb0	; 0xb0 <__bad_interrupt>
      54:	0c 94 58 00 	jmp	0xb0	; 0xb0 <__bad_interrupt>
      58:	0c 94 58 00 	jmp	0xb0	; 0xb0 <__bad_interrupt>
      5c:	0c 94 58 00 	jmp	0xb0	; 0xb0 <__bad_interrupt>
      60:	0c 94 58 00 	jmp	0xb0	; 0xb0 <__bad_interrupt>
      64:	0c 94 58 00 	jmp	0xb0	; 0xb0 <__bad_interrupt>
      68:	7a 03       	fmul	r23, r18
      6a:	9a 03       	fmulsu	r17, r18
      6c:	ad 03       	fmulsu	r18, r21
      6e:	cf 03       	fmulsu	r20, r23
      70:	f1 03       	fmuls	r23, r17
      72:	e7 03       	fmuls	r22, r23
      74:	0d 04       	cpc	r0, r13

00000076 <__ctors_end>:
      76:	11 24       	eor	r1, r1
      78:	1f be       	out	0x3f, r1	; 63
      7a:	cf ef       	ldi	r28, 0xFF	; 255
      7c:	d8 e0       	ldi	r29, 0x08	; 8
      7e:	de bf       	out	0x3e, r29	; 62
      80:	cd bf       	out	0x3d, r28	; 61

00000082 <__do_copy_data>:
      82:	11 e0       	ldi	r17, 0x01	; 1
      84:	a0 e0       	ldi	r26, 0x00	; 0
      86:	b1 e0       	ldi	r27, 0x01	; 1
      88:	e4 ea       	ldi	r30, 0xA4	; 164
      8a:	fa e1       	ldi	r31, 0x1A	; 26
      8c:	02 c0       	rjmp	.+4      	; 0x92 <__do_copy_data+0x10>
      8e:	05 90       	lpm	r0, Z+
      90:	0d 92       	st	X+, r0
      92:	a0 30       	cpi	r26, 0x00	; 0
      94:	b1 07       	cpc	r27, r17
      96:	d9 f7       	brne	.-10     	; 0x8e <__do_copy_data+0xc>

00000098 <__do_clear_bss>:
      98:	23 e0       	ldi	r18, 0x03	; 3
      9a:	a0 e0       	ldi	r26, 0x00	; 0
      9c:	b1 e0       	ldi	r27, 0x01	; 1
      9e:	01 c0       	rjmp	.+2      	; 0xa2 <.do_clear_bss_start>

000000a0 <.do_clear_bss_loop>:
      a0:	1d 92       	st	X+, r1

000000a2 <.do_clear_bss_start>:
      a2:	ac 37       	cpi	r26, 0x7C	; 124
      a4:	b2 07       	cpc	r27, r18
      a6:	e1 f7       	brne	.-8      	; 0xa0 <.do_clear_bss_loop>
      a8:	0e 94 58 08 	call	0x10b0	; 0x10b0 <main>
      ac:	0c 94 50 0d 	jmp	0x1aa0	; 0x1aa0 <_exit>

000000b0 <__bad_interrupt>:
      b0:	0c 94 00 00 	jmp	0	; 0x0 <__vectors>

000000b4 <do10us>:
}



void do10us(){
	if(t15Tik){
      b4:	80 91 11 01 	lds	r24, 0x0111	; 0x800111 <t15Tik>
      b8:	90 91 12 01 	lds	r25, 0x0112	; 0x800112 <t15Tik+0x1>
      bc:	00 97       	sbiw	r24, 0x00	; 0
      be:	31 f0       	breq	.+12     	; 0xcc <do10us+0x18>
		t15Tik--;
      c0:	01 97       	sbiw	r24, 0x01	; 1
      c2:	90 93 12 01 	sts	0x0112, r25	; 0x800112 <t15Tik+0x1>
      c6:	80 93 11 01 	sts	0x0111, r24	; 0x800111 <t15Tik>
      ca:	09 c0       	rjmp	.+18     	; 0xde <do10us+0x2a>
	}else if((decodeState != IDLE) && (decodeState != DISCARD)){
      cc:	80 91 5c 01 	lds	r24, 0x015C	; 0x80015c <decodeState>
      d0:	88 23       	and	r24, r24
      d2:	29 f0       	breq	.+10     	; 0xde <do10us+0x2a>
      d4:	86 30       	cpi	r24, 0x06	; 6
      d6:	19 f0       	breq	.+6      	; 0xde <do10us+0x2a>
		decodeState = DISCARD;
      d8:	86 e0       	ldi	r24, 0x06	; 6
      da:	80 93 5c 01 	sts	0x015C, r24	; 0x80015c <decodeState>
	}
	if(t35Tik){
      de:	80 91 0f 01 	lds	r24, 0x010F	; 0x80010f <t35Tik>
      e2:	90 91 10 01 	lds	r25, 0x0110	; 0x800110 <t35Tik+0x1>
      e6:	00 97       	sbiw	r24, 0x00	; 0
      e8:	31 f0       	breq	.+12     	; 0xf6 <do10us+0x42>
		t35Tik--;
      ea:	01 97       	sbiw	r24, 0x01	; 1
      ec:	90 93 10 01 	sts	0x0110, r25	; 0x800110 <t35Tik+0x1>
      f0:	80 93 0f 01 	sts	0x010F, r24	; 0x80010f <t35Tik>
      f4:	08 95       	ret
	}else{
		decodeState = IDLE;
      f6:	10 92 5c 01 	sts	0x015C, r1	; 0x80015c <decodeState>
		indexRxR = indexRxW;
      fa:	80 91 66 02 	lds	r24, 0x0266	; 0x800266 <indexRxW>
      fe:	80 93 65 02 	sts	0x0265, r24	; 0x800265 <indexRxR>
     102:	08 95       	ret

00000104 <do10ms>:
	}
}

void do10ms(){
	hbTime--;
     104:	80 91 0c 01 	lds	r24, 0x010C	; 0x80010c <hbTime>
     108:	81 50       	subi	r24, 0x01	; 1
     10a:	80 93 0c 01 	sts	0x010C, r24	; 0x80010c <hbTime>
	commFlags.iFlags.isEvent1 = 1;
     10e:	80 91 5d 02 	lds	r24, 0x025D	; 0x80025d <commFlags>
     112:	81 60       	ori	r24, 0x01	; 1
     114:	80 93 5d 02 	sts	0x025D, r24	; 0x80025d <commFlags>
	unixTik--;
     118:	80 91 0b 01 	lds	r24, 0x010B	; 0x80010b <unixTik>
     11c:	81 50       	subi	r24, 0x01	; 1
     11e:	80 93 0b 01 	sts	0x010B, r24	; 0x80010b <unixTik>
	if(!unixTik){ //esto no se si aca o en el main idk
     122:	81 11       	cpse	r24, r1
     124:	1a c0       	rjmp	.+52     	; 0x15a <do10ms+0x56>
		if(is500ms){
     126:	80 91 00 01 	lds	r24, 0x0100	; 0x800100 <__DATA_REGION_ORIGIN__>
     12a:	88 23       	and	r24, r24
     12c:	81 f0       	breq	.+32     	; 0x14e <do10ms+0x4a>
			modbusRegister.unixTime++ ;				
     12e:	e0 e0       	ldi	r30, 0x00	; 0
     130:	f4 e0       	ldi	r31, 0x04	; 4
     132:	80 81       	ld	r24, Z
     134:	91 81       	ldd	r25, Z+1	; 0x01
     136:	a2 81       	ldd	r26, Z+2	; 0x02
     138:	b3 81       	ldd	r27, Z+3	; 0x03
     13a:	01 96       	adiw	r24, 0x01	; 1
     13c:	a1 1d       	adc	r26, r1
     13e:	b1 1d       	adc	r27, r1
     140:	80 83       	st	Z, r24
     142:	91 83       	std	Z+1, r25	; 0x01
     144:	a2 83       	std	Z+2, r26	; 0x02
     146:	b3 83       	std	Z+3, r27	; 0x03
			is500ms = 0;
     148:	10 92 00 01 	sts	0x0100, r1	; 0x800100 <__DATA_REGION_ORIGIN__>
     14c:	03 c0       	rjmp	.+6      	; 0x154 <do10ms+0x50>
		}else{
			is500ms=1;
     14e:	81 e0       	ldi	r24, 0x01	; 1
     150:	80 93 00 01 	sts	0x0100, r24	; 0x800100 <__DATA_REGION_ORIGIN__>
		}
		unixTik = PERIOD250MS;
     154:	89 e1       	ldi	r24, 0x19	; 25
     156:	80 93 0b 01 	sts	0x010B, r24	; 0x80010b <unixTik>
     15a:	08 95       	ret

0000015c <ISRVirtualUsart>:
}



void ISRVirtualUsart(){
	tim2Tik--;
     15c:	80 91 07 01 	lds	r24, 0x0107	; 0x800107 <tim2Tik>
     160:	90 91 08 01 	lds	r25, 0x0108	; 0x800108 <tim2Tik+0x1>
     164:	01 97       	sbiw	r24, 0x01	; 1
     166:	90 93 08 01 	sts	0x0108, r25	; 0x800108 <tim2Tik+0x1>
     16a:	80 93 07 01 	sts	0x0107, r24	; 0x800107 <tim2Tik>
	tikRX--;
     16e:	80 91 79 03 	lds	r24, 0x0379	; 0x800379 <tikRX>
     172:	81 50       	subi	r24, 0x01	; 1
     174:	80 93 79 03 	sts	0x0379, r24	; 0x800379 <tikRX>
	if(!tikRX){
     178:	81 11       	cpse	r24, r1
     17a:	08 c0       	rjmp	.+16     	; 0x18c <ISRVirtualUsart+0x30>
		//FUNCION LECTURA
		tikRX = PERIODBR;
     17c:	82 e0       	ldi	r24, 0x02	; 2
     17e:	80 93 79 03 	sts	0x0379, r24	; 0x800379 <tikRX>
		if(USART1_RXENABLE){
     182:	80 91 7a 03 	lds	r24, 0x037A	; 0x80037a <USART1>
     186:	81 fd       	sbrc	r24, 1
			USART1_RECEIVE();
     188:	0e 94 9b 0c 	call	0x1936	; 0x1936 <USART1_RECEIVE>
		}//else inicializar variables
	}
	
	if(USART1_RX_COMPLETE == 1 && USART1_RX_READY == 0){
     18c:	80 91 7a 03 	lds	r24, 0x037A	; 0x80037a <USART1>
     190:	84 78       	andi	r24, 0x84	; 132
     192:	80 38       	cpi	r24, 0x80	; 128
     194:	11 f4       	brne	.+4      	; 0x19a <ISRVirtualUsart+0x3e>
		USART1_receiveByte();
     196:	0e 94 1e 0d 	call	0x1a3c	; 0x1a3c <USART1_receiveByte>
	}
	
	if(TIM2_BR.iFlags.BR9600){
     19a:	80 91 6f 03 	lds	r24, 0x036F	; 0x80036f <TIM2_BR>
     19e:	80 ff       	sbrs	r24, 0
     1a0:	11 c0       	rjmp	.+34     	; 0x1c4 <ISRVirtualUsart+0x68>
		TIM2_BR.iFlags.BR9600 = 0;
     1a2:	8e 7f       	andi	r24, 0xFE	; 254
     1a4:	80 93 6f 03 	sts	0x036F, r24	; 0x80036f <TIM2_BR>
		
		if(USART1_TX_DONE == 1 && USART1_TX_READY == 0){ //hay dato para guardar en rx data
     1a8:	80 91 7a 03 	lds	r24, 0x037A	; 0x80037a <USART1>
     1ac:	88 71       	andi	r24, 0x18	; 24
     1ae:	80 31       	cpi	r24, 0x10	; 16
     1b0:	11 f4       	brne	.+4      	; 0x1b6 <ISRVirtualUsart+0x5a>
			USART1_SendByte();
     1b2:	0e 94 0c 0d 	call	0x1a18	; 0x1a18 <USART1_SendByte>
		}
		
		if(USART1_TXENABLE)//else inicializar variables
     1b6:	80 91 7a 03 	lds	r24, 0x037A	; 0x80037a <USART1>
     1ba:	80 ff       	sbrs	r24, 0
     1bc:	08 c0       	rjmp	.+16     	; 0x1ce <ISRVirtualUsart+0x72>
			USART1_TRANSMIT();
     1be:	0e 94 5a 0c 	call	0x18b4	; 0x18b4 <USART1_TRANSMIT>
     1c2:	08 95       	ret
		}else{
			TIM2_BR.iFlags.BR9600 = 1;
     1c4:	80 91 6f 03 	lds	r24, 0x036F	; 0x80036f <TIM2_BR>
     1c8:	81 60       	ori	r24, 0x01	; 1
     1ca:	80 93 6f 03 	sts	0x036F, r24	; 0x80036f <TIM2_BR>
     1ce:	08 95       	ret

000001d0 <UARTsendByte>:
	RestartTikValues(); 
	MODBUS_DecodeFrame(UDR0);
}

void UARTsendByte(){
	while(indexTxR != indexTxW){
     1d0:	10 c0       	rjmp	.+32     	; 0x1f2 <UARTsendByte+0x22>
		if (USART0_IsTxReady()) {
     1d2:	0e 94 d1 0b 	call	0x17a2	; 0x17a2 <USART0_IsTxReady>
     1d6:	88 23       	and	r24, r24
     1d8:	61 f0       	breq	.+24     	; 0x1f2 <UARTsendByte+0x22>
			USART0_Write(bufferTx[indexTxR++]);
     1da:	e0 91 5e 02 	lds	r30, 0x025E	; 0x80025e <indexTxR>
     1de:	81 e0       	ldi	r24, 0x01	; 1
     1e0:	8e 0f       	add	r24, r30
     1e2:	80 93 5e 02 	sts	0x025E, r24	; 0x80025e <indexTxR>
     1e6:	f0 e0       	ldi	r31, 0x00	; 0
     1e8:	e1 59       	subi	r30, 0x91	; 145
     1ea:	fd 4f       	sbci	r31, 0xFD	; 253
     1ec:	80 81       	ld	r24, Z
     1ee:	0e 94 dd 0b 	call	0x17ba	; 0x17ba <USART0_Write>
	RestartTikValues(); 
	MODBUS_DecodeFrame(UDR0);
}

void UARTsendByte(){
	while(indexTxR != indexTxW){
     1f2:	90 91 5e 02 	lds	r25, 0x025E	; 0x80025e <indexTxR>
     1f6:	80 91 57 01 	lds	r24, 0x0157	; 0x800157 <indexTxW>
     1fa:	98 13       	cpse	r25, r24
     1fc:	ea cf       	rjmp	.-44     	; 0x1d2 <UARTsendByte+0x2>
		if (USART0_IsTxReady()) {
			USART0_Write(bufferTx[indexTxR++]);
		}
	}
}
     1fe:	08 95       	ret

00000200 <USART0_ReceiveInterruptEnable>:

void USART0_ReceiveInterruptEnable(void){
	UCSR0B |= (1 << (RXCIE0));
     200:	e1 ec       	ldi	r30, 0xC1	; 193
     202:	f0 e0       	ldi	r31, 0x00	; 0
     204:	80 81       	ld	r24, Z
     206:	80 68       	ori	r24, 0x80	; 128
     208:	80 83       	st	Z, r24
     20a:	08 95       	ret

0000020c <USART0_ReceiveInterruptDisable>:
}

void USART0_ReceiveInterruptDisable(void){
	UCSR0B &= ~(1 << (RXCIE0));
     20c:	e1 ec       	ldi	r30, 0xC1	; 193
     20e:	f0 e0       	ldi	r31, 0x00	; 0
     210:	80 81       	ld	r24, Z
     212:	8f 77       	andi	r24, 0x7F	; 127
     214:	80 83       	st	Z, r24
     216:	08 95       	ret

00000218 <EEPROM_Write>:
}

int8_t EEPROM_Write(uint16_t address, uint8_t data) {
	//Validar direccion o da la vuelta
	if(address < 1 || address > 1023){
     218:	9c 01       	movw	r18, r24
     21a:	21 50       	subi	r18, 0x01	; 1
     21c:	31 09       	sbc	r19, r1
     21e:	2f 3f       	cpi	r18, 0xFF	; 255
     220:	33 40       	sbci	r19, 0x03	; 3
     222:	70 f4       	brcc	.+28     	; 0x240 <EEPROM_Write+0x28>
		return -1;
	}	
	while(EECR & (1<<EEPE)); //Este bit deben estar en 0.	
     224:	f9 99       	sbic	0x1f, 1	; 31
     226:	fe cf       	rjmp	.-4      	; 0x224 <EEPROM_Write+0xc>
	cli();
     228:	f8 94       	cli
	//Direccion del registro
	EEARL = address;	
     22a:	81 bd       	out	0x21, r24	; 33
	//Dato a guardar
	EEDR = data;
     22c:	60 bd       	out	0x20, r22	; 32
	//Configurar a escritura seteando EEMPE
	EECR |= (1<<EEMPE);
     22e:	8f b3       	in	r24, 0x1f	; 31
     230:	84 60       	ori	r24, 0x04	; 4
     232:	8f bb       	out	0x1f, r24	; 31
	//Iniciar la escritura seteando EEPE 
	EECR |= (1<<EEPE);
     234:	8f b3       	in	r24, 0x1f	; 31
     236:	82 60       	ori	r24, 0x02	; 2
     238:	8f bb       	out	0x1f, r24	; 31
	//Restaurar interrupciones
	sei();
     23a:	78 94       	sei
	
	return 1;
     23c:	81 e0       	ldi	r24, 0x01	; 1
     23e:	08 95       	ret
}

int8_t EEPROM_Write(uint16_t address, uint8_t data) {
	//Validar direccion o da la vuelta
	if(address < 1 || address > 1023){
		return -1;
     240:	8f ef       	ldi	r24, 0xFF	; 255
	EECR |= (1<<EEPE);
	//Restaurar interrupciones
	sei();
	
	return 1;
}
     242:	08 95       	ret

00000244 <EEPROM_Read>:

int16_t EEPROM_Read(uint16_t address) {
	//Validar direccion o da la vuelta
	if(address < 1 || address > 1023){
     244:	9c 01       	movw	r18, r24
     246:	21 50       	subi	r18, 0x01	; 1
     248:	31 09       	sbc	r19, r1
     24a:	2f 3f       	cpi	r18, 0xFF	; 255
     24c:	33 40       	sbci	r19, 0x03	; 3
     24e:	50 f4       	brcc	.+20     	; 0x264 <EEPROM_Read+0x20>
		return -1;
	}
	while(EECR & (1<<EEPE)); //Estos bits deben estar en 0.
     250:	f9 99       	sbic	0x1f, 1	; 31
     252:	fe cf       	rjmp	.-4      	; 0x250 <EEPROM_Read+0xc>
	//Direccion del registro
	EEAR = address;
     254:	92 bd       	out	0x22, r25	; 34
     256:	81 bd       	out	0x21, r24	; 33
	//Leer datos
	EECR |= (1 << EERE);
     258:	8f b3       	in	r24, 0x1f	; 31
     25a:	81 60       	ori	r24, 0x01	; 1
     25c:	8f bb       	out	0x1f, r24	; 31
	//devolver dato leido
	return EEDR;
     25e:	80 b5       	in	r24, 0x20	; 32
     260:	90 e0       	ldi	r25, 0x00	; 0
     262:	08 95       	ret
}

int16_t EEPROM_Read(uint16_t address) {
	//Validar direccion o da la vuelta
	if(address < 1 || address > 1023){
		return -1;
     264:	8f ef       	ldi	r24, 0xFF	; 255
     266:	9f ef       	ldi	r25, 0xFF	; 255
	EEAR = address;
	//Leer datos
	EECR |= (1 << EERE);
	//devolver dato leido
	return EEDR;
}
     268:	08 95       	ret

0000026a <RestartTikValues>:

void RestartTikValues(){
	
	if(auxbrConfig){
     26a:	80 91 0e 01 	lds	r24, 0x010E	; 0x80010e <auxbrConfig>
     26e:	88 23       	and	r24, r24
     270:	f1 f0       	breq	.+60     	; 0x2ae <RestartTikValues+0x44>
		if(auxParity){
     272:	80 91 0d 01 	lds	r24, 0x010D	; 0x80010d <auxParity>
     276:	88 23       	and	r24, r24
     278:	69 f0       	breq	.+26     	; 0x294 <RestartTikValues+0x2a>
			t15Tik = T15_BR11;
     27a:	86 e5       	ldi	r24, 0x56	; 86
     27c:	90 e0       	ldi	r25, 0x00	; 0
     27e:	90 93 12 01 	sts	0x0112, r25	; 0x800112 <t15Tik+0x1>
     282:	80 93 11 01 	sts	0x0111, r24	; 0x800111 <t15Tik>
			t35Tik = T35_BR11;
     286:	89 ec       	ldi	r24, 0xC9	; 201
     288:	90 e0       	ldi	r25, 0x00	; 0
     28a:	90 93 10 01 	sts	0x0110, r25	; 0x800110 <t35Tik+0x1>
     28e:	80 93 0f 01 	sts	0x010F, r24	; 0x80010f <t35Tik>
     292:	08 95       	ret
			}else{
			t15Tik = T15_BR10;
     294:	8f e4       	ldi	r24, 0x4F	; 79
     296:	90 e0       	ldi	r25, 0x00	; 0
     298:	90 93 12 01 	sts	0x0112, r25	; 0x800112 <t15Tik+0x1>
     29c:	80 93 11 01 	sts	0x0111, r24	; 0x800111 <t15Tik>
			t35Tik = T35_BR10;
     2a0:	87 eb       	ldi	r24, 0xB7	; 183
     2a2:	90 e0       	ldi	r25, 0x00	; 0
     2a4:	90 93 10 01 	sts	0x0110, r25	; 0x800110 <t35Tik+0x1>
     2a8:	80 93 0f 01 	sts	0x010F, r24	; 0x80010f <t35Tik>
     2ac:	08 95       	ret
		}
	}else{
		if(auxParity){
     2ae:	80 91 0d 01 	lds	r24, 0x010D	; 0x80010d <auxParity>
     2b2:	88 23       	and	r24, r24
     2b4:	69 f0       	breq	.+26     	; 0x2d0 <RestartTikValues+0x66>
			t15Tik = T15_BR01;
     2b6:	8c ea       	ldi	r24, 0xAC	; 172
     2b8:	90 e0       	ldi	r25, 0x00	; 0
     2ba:	90 93 12 01 	sts	0x0112, r25	; 0x800112 <t15Tik+0x1>
     2be:	80 93 11 01 	sts	0x0111, r24	; 0x800111 <t15Tik>
			t35Tik = T35_BR01;
     2c2:	81 e9       	ldi	r24, 0x91	; 145
     2c4:	91 e0       	ldi	r25, 0x01	; 1
     2c6:	90 93 10 01 	sts	0x0110, r25	; 0x800110 <t35Tik+0x1>
     2ca:	80 93 0f 01 	sts	0x010F, r24	; 0x80010f <t35Tik>
     2ce:	08 95       	ret
			}else{
			t15Tik = T15_BR00;
     2d0:	8d e9       	ldi	r24, 0x9D	; 157
     2d2:	90 e0       	ldi	r25, 0x00	; 0
     2d4:	90 93 12 01 	sts	0x0112, r25	; 0x800112 <t15Tik+0x1>
     2d8:	80 93 11 01 	sts	0x0111, r24	; 0x800111 <t15Tik>
			t35Tik = T35_BR00;
     2dc:	8d e6       	ldi	r24, 0x6D	; 109
     2de:	91 e0       	ldi	r25, 0x01	; 1
     2e0:	90 93 10 01 	sts	0x0110, r25	; 0x800110 <t35Tik+0x1>
     2e4:	80 93 0f 01 	sts	0x010F, r24	; 0x80010f <t35Tik>
     2e8:	08 95       	ret

000002ea <InitializeEvents>:
		unixTik = PERIOD250MS;
	}
}

void InitializeEvents(){
	 for(int i = 0; i < MAXEVENTS; i++) {
     2ea:	80 e0       	ldi	r24, 0x00	; 0
     2ec:	90 e0       	ldi	r25, 0x00	; 0
     2ee:	10 c0       	rjmp	.+32     	; 0x310 <InitializeEvents+0x26>
		  myEvents[i].ID = 0;
     2f0:	fc 01       	movw	r30, r24
     2f2:	ee 0f       	add	r30, r30
     2f4:	ff 1f       	adc	r31, r31
     2f6:	e8 0f       	add	r30, r24
     2f8:	f9 1f       	adc	r31, r25
     2fa:	ee 0f       	add	r30, r30
     2fc:	ff 1f       	adc	r31, r31
     2fe:	ee 58       	subi	r30, 0x8E	; 142
     300:	f8 4f       	sbci	r31, 0xF8	; 248
     302:	10 82       	st	Z, r1
		  myEvents[i].stateLastEvent = 0;
     304:	11 82       	std	Z+1, r1	; 0x01
		  myEvents[i].timeLastEvent = 0;
     306:	12 82       	std	Z+2, r1	; 0x02
     308:	13 82       	std	Z+3, r1	; 0x03
     30a:	14 82       	std	Z+4, r1	; 0x04
     30c:	15 82       	std	Z+5, r1	; 0x05
		unixTik = PERIOD250MS;
	}
}

void InitializeEvents(){
	 for(int i = 0; i < MAXEVENTS; i++) {
     30e:	01 96       	adiw	r24, 0x01	; 1
     310:	82 33       	cpi	r24, 0x32	; 50
     312:	91 05       	cpc	r25, r1
     314:	6c f3       	brlt	.-38     	; 0x2f0 <InitializeEvents+0x6>
		  myEvents[i].ID = 0;
		  myEvents[i].stateLastEvent = 0;
		  myEvents[i].timeLastEvent = 0;
	 }
}
     316:	08 95       	ret

00000318 <UpdateState>:
	    commFlags.iFlags.isEvent1 = 0;
    }

 void UpdateState(uint8_t lect, uint8_t mask, uint8_t indice){
	
	  if(((~PINC) & mask) == (lect & mask)){ //Probar asi y sino ~(PORTA & mask)
     318:	26 b1       	in	r18, 0x06	; 6
     31a:	30 e0       	ldi	r19, 0x00	; 0
     31c:	20 95       	com	r18
     31e:	30 95       	com	r19
     320:	e6 2f       	mov	r30, r22
     322:	f0 e0       	ldi	r31, 0x00	; 0
     324:	2e 23       	and	r18, r30
     326:	3f 23       	and	r19, r31
     328:	86 23       	and	r24, r22
     32a:	e8 2f       	mov	r30, r24
     32c:	f0 e0       	ldi	r31, 0x00	; 0
     32e:	2e 17       	cp	r18, r30
     330:	3f 07       	cpc	r19, r31
     332:	09 f0       	breq	.+2      	; 0x336 <UpdateState+0x1e>
     334:	3f c0       	rjmp	.+126    	; 0x3b4 <UpdateState+0x9c>
		  if(lect & mask){
     336:	88 23       	and	r24, r24
     338:	a9 f0       	breq	.+42     	; 0x364 <UpdateState+0x4c>
			  outValues |= mask; 
     33a:	80 91 04 01 	lds	r24, 0x0104	; 0x800104 <outValues>
     33e:	68 2b       	or	r22, r24
     340:	60 93 04 01 	sts	0x0104, r22	; 0x800104 <outValues>
			  myEvents[eventIndexW].stateLastEvent = 1;
     344:	80 91 01 01 	lds	r24, 0x0101	; 0x800101 <eventIndexW>
     348:	90 91 02 01 	lds	r25, 0x0102	; 0x800102 <eventIndexW+0x1>
     34c:	fc 01       	movw	r30, r24
     34e:	ee 0f       	add	r30, r30
     350:	ff 1f       	adc	r31, r31
     352:	e8 0f       	add	r30, r24
     354:	f9 1f       	adc	r31, r25
     356:	ee 0f       	add	r30, r30
     358:	ff 1f       	adc	r31, r31
     35a:	ee 58       	subi	r30, 0x8E	; 142
     35c:	f8 4f       	sbci	r31, 0xF8	; 248
     35e:	81 e0       	ldi	r24, 0x01	; 1
     360:	81 83       	std	Z+1, r24	; 0x01
     362:	28 c0       	rjmp	.+80     	; 0x3b4 <UpdateState+0x9c>
		   }else{
			  if(outValues & mask){
     364:	80 91 04 01 	lds	r24, 0x0104	; 0x800104 <outValues>
     368:	96 2f       	mov	r25, r22
     36a:	98 23       	and	r25, r24
     36c:	89 f0       	breq	.+34     	; 0x390 <UpdateState+0x78>
				  tikBetweenTime[indice] = modbusRegister.timeBtw[indice];
     36e:	24 2f       	mov	r18, r20
     370:	30 e0       	ldi	r19, 0x00	; 0
     372:	f9 01       	movw	r30, r18
     374:	33 96       	adiw	r30, 0x03	; 3
     376:	ee 0f       	add	r30, r30
     378:	ff 1f       	adc	r31, r31
     37a:	e0 50       	subi	r30, 0x00	; 0
     37c:	fc 4f       	sbci	r31, 0xFC	; 252
     37e:	a0 81       	ld	r26, Z
     380:	b1 81       	ldd	r27, Z+1	; 0x01
     382:	22 0f       	add	r18, r18
     384:	33 1f       	adc	r19, r19
     386:	f9 01       	movw	r30, r18
     388:	e0 59       	subi	r30, 0x90	; 144
     38a:	fc 4f       	sbci	r31, 0xFC	; 252
     38c:	b1 83       	std	Z+1, r27	; 0x01
     38e:	a0 83       	st	Z, r26
			  }
			 outValues &= ~mask;
     390:	60 95       	com	r22
     392:	68 23       	and	r22, r24
     394:	60 93 04 01 	sts	0x0104, r22	; 0x800104 <outValues>
			 myEvents[eventIndexW].stateLastEvent = 0;
     398:	80 91 01 01 	lds	r24, 0x0101	; 0x800101 <eventIndexW>
     39c:	90 91 02 01 	lds	r25, 0x0102	; 0x800102 <eventIndexW+0x1>
     3a0:	fc 01       	movw	r30, r24
     3a2:	ee 0f       	add	r30, r30
     3a4:	ff 1f       	adc	r31, r31
     3a6:	e8 0f       	add	r30, r24
     3a8:	f9 1f       	adc	r31, r25
     3aa:	ee 0f       	add	r30, r30
     3ac:	ff 1f       	adc	r31, r31
     3ae:	ee 58       	subi	r30, 0x8E	; 142
     3b0:	f8 4f       	sbci	r31, 0xF8	; 248
     3b2:	11 82       	std	Z+1, r1	; 0x01
  
		    }
	    }
		//new event y index cosas separadas, new events se debe reiniciar cada que se envian esa cantidad de datos
		myEvents[eventIndexW].ID = indice;
     3b4:	80 91 01 01 	lds	r24, 0x0101	; 0x800101 <eventIndexW>
     3b8:	90 91 02 01 	lds	r25, 0x0102	; 0x800102 <eventIndexW+0x1>
     3bc:	fc 01       	movw	r30, r24
     3be:	ee 0f       	add	r30, r30
     3c0:	ff 1f       	adc	r31, r31
     3c2:	e8 0f       	add	r30, r24
     3c4:	f9 1f       	adc	r31, r25
     3c6:	ee 0f       	add	r30, r30
     3c8:	ff 1f       	adc	r31, r31
     3ca:	ee 58       	subi	r30, 0x8E	; 142
     3cc:	f8 4f       	sbci	r31, 0xF8	; 248
     3ce:	40 83       	st	Z, r20
	   // myEvents[EventIndexW].stateLastEvent = outValues & mask;
	    myEvents[eventIndexW].timeLastEvent = modbusRegister.unixTime;
     3d0:	a0 e0       	ldi	r26, 0x00	; 0
     3d2:	b4 e0       	ldi	r27, 0x04	; 4
     3d4:	4d 91       	ld	r20, X+
     3d6:	5d 91       	ld	r21, X+
     3d8:	6d 91       	ld	r22, X+
     3da:	7c 91       	ld	r23, X
     3dc:	13 97       	sbiw	r26, 0x03	; 3
     3de:	42 83       	std	Z+2, r20	; 0x02
     3e0:	53 83       	std	Z+3, r21	; 0x03
     3e2:	64 83       	std	Z+4, r22	; 0x04
     3e4:	75 83       	std	Z+5, r23	; 0x05
		eventIndexW++;
     3e6:	01 96       	adiw	r24, 0x01	; 1
     3e8:	90 93 02 01 	sts	0x0102, r25	; 0x800102 <eventIndexW+0x1>
     3ec:	80 93 01 01 	sts	0x0101, r24	; 0x800101 <eventIndexW>
	    modbusRegister.newEventCounter++;
     3f0:	50 96       	adiw	r26, 0x10	; 16
     3f2:	2d 91       	ld	r18, X+
     3f4:	3c 91       	ld	r19, X
     3f6:	51 97       	sbiw	r26, 0x11	; 17
     3f8:	2f 5f       	subi	r18, 0xFF	; 255
     3fa:	3f 4f       	sbci	r19, 0xFF	; 255
     3fc:	51 96       	adiw	r26, 0x11	; 17
     3fe:	3c 93       	st	X, r19
     400:	2e 93       	st	-X, r18
     402:	50 97       	sbiw	r26, 0x10	; 16
	    if(eventIndexW == MAXEVENTS){
     404:	c2 97       	sbiw	r24, 0x32	; 50
     406:	21 f4       	brne	.+8      	; 0x410 <__EEPROM_REGION_LENGTH__+0x10>
		    eventIndexW = 0;
     408:	10 92 02 01 	sts	0x0102, r1	; 0x800102 <eventIndexW+0x1>
     40c:	10 92 01 01 	sts	0x0101, r1	; 0x800101 <eventIndexW>
     410:	08 95       	ret

00000412 <RegInput>:
	 }
}

void RegInput(){
		
	    newValueA = ~(PINC & MASK_PORTC);
     412:	86 b1       	in	r24, 0x06	; 6
     414:	8f 70       	andi	r24, 0x0F	; 15
     416:	80 95       	com	r24
     418:	80 93 05 01 	sts	0x0105, r24	; 0x800105 <newValueA>
	    inputFlags.aFlags_input = (newValueA ^ oldValueA);
     41c:	90 91 06 01 	lds	r25, 0x0106	; 0x800106 <oldValueA>
     420:	98 27       	eor	r25, r24
     422:	90 93 64 02 	sts	0x0264, r25	; 0x800264 <inputFlags>
	    
	    if(tikBetweenTime[0]){
     426:	20 91 70 03 	lds	r18, 0x0370	; 0x800370 <tikBetweenTime>
     42a:	30 91 71 03 	lds	r19, 0x0371	; 0x800371 <tikBetweenTime+0x1>
     42e:	21 15       	cp	r18, r1
     430:	31 05       	cpc	r19, r1
     432:	39 f0       	breq	.+14     	; 0x442 <RegInput+0x30>
		    tikBetweenTime[0]--;
     434:	21 50       	subi	r18, 0x01	; 1
     436:	31 09       	sbc	r19, r1
     438:	30 93 71 03 	sts	0x0371, r19	; 0x800371 <tikBetweenTime+0x1>
     43c:	20 93 70 03 	sts	0x0370, r18	; 0x800370 <tikBetweenTime>
     440:	1e c0       	rjmp	.+60     	; 0x47e <RegInput+0x6c>
		}else{
		    if(inputFlags.iFlags.isEvent1){
     442:	90 91 64 02 	lds	r25, 0x0264	; 0x800264 <inputFlags>
     446:	90 ff       	sbrs	r25, 0
     448:	0b c0       	rjmp	.+22     	; 0x460 <RegInput+0x4e>
			    tikDebounce[0] = PERIOD100MS;
     44a:	9a e0       	ldi	r25, 0x0A	; 10
     44c:	90 93 58 01 	sts	0x0158, r25	; 0x800158 <tikDebounce>
			    lecture = (lecture & ~(MASK_IN1)) | (newValueA & MASK_IN1);
     450:	90 91 03 01 	lds	r25, 0x0103	; 0x800103 <lecture>
     454:	9e 7f       	andi	r25, 0xFE	; 254
     456:	81 70       	andi	r24, 0x01	; 1
     458:	89 2b       	or	r24, r25
     45a:	80 93 03 01 	sts	0x0103, r24	; 0x800103 <lecture>
     45e:	0f c0       	rjmp	.+30     	; 0x47e <RegInput+0x6c>
			    }else{
			    if(tikDebounce[0]){
     460:	80 91 58 01 	lds	r24, 0x0158	; 0x800158 <tikDebounce>
     464:	88 23       	and	r24, r24
     466:	59 f0       	breq	.+22     	; 0x47e <RegInput+0x6c>
				    tikDebounce[0]--;
     468:	81 50       	subi	r24, 0x01	; 1
     46a:	80 93 58 01 	sts	0x0158, r24	; 0x800158 <tikDebounce>
				    if(tikDebounce[0] == 0){
     46e:	81 11       	cpse	r24, r1
     470:	06 c0       	rjmp	.+12     	; 0x47e <RegInput+0x6c>
					    UpdateState(lecture, MASK_IN1, 0);
     472:	40 e0       	ldi	r20, 0x00	; 0
     474:	61 e0       	ldi	r22, 0x01	; 1
     476:	80 91 03 01 	lds	r24, 0x0103	; 0x800103 <lecture>
     47a:	0e 94 8c 01 	call	0x318	; 0x318 <UpdateState>
				    }
			    }
		    }
	    }
	    
	    if(tikBetweenTime[1]){
     47e:	80 91 72 03 	lds	r24, 0x0372	; 0x800372 <tikBetweenTime+0x2>
     482:	90 91 73 03 	lds	r25, 0x0373	; 0x800373 <tikBetweenTime+0x3>
     486:	00 97       	sbiw	r24, 0x00	; 0
     488:	31 f0       	breq	.+12     	; 0x496 <RegInput+0x84>
		    tikBetweenTime[1]--;
     48a:	01 97       	sbiw	r24, 0x01	; 1
     48c:	90 93 73 03 	sts	0x0373, r25	; 0x800373 <tikBetweenTime+0x3>
     490:	80 93 72 03 	sts	0x0372, r24	; 0x800372 <tikBetweenTime+0x2>
     494:	21 c0       	rjmp	.+66     	; 0x4d8 <RegInput+0xc6>
		    }else{
		    if(inputFlags.iFlags.isEvent2){
     496:	80 91 64 02 	lds	r24, 0x0264	; 0x800264 <inputFlags>
     49a:	81 ff       	sbrs	r24, 1
     49c:	0e c0       	rjmp	.+28     	; 0x4ba <RegInput+0xa8>
			    tikDebounce[1] = PERIOD100MS;
     49e:	8a e0       	ldi	r24, 0x0A	; 10
     4a0:	80 93 59 01 	sts	0x0159, r24	; 0x800159 <tikDebounce+0x1>
			    lecture = (lecture & ~(MASK_IN2)) | (newValueA & MASK_IN2);
     4a4:	80 91 03 01 	lds	r24, 0x0103	; 0x800103 <lecture>
     4a8:	98 2f       	mov	r25, r24
     4aa:	9d 7f       	andi	r25, 0xFD	; 253
     4ac:	80 91 05 01 	lds	r24, 0x0105	; 0x800105 <newValueA>
     4b0:	82 70       	andi	r24, 0x02	; 2
     4b2:	89 2b       	or	r24, r25
     4b4:	80 93 03 01 	sts	0x0103, r24	; 0x800103 <lecture>
     4b8:	0f c0       	rjmp	.+30     	; 0x4d8 <RegInput+0xc6>
			    }else{
			    if(tikDebounce[1]){
     4ba:	80 91 59 01 	lds	r24, 0x0159	; 0x800159 <tikDebounce+0x1>
     4be:	88 23       	and	r24, r24
     4c0:	59 f0       	breq	.+22     	; 0x4d8 <RegInput+0xc6>
				    tikDebounce[1]--;
     4c2:	81 50       	subi	r24, 0x01	; 1
     4c4:	80 93 59 01 	sts	0x0159, r24	; 0x800159 <tikDebounce+0x1>
				    if(tikDebounce[1] == 0){
     4c8:	81 11       	cpse	r24, r1
     4ca:	06 c0       	rjmp	.+12     	; 0x4d8 <RegInput+0xc6>
					    UpdateState(lecture, MASK_IN2, 1);
     4cc:	41 e0       	ldi	r20, 0x01	; 1
     4ce:	62 e0       	ldi	r22, 0x02	; 2
     4d0:	80 91 03 01 	lds	r24, 0x0103	; 0x800103 <lecture>
     4d4:	0e 94 8c 01 	call	0x318	; 0x318 <UpdateState>
				    }
			    }
		    }
	    }
	    
	    if(tikBetweenTime[2]){
     4d8:	80 91 74 03 	lds	r24, 0x0374	; 0x800374 <tikBetweenTime+0x4>
     4dc:	90 91 75 03 	lds	r25, 0x0375	; 0x800375 <tikBetweenTime+0x5>
     4e0:	00 97       	sbiw	r24, 0x00	; 0
     4e2:	31 f0       	breq	.+12     	; 0x4f0 <RegInput+0xde>
		    tikBetweenTime[2]--;
     4e4:	01 97       	sbiw	r24, 0x01	; 1
     4e6:	90 93 75 03 	sts	0x0375, r25	; 0x800375 <tikBetweenTime+0x5>
     4ea:	80 93 74 03 	sts	0x0374, r24	; 0x800374 <tikBetweenTime+0x4>
     4ee:	21 c0       	rjmp	.+66     	; 0x532 <RegInput+0x120>
		    }else{
		    if(inputFlags.iFlags.isEvent3){
     4f0:	80 91 64 02 	lds	r24, 0x0264	; 0x800264 <inputFlags>
     4f4:	82 ff       	sbrs	r24, 2
     4f6:	0e c0       	rjmp	.+28     	; 0x514 <RegInput+0x102>
			    tikDebounce[2] = PERIOD100MS;
     4f8:	8a e0       	ldi	r24, 0x0A	; 10
     4fa:	80 93 5a 01 	sts	0x015A, r24	; 0x80015a <tikDebounce+0x2>
			    lecture = (lecture & ~(MASK_IN3)) | (newValueA & MASK_IN3);
     4fe:	80 91 03 01 	lds	r24, 0x0103	; 0x800103 <lecture>
     502:	98 2f       	mov	r25, r24
     504:	9b 7f       	andi	r25, 0xFB	; 251
     506:	80 91 05 01 	lds	r24, 0x0105	; 0x800105 <newValueA>
     50a:	84 70       	andi	r24, 0x04	; 4
     50c:	89 2b       	or	r24, r25
     50e:	80 93 03 01 	sts	0x0103, r24	; 0x800103 <lecture>
     512:	0f c0       	rjmp	.+30     	; 0x532 <RegInput+0x120>
			}else{
			    if(tikDebounce[2]){
     514:	80 91 5a 01 	lds	r24, 0x015A	; 0x80015a <tikDebounce+0x2>
     518:	88 23       	and	r24, r24
     51a:	59 f0       	breq	.+22     	; 0x532 <RegInput+0x120>
				    tikDebounce[2]--;
     51c:	81 50       	subi	r24, 0x01	; 1
     51e:	80 93 5a 01 	sts	0x015A, r24	; 0x80015a <tikDebounce+0x2>
				    if(tikDebounce[2] == 0){
     522:	81 11       	cpse	r24, r1
     524:	06 c0       	rjmp	.+12     	; 0x532 <RegInput+0x120>
					    UpdateState(lecture, MASK_IN3, 2);
     526:	42 e0       	ldi	r20, 0x02	; 2
     528:	64 e0       	ldi	r22, 0x04	; 4
     52a:	80 91 03 01 	lds	r24, 0x0103	; 0x800103 <lecture>
     52e:	0e 94 8c 01 	call	0x318	; 0x318 <UpdateState>
				    }
			    }
		    }
	    }
	    
	    if(tikBetweenTime[3]){
     532:	80 91 76 03 	lds	r24, 0x0376	; 0x800376 <tikBetweenTime+0x6>
     536:	90 91 77 03 	lds	r25, 0x0377	; 0x800377 <tikBetweenTime+0x7>
     53a:	00 97       	sbiw	r24, 0x00	; 0
     53c:	31 f0       	breq	.+12     	; 0x54a <RegInput+0x138>
		    tikBetweenTime[3]--;
     53e:	01 97       	sbiw	r24, 0x01	; 1
     540:	90 93 77 03 	sts	0x0377, r25	; 0x800377 <tikBetweenTime+0x7>
     544:	80 93 76 03 	sts	0x0376, r24	; 0x800376 <tikBetweenTime+0x6>
     548:	21 c0       	rjmp	.+66     	; 0x58c <RegInput+0x17a>
		    }else{
		    if(inputFlags.iFlags.isEvent4){
     54a:	80 91 64 02 	lds	r24, 0x0264	; 0x800264 <inputFlags>
     54e:	83 ff       	sbrs	r24, 3
     550:	0e c0       	rjmp	.+28     	; 0x56e <RegInput+0x15c>
			    tikDebounce[3] = PERIOD100MS;
     552:	8a e0       	ldi	r24, 0x0A	; 10
     554:	80 93 5b 01 	sts	0x015B, r24	; 0x80015b <tikDebounce+0x3>
			    lecture = (lecture & ~(MASK_IN4)) | (newValueA & MASK_IN4);
     558:	80 91 03 01 	lds	r24, 0x0103	; 0x800103 <lecture>
     55c:	98 2f       	mov	r25, r24
     55e:	97 7f       	andi	r25, 0xF7	; 247
     560:	80 91 05 01 	lds	r24, 0x0105	; 0x800105 <newValueA>
     564:	88 70       	andi	r24, 0x08	; 8
     566:	89 2b       	or	r24, r25
     568:	80 93 03 01 	sts	0x0103, r24	; 0x800103 <lecture>
     56c:	0f c0       	rjmp	.+30     	; 0x58c <RegInput+0x17a>
			    }else{
			    if(tikDebounce[3]){
     56e:	80 91 5b 01 	lds	r24, 0x015B	; 0x80015b <tikDebounce+0x3>
     572:	88 23       	and	r24, r24
     574:	59 f0       	breq	.+22     	; 0x58c <RegInput+0x17a>
				    tikDebounce[3]--;
     576:	81 50       	subi	r24, 0x01	; 1
     578:	80 93 5b 01 	sts	0x015B, r24	; 0x80015b <tikDebounce+0x3>
				    if(tikDebounce[3] == 0){
     57c:	81 11       	cpse	r24, r1
     57e:	06 c0       	rjmp	.+12     	; 0x58c <RegInput+0x17a>
					    UpdateState(lecture, MASK_IN4, 3);
     580:	43 e0       	ldi	r20, 0x03	; 3
     582:	68 e0       	ldi	r22, 0x08	; 8
     584:	80 91 03 01 	lds	r24, 0x0103	; 0x800103 <lecture>
     588:	0e 94 8c 01 	call	0x318	; 0x318 <UpdateState>
				    }
			    }
		    }
	    }
	    
	    oldValueA = newValueA;
     58c:	80 91 05 01 	lds	r24, 0x0105	; 0x800105 <newValueA>
     590:	80 93 06 01 	sts	0x0106, r24	; 0x800106 <oldValueA>
	    
	    TC0_Enable_CompareA_Interrupt();
     594:	0e 94 cf 0a 	call	0x159e	; 0x159e <TC0_Enable_CompareA_Interrupt>
	    
	    commFlags.iFlags.isEvent1 = 0;
     598:	80 91 5d 02 	lds	r24, 0x025D	; 0x80025d <commFlags>
     59c:	8e 7f       	andi	r24, 0xFE	; 254
     59e:	80 93 5d 02 	sts	0x025D, r24	; 0x80025d <commFlags>
     5a2:	08 95       	ret

000005a4 <SentEvents>:
	    }
    
}

/*--------------------------------*/
void SentEvents(uint16_t count){//LoadEvents
     5a4:	0f 93       	push	r16
     5a6:	1f 93       	push	r17
     5a8:	cf 93       	push	r28
     5aa:	df 93       	push	r29
	for (uint8_t i = 0; i<count; i++ ){
     5ac:	60 e0       	ldi	r22, 0x00	; 0
     5ae:	61 c0       	rjmp	.+194    	; 0x672 <SentEvents+0xce>
		if(modbusRegister.eventIndexR == MAXEVENTS){
     5b0:	20 91 12 04 	lds	r18, 0x0412	; 0x800412 <modbusRegister+0x12>
     5b4:	30 91 13 04 	lds	r19, 0x0413	; 0x800413 <modbusRegister+0x13>
     5b8:	22 33       	cpi	r18, 0x32	; 50
     5ba:	31 05       	cpc	r19, r1
     5bc:	21 f4       	brne	.+8      	; 0x5c6 <SentEvents+0x22>
			modbusRegister.eventIndexR=0;
     5be:	10 92 13 04 	sts	0x0413, r1	; 0x800413 <modbusRegister+0x13>
     5c2:	10 92 12 04 	sts	0x0412, r1	; 0x800412 <modbusRegister+0x12>
		}
		bufferTx[indexTxW++] = myEvents[modbusRegister.eventIndexR].ID;
     5c6:	a0 91 57 01 	lds	r26, 0x0157	; 0x800157 <indexTxW>
     5ca:	41 e0       	ldi	r20, 0x01	; 1
     5cc:	4a 0f       	add	r20, r26
     5ce:	b0 e0       	ldi	r27, 0x00	; 0
     5d0:	c0 e0       	ldi	r28, 0x00	; 0
     5d2:	d4 e0       	ldi	r29, 0x04	; 4
     5d4:	2a 89       	ldd	r18, Y+18	; 0x12
     5d6:	3b 89       	ldd	r19, Y+19	; 0x13
     5d8:	f9 01       	movw	r30, r18
     5da:	ee 0f       	add	r30, r30
     5dc:	ff 1f       	adc	r31, r31
     5de:	e2 0f       	add	r30, r18
     5e0:	f3 1f       	adc	r31, r19
     5e2:	ee 0f       	add	r30, r30
     5e4:	ff 1f       	adc	r31, r31
     5e6:	ee 58       	subi	r30, 0x8E	; 142
     5e8:	f8 4f       	sbci	r31, 0xF8	; 248
     5ea:	50 81       	ld	r21, Z
     5ec:	a1 59       	subi	r26, 0x91	; 145
     5ee:	bd 4f       	sbci	r27, 0xFD	; 253
     5f0:	5c 93       	st	X, r21
		bufferTx[indexTxW++] = myEvents[modbusRegister.eventIndexR].stateLastEvent;
     5f2:	11 e0       	ldi	r17, 0x01	; 1
     5f4:	14 0f       	add	r17, r20
     5f6:	50 e0       	ldi	r21, 0x00	; 0
     5f8:	71 81       	ldd	r23, Z+1	; 0x01
     5fa:	41 59       	subi	r20, 0x91	; 145
     5fc:	5d 4f       	sbci	r21, 0xFD	; 253
     5fe:	da 01       	movw	r26, r20
     600:	7c 93       	st	X, r23
		//SEPARAR 
		myWord.u32 = myEvents[modbusRegister.eventIndexR].timeLastEvent;
     602:	72 81       	ldd	r23, Z+2	; 0x02
     604:	b3 81       	ldd	r27, Z+3	; 0x03
     606:	54 81       	ldd	r21, Z+4	; 0x04
     608:	45 81       	ldd	r20, Z+5	; 0x05
     60a:	70 93 60 02 	sts	0x0260, r23	; 0x800260 <myWord>
     60e:	b0 93 61 02 	sts	0x0261, r27	; 0x800261 <myWord+0x1>
     612:	50 93 62 02 	sts	0x0262, r21	; 0x800262 <myWord+0x2>
     616:	40 93 63 02 	sts	0x0263, r20	; 0x800263 <myWord+0x3>
		bufferTx[indexTxW++] = myWord.ui8[0];
     61a:	e1 e0       	ldi	r30, 0x01	; 1
     61c:	e1 0f       	add	r30, r17
     61e:	a1 2f       	mov	r26, r17
     620:	b0 e0       	ldi	r27, 0x00	; 0
     622:	40 e6       	ldi	r20, 0x60	; 96
     624:	52 e0       	ldi	r21, 0x02	; 2
     626:	a1 59       	subi	r26, 0x91	; 145
     628:	bd 4f       	sbci	r27, 0xFD	; 253
     62a:	7c 93       	st	X, r23
		bufferTx[indexTxW++] = myWord.ui8[1];
     62c:	11 e0       	ldi	r17, 0x01	; 1
     62e:	1e 0f       	add	r17, r30
     630:	f0 e0       	ldi	r31, 0x00	; 0
     632:	da 01       	movw	r26, r20
     634:	11 96       	adiw	r26, 0x01	; 1
     636:	7c 91       	ld	r23, X
     638:	e1 59       	subi	r30, 0x91	; 145
     63a:	fd 4f       	sbci	r31, 0xFD	; 253
     63c:	70 83       	st	Z, r23
		bufferTx[indexTxW++] = myWord.ui8[2];
     63e:	01 e0       	ldi	r16, 0x01	; 1
     640:	01 0f       	add	r16, r17
     642:	a1 2f       	mov	r26, r17
     644:	b0 e0       	ldi	r27, 0x00	; 0
     646:	fa 01       	movw	r30, r20
     648:	72 81       	ldd	r23, Z+2	; 0x02
     64a:	a1 59       	subi	r26, 0x91	; 145
     64c:	bd 4f       	sbci	r27, 0xFD	; 253
     64e:	7c 93       	st	X, r23
		bufferTx[indexTxW++] = myWord.ui8[3];
     650:	71 e0       	ldi	r23, 0x01	; 1
     652:	70 0f       	add	r23, r16
     654:	70 93 57 01 	sts	0x0157, r23	; 0x800157 <indexTxW>
     658:	e0 2f       	mov	r30, r16
     65a:	f0 e0       	ldi	r31, 0x00	; 0
     65c:	da 01       	movw	r26, r20
     65e:	13 96       	adiw	r26, 0x03	; 3
     660:	4c 91       	ld	r20, X
     662:	e1 59       	subi	r30, 0x91	; 145
     664:	fd 4f       	sbci	r31, 0xFD	; 253
     666:	40 83       	st	Z, r20
		
		modbusRegister.eventIndexR++;
     668:	2f 5f       	subi	r18, 0xFF	; 255
     66a:	3f 4f       	sbci	r19, 0xFF	; 255
     66c:	3b 8b       	std	Y+19, r19	; 0x13
     66e:	2a 8b       	std	Y+18, r18	; 0x12
    
}

/*--------------------------------*/
void SentEvents(uint16_t count){//LoadEvents
	for (uint8_t i = 0; i<count; i++ ){
     670:	6f 5f       	subi	r22, 0xFF	; 255
     672:	26 2f       	mov	r18, r22
     674:	30 e0       	ldi	r19, 0x00	; 0
     676:	28 17       	cp	r18, r24
     678:	39 07       	cpc	r19, r25
     67a:	08 f4       	brcc	.+2      	; 0x67e <SentEvents+0xda>
     67c:	99 cf       	rjmp	.-206    	; 0x5b0 <SentEvents+0xc>
		bufferTx[indexTxW++] = myWord.ui8[2];
		bufferTx[indexTxW++] = myWord.ui8[3];
		
		modbusRegister.eventIndexR++;
	}
}
     67e:	df 91       	pop	r29
     680:	cf 91       	pop	r28
     682:	1f 91       	pop	r17
     684:	0f 91       	pop	r16
     686:	08 95       	ret

00000688 <MODBUS_CalculateCRC>:

void MODBUS_CalculateCRC(uint8_t data){//, uint16_t crc){
	myModbusFrame.crcSlave ^= (uint16_t)data;
     688:	e7 e6       	ldi	r30, 0x67	; 103
     68a:	f2 e0       	ldi	r31, 0x02	; 2
     68c:	24 81       	ldd	r18, Z+4	; 0x04
     68e:	35 81       	ldd	r19, Z+5	; 0x05
     690:	28 27       	eor	r18, r24
     692:	35 83       	std	Z+5, r19	; 0x05
     694:	24 83       	std	Z+4, r18	; 0x04
	for (uint8_t i = 0; i < 8; i++)
     696:	20 e0       	ldi	r18, 0x00	; 0
     698:	18 c0       	rjmp	.+48     	; 0x6ca <MODBUS_CalculateCRC+0x42>
	{
		if (myModbusFrame.crcSlave & 0x0001)
     69a:	80 91 6b 02 	lds	r24, 0x026B	; 0x80026b <myModbusFrame+0x4>
     69e:	90 91 6c 02 	lds	r25, 0x026C	; 0x80026c <myModbusFrame+0x5>
     6a2:	80 ff       	sbrs	r24, 0
     6a4:	0b c0       	rjmp	.+22     	; 0x6bc <MODBUS_CalculateCRC+0x34>
		myModbusFrame.crcSlave = (myModbusFrame.crcSlave >> 1) ^ 0xA001;
     6a6:	96 95       	lsr	r25
     6a8:	87 95       	ror	r24
     6aa:	31 e0       	ldi	r19, 0x01	; 1
     6ac:	83 27       	eor	r24, r19
     6ae:	30 ea       	ldi	r19, 0xA0	; 160
     6b0:	93 27       	eor	r25, r19
     6b2:	90 93 6c 02 	sts	0x026C, r25	; 0x80026c <myModbusFrame+0x5>
     6b6:	80 93 6b 02 	sts	0x026B, r24	; 0x80026b <myModbusFrame+0x4>
     6ba:	06 c0       	rjmp	.+12     	; 0x6c8 <MODBUS_CalculateCRC+0x40>
		else
		myModbusFrame.crcSlave >>= 1;
     6bc:	96 95       	lsr	r25
     6be:	87 95       	ror	r24
     6c0:	90 93 6c 02 	sts	0x026C, r25	; 0x80026c <myModbusFrame+0x5>
     6c4:	80 93 6b 02 	sts	0x026B, r24	; 0x80026b <myModbusFrame+0x4>
	}
}

void MODBUS_CalculateCRC(uint8_t data){//, uint16_t crc){
	myModbusFrame.crcSlave ^= (uint16_t)data;
	for (uint8_t i = 0; i < 8; i++)
     6c8:	2f 5f       	subi	r18, 0xFF	; 255
     6ca:	28 30       	cpi	r18, 0x08	; 8
     6cc:	30 f3       	brcs	.-52     	; 0x69a <MODBUS_CalculateCRC+0x12>
		if (myModbusFrame.crcSlave & 0x0001)
		myModbusFrame.crcSlave = (myModbusFrame.crcSlave >> 1) ^ 0xA001;
		else
		myModbusFrame.crcSlave >>= 1;
	}
}
     6ce:	08 95       	ret

000006d0 <MODBUS_DecodeFrame>:

// Funcion para recibir un byte a traves de UART leido
void MODBUS_DecodeFrame(uint8_t data){
     6d0:	0f 93       	push	r16
     6d2:	1f 93       	push	r17
     6d4:	cf 93       	push	r28
     6d6:	df 93       	push	r29
	switch(decodeState){
     6d8:	e0 91 5c 01 	lds	r30, 0x015C	; 0x80015c <decodeState>
     6dc:	4e 2f       	mov	r20, r30
     6de:	50 e0       	ldi	r21, 0x00	; 0
     6e0:	47 30       	cpi	r20, 0x07	; 7
     6e2:	51 05       	cpc	r21, r1
     6e4:	08 f0       	brcs	.+2      	; 0x6e8 <MODBUS_DecodeFrame+0x18>
     6e6:	9c c0       	rjmp	.+312    	; 0x820 <__DATA_REGION_LENGTH__+0x20>
     6e8:	c8 2f       	mov	r28, r24
     6ea:	fa 01       	movw	r30, r20
     6ec:	ec 5c       	subi	r30, 0xCC	; 204
     6ee:	ff 4f       	sbci	r31, 0xFF	; 255
     6f0:	0c 94 3b 0d 	jmp	0x1a76	; 0x1a76 <__tablejump2__>
		case IDLE:
			if(data == MODBUS_BROADCAST_ADDRESS || data == MODBUS_SLAVE_ADDRESS){
     6f4:	88 23       	and	r24, r24
     6f6:	21 f0       	breq	.+8      	; 0x700 <MODBUS_DecodeFrame+0x30>
     6f8:	80 91 ff 03 	lds	r24, 0x03FF	; 0x8003ff <slaveAddress>
     6fc:	c8 13       	cpse	r28, r24
     6fe:	16 c0       	rjmp	.+44     	; 0x72c <MODBUS_DecodeFrame+0x5c>
				if(data == MODBUS_BROADCAST_ADDRESS) commFlags.iFlags.isBroadcast = 1;
     700:	c1 11       	cpse	r28, r1
     702:	05 c0       	rjmp	.+10     	; 0x70e <MODBUS_DecodeFrame+0x3e>
     704:	80 91 5d 02 	lds	r24, 0x025D	; 0x80025d <commFlags>
     708:	80 61       	ori	r24, 0x10	; 16
     70a:	80 93 5d 02 	sts	0x025D, r24	; 0x80025d <commFlags>
				myModbusFrame.nBytes = 5;
     70e:	e7 e6       	ldi	r30, 0x67	; 103
     710:	f2 e0       	ldi	r31, 0x02	; 2
     712:	85 e0       	ldi	r24, 0x05	; 5
     714:	81 83       	std	Z+1, r24	; 0x01
				myModbusFrame.crcSlave = 0xFFFF;
     716:	8f ef       	ldi	r24, 0xFF	; 255
     718:	9f ef       	ldi	r25, 0xFF	; 255
     71a:	95 83       	std	Z+5, r25	; 0x05
     71c:	84 83       	std	Z+4, r24	; 0x04
				MODBUS_CalculateCRC(data);
     71e:	8c 2f       	mov	r24, r28
     720:	0e 94 44 03 	call	0x688	; 0x688 <MODBUS_CalculateCRC>
				decodeState = FUNCTION;			
     724:	81 e0       	ldi	r24, 0x01	; 1
     726:	80 93 5c 01 	sts	0x015C, r24	; 0x80015c <decodeState>
     72a:	80 c0       	rjmp	.+256    	; 0x82c <__DATA_REGION_LENGTH__+0x2c>
			}else{
				decodeState = DISCARD;
     72c:	86 e0       	ldi	r24, 0x06	; 6
     72e:	80 93 5c 01 	sts	0x015C, r24	; 0x80015c <decodeState>
     732:	7c c0       	rjmp	.+248    	; 0x82c <__DATA_REGION_LENGTH__+0x2c>
			}
		break;
		case FUNCTION:
			myModbusFrame.function = data;
     734:	07 e6       	ldi	r16, 0x67	; 103
     736:	12 e0       	ldi	r17, 0x02	; 2
     738:	f8 01       	movw	r30, r16
     73a:	80 83       	st	Z, r24
			MODBUS_CalculateCRC(data);
     73c:	0e 94 44 03 	call	0x688	; 0x688 <MODBUS_CalculateCRC>
			myModbusFrame.nBytes--;
     740:	f8 01       	movw	r30, r16
     742:	81 81       	ldd	r24, Z+1	; 0x01
     744:	9f ef       	ldi	r25, 0xFF	; 255
     746:	98 0f       	add	r25, r24
     748:	91 83       	std	Z+1, r25	; 0x01
			if(data == WRITE_MULTIPLE_REGISTERS) myModbusFrame.nBytes++; 
     74a:	c0 31       	cpi	r28, 0x10	; 16
     74c:	11 f4       	brne	.+4      	; 0x752 <MODBUS_DecodeFrame+0x82>
     74e:	80 93 68 02 	sts	0x0268, r24	; 0x800268 <myModbusFrame+0x1>
			decodeState = DATA;
     752:	82 e0       	ldi	r24, 0x02	; 2
     754:	80 93 5c 01 	sts	0x015C, r24	; 0x80015c <decodeState>
		break;
     758:	69 c0       	rjmp	.+210    	; 0x82c <__DATA_REGION_LENGTH__+0x2c>
		case DATA:
			bufferRx[indexRxW++] = data;
     75a:	e0 91 66 02 	lds	r30, 0x0266	; 0x800266 <indexRxW>
     75e:	81 e0       	ldi	r24, 0x01	; 1
     760:	8e 0f       	add	r24, r30
     762:	80 93 66 02 	sts	0x0266, r24	; 0x800266 <indexRxW>
     766:	f0 e0       	ldi	r31, 0x00	; 0
     768:	e3 5a       	subi	r30, 0xA3	; 163
     76a:	fe 4f       	sbci	r31, 0xFE	; 254
     76c:	c0 83       	st	Z, r28
			MODBUS_CalculateCRC(data);
     76e:	8c 2f       	mov	r24, r28
     770:	0e 94 44 03 	call	0x688	; 0x688 <MODBUS_CalculateCRC>
			myModbusFrame.nBytes--;
     774:	e7 e6       	ldi	r30, 0x67	; 103
     776:	f2 e0       	ldi	r31, 0x02	; 2
     778:	81 81       	ldd	r24, Z+1	; 0x01
     77a:	81 50       	subi	r24, 0x01	; 1
     77c:	81 83       	std	Z+1, r24	; 0x01
			if(myModbusFrame.nBytes == 0){
     77e:	81 11       	cpse	r24, r1
     780:	55 c0       	rjmp	.+170    	; 0x82c <__DATA_REGION_LENGTH__+0x2c>
				if(myModbusFrame.function == WRITE_MULTIPLE_REGISTERS){
     782:	80 91 67 02 	lds	r24, 0x0267	; 0x800267 <myModbusFrame>
     786:	80 31       	cpi	r24, 0x10	; 16
     788:	31 f4       	brne	.+12     	; 0x796 <MODBUS_DecodeFrame+0xc6>
					myModbusFrame.nBytes = data;
     78a:	c0 93 68 02 	sts	0x0268, r28	; 0x800268 <myModbusFrame+0x1>
					decodeState = EXTRADATA;
     78e:	83 e0       	ldi	r24, 0x03	; 3
     790:	80 93 5c 01 	sts	0x015C, r24	; 0x80015c <decodeState>
     794:	4b c0       	rjmp	.+150    	; 0x82c <__DATA_REGION_LENGTH__+0x2c>
				}else{
					decodeState = CRCL;
     796:	85 e0       	ldi	r24, 0x05	; 5
     798:	80 93 5c 01 	sts	0x015C, r24	; 0x80015c <decodeState>
     79c:	47 c0       	rjmp	.+142    	; 0x82c <__DATA_REGION_LENGTH__+0x2c>
				}
			}
			
		break;
		case EXTRADATA:
			bufferRx[indexRxW++] = data;
     79e:	e0 91 66 02 	lds	r30, 0x0266	; 0x800266 <indexRxW>
     7a2:	81 e0       	ldi	r24, 0x01	; 1
     7a4:	8e 0f       	add	r24, r30
     7a6:	80 93 66 02 	sts	0x0266, r24	; 0x800266 <indexRxW>
     7aa:	f0 e0       	ldi	r31, 0x00	; 0
     7ac:	e3 5a       	subi	r30, 0xA3	; 163
     7ae:	fe 4f       	sbci	r31, 0xFE	; 254
     7b0:	c0 83       	st	Z, r28
			MODBUS_CalculateCRC(data);
     7b2:	8c 2f       	mov	r24, r28
     7b4:	0e 94 44 03 	call	0x688	; 0x688 <MODBUS_CalculateCRC>
			myModbusFrame.nBytes--;
     7b8:	e7 e6       	ldi	r30, 0x67	; 103
     7ba:	f2 e0       	ldi	r31, 0x02	; 2
     7bc:	81 81       	ldd	r24, Z+1	; 0x01
     7be:	81 50       	subi	r24, 0x01	; 1
     7c0:	81 83       	std	Z+1, r24	; 0x01
			if(myModbusFrame.nBytes == 0){
     7c2:	81 11       	cpse	r24, r1
     7c4:	33 c0       	rjmp	.+102    	; 0x82c <__DATA_REGION_LENGTH__+0x2c>
				decodeState = CRCL;
     7c6:	85 e0       	ldi	r24, 0x05	; 5
     7c8:	80 93 5c 01 	sts	0x015C, r24	; 0x80015c <decodeState>
     7cc:	2f c0       	rjmp	.+94     	; 0x82c <__DATA_REGION_LENGTH__+0x2c>
			}
		break;
		case CRCL:
			myModbusFrame.crcMaster = data;
     7ce:	c8 2f       	mov	r28, r24
     7d0:	d0 e0       	ldi	r29, 0x00	; 0
     7d2:	d0 93 6e 02 	sts	0x026E, r29	; 0x80026e <myModbusFrame+0x7>
     7d6:	c0 93 6d 02 	sts	0x026D, r28	; 0x80026d <myModbusFrame+0x6>
			decodeState = CRCH;
     7da:	84 e0       	ldi	r24, 0x04	; 4
     7dc:	80 93 5c 01 	sts	0x015C, r24	; 0x80015c <decodeState>
		break;
     7e0:	25 c0       	rjmp	.+74     	; 0x82c <__DATA_REGION_LENGTH__+0x2c>
		case CRCH:
			myModbusFrame.crcMaster |= (uint16_t)(data << 8);
     7e2:	20 e0       	ldi	r18, 0x00	; 0
     7e4:	38 2f       	mov	r19, r24
     7e6:	e7 e6       	ldi	r30, 0x67	; 103
     7e8:	f2 e0       	ldi	r31, 0x02	; 2
     7ea:	86 81       	ldd	r24, Z+6	; 0x06
     7ec:	97 81       	ldd	r25, Z+7	; 0x07
     7ee:	82 2b       	or	r24, r18
     7f0:	93 2b       	or	r25, r19
     7f2:	97 83       	std	Z+7, r25	; 0x07
     7f4:	86 83       	std	Z+6, r24	; 0x06
			if(myModbusFrame.crcSlave == myModbusFrame.crcMaster){
     7f6:	24 81       	ldd	r18, Z+4	; 0x04
     7f8:	35 81       	ldd	r19, Z+5	; 0x05
     7fa:	82 17       	cp	r24, r18
     7fc:	93 07       	cpc	r25, r19
     7fe:	31 f4       	brne	.+12     	; 0x80c <__DATA_REGION_LENGTH__+0xc>
				commFlags.iFlags.dataReady = 1;
     800:	80 91 5d 02 	lds	r24, 0x025D	; 0x80025d <commFlags>
     804:	82 60       	ori	r24, 0x02	; 2
     806:	80 93 5d 02 	sts	0x025D, r24	; 0x80025d <commFlags>
     80a:	04 c0       	rjmp	.+8      	; 0x814 <__DATA_REGION_LENGTH__+0x14>
			}else{
				indexRxR = indexRxW;
     80c:	80 91 66 02 	lds	r24, 0x0266	; 0x800266 <indexRxW>
     810:	80 93 65 02 	sts	0x0265, r24	; 0x800265 <indexRxR>
			}
			decodeState = IDLE;
     814:	10 92 5c 01 	sts	0x015C, r1	; 0x80015c <decodeState>
		break;
     818:	09 c0       	rjmp	.+18     	; 0x82c <__DATA_REGION_LENGTH__+0x2c>
		case DISCARD: 
			trashByte = data;
     81a:	80 93 5f 02 	sts	0x025F, r24	; 0x80025f <trashByte>
		break;
     81e:	06 c0       	rjmp	.+12     	; 0x82c <__DATA_REGION_LENGTH__+0x2c>
		default:
			decodeState = IDLE;
     820:	10 92 5c 01 	sts	0x015C, r1	; 0x80015c <decodeState>
			indexRxR = indexRxW;
     824:	80 91 66 02 	lds	r24, 0x0266	; 0x800266 <indexRxW>
     828:	80 93 65 02 	sts	0x0265, r24	; 0x800265 <indexRxR>
		break;
	}

}
     82c:	df 91       	pop	r29
     82e:	cf 91       	pop	r28
     830:	1f 91       	pop	r17
     832:	0f 91       	pop	r16
     834:	08 95       	ret

00000836 <__vector_18>:
		DISABLE_RXPIN_ISR();
	}
}*/


ISR(USART_RX_vect){
     836:	1f 92       	push	r1
     838:	0f 92       	push	r0
     83a:	0f b6       	in	r0, 0x3f	; 63
     83c:	0f 92       	push	r0
     83e:	11 24       	eor	r1, r1
     840:	2f 93       	push	r18
     842:	3f 93       	push	r19
     844:	4f 93       	push	r20
     846:	5f 93       	push	r21
     848:	6f 93       	push	r22
     84a:	7f 93       	push	r23
     84c:	8f 93       	push	r24
     84e:	9f 93       	push	r25
     850:	af 93       	push	r26
     852:	bf 93       	push	r27
     854:	ef 93       	push	r30
     856:	ff 93       	push	r31
	
	RestartTikValues(); 
     858:	0e 94 35 01 	call	0x26a	; 0x26a <RestartTikValues>
	MODBUS_DecodeFrame(UDR0);
     85c:	80 91 c6 00 	lds	r24, 0x00C6	; 0x8000c6 <__TEXT_REGION_LENGTH__+0x7f80c6>
     860:	0e 94 68 03 	call	0x6d0	; 0x6d0 <MODBUS_DecodeFrame>
}
     864:	ff 91       	pop	r31
     866:	ef 91       	pop	r30
     868:	bf 91       	pop	r27
     86a:	af 91       	pop	r26
     86c:	9f 91       	pop	r25
     86e:	8f 91       	pop	r24
     870:	7f 91       	pop	r23
     872:	6f 91       	pop	r22
     874:	5f 91       	pop	r21
     876:	4f 91       	pop	r20
     878:	3f 91       	pop	r19
     87a:	2f 91       	pop	r18
     87c:	0f 90       	pop	r0
     87e:	0f be       	out	0x3f, r0	; 63
     880:	0f 90       	pop	r0
     882:	1f 90       	pop	r1
     884:	18 95       	reti

00000886 <MODBUS_ProcessFunction>:
		break;
	}

}

void MODBUS_ProcessFunction(){
     886:	ef 92       	push	r14
     888:	ff 92       	push	r15
     88a:	0f 93       	push	r16
     88c:	1f 93       	push	r17
     88e:	cf 93       	push	r28
     890:	df 93       	push	r29
	uint8_t countIndex, byteCount = 0;
	uint16_t regAddress, regValue, regCant, subfunction;
	myModbusFrame.crcSlave = 0xFFFF;
     892:	e7 e6       	ldi	r30, 0x67	; 103
     894:	f2 e0       	ldi	r31, 0x02	; 2
     896:	8f ef       	ldi	r24, 0xFF	; 255
     898:	9f ef       	ldi	r25, 0xFF	; 255
     89a:	95 83       	std	Z+5, r25	; 0x05
     89c:	84 83       	std	Z+4, r24	; 0x04
	switch(myModbusFrame.function){
     89e:	80 81       	ld	r24, Z
     8a0:	86 30       	cpi	r24, 0x06	; 6
     8a2:	09 f4       	brne	.+2      	; 0x8a6 <MODBUS_ProcessFunction+0x20>
     8a4:	20 c1       	rjmp	.+576    	; 0xae6 <__stack+0x1e7>
     8a6:	18 f4       	brcc	.+6      	; 0x8ae <MODBUS_ProcessFunction+0x28>
     8a8:	83 30       	cpi	r24, 0x03	; 3
     8aa:	41 f0       	breq	.+16     	; 0x8bc <MODBUS_ProcessFunction+0x36>
     8ac:	9a c3       	rjmp	.+1844   	; 0xfe2 <__stack+0x6e3>
     8ae:	88 30       	cpi	r24, 0x08	; 8
     8b0:	09 f4       	brne	.+2      	; 0x8b4 <MODBUS_ProcessFunction+0x2e>
     8b2:	d0 c1       	rjmp	.+928    	; 0xc54 <__stack+0x355>
     8b4:	80 31       	cpi	r24, 0x10	; 16
     8b6:	09 f4       	brne	.+2      	; 0x8ba <MODBUS_ProcessFunction+0x34>
     8b8:	a1 c2       	rjmp	.+1346   	; 0xdfc <__stack+0x4fd>
     8ba:	93 c3       	rjmp	.+1830   	; 0xfe2 <__stack+0x6e3>
		case READ_HOLDING_REGISTERS: //Ver si conviene copiar valores en RAM o dejarlos solo en EEPROM
			myModbusFrame.errorCode = 0x83;
     8bc:	83 e8       	ldi	r24, 0x83	; 131
     8be:	80 93 69 02 	sts	0x0269, r24	; 0x800269 <myModbusFrame+0x2>
			if(commFlags.iFlags.isBroadcast){
     8c2:	80 91 5d 02 	lds	r24, 0x025D	; 0x80025d <commFlags>
     8c6:	84 ff       	sbrs	r24, 4
     8c8:	04 c0       	rjmp	.+8      	; 0x8d2 <MODBUS_ProcessFunction+0x4c>
				commFlags.iFlags.isBroadcast = 0;
     8ca:	8f 7e       	andi	r24, 0xEF	; 239
     8cc:	80 93 5d 02 	sts	0x025D, r24	; 0x80025d <commFlags>
				return;
     8d0:	98 c3       	rjmp	.+1840   	; 0x1002 <__stack+0x703>
			}
			//Direccion inicial
			myWord.ui8[1] = bufferRx[indexRxR++];
     8d2:	a0 91 65 02 	lds	r26, 0x0265	; 0x800265 <indexRxR>
     8d6:	e1 e0       	ldi	r30, 0x01	; 1
     8d8:	ea 0f       	add	r30, r26
     8da:	e0 93 65 02 	sts	0x0265, r30	; 0x800265 <indexRxR>
     8de:	b0 e0       	ldi	r27, 0x00	; 0
     8e0:	a3 5a       	subi	r26, 0xA3	; 163
     8e2:	be 4f       	sbci	r27, 0xFE	; 254
     8e4:	8c 91       	ld	r24, X
     8e6:	c0 e6       	ldi	r28, 0x60	; 96
     8e8:	d2 e0       	ldi	r29, 0x02	; 2
     8ea:	89 83       	std	Y+1, r24	; 0x01
			myWord.ui8[0] = bufferRx[indexRxR++];
     8ec:	a1 e0       	ldi	r26, 0x01	; 1
     8ee:	ae 0f       	add	r26, r30
     8f0:	a0 93 65 02 	sts	0x0265, r26	; 0x800265 <indexRxR>
     8f4:	f0 e0       	ldi	r31, 0x00	; 0
     8f6:	e3 5a       	subi	r30, 0xA3	; 163
     8f8:	fe 4f       	sbci	r31, 0xFE	; 254
     8fa:	80 81       	ld	r24, Z
     8fc:	88 83       	st	Y, r24
			regAddress = myWord.ui16[0];
     8fe:	88 81       	ld	r24, Y
     900:	99 81       	ldd	r25, Y+1	; 0x01
			//Cantidad de registros
			myWord.ui8[1] = bufferRx[indexRxR++];
     902:	e1 e0       	ldi	r30, 0x01	; 1
     904:	ea 0f       	add	r30, r26
     906:	e0 93 65 02 	sts	0x0265, r30	; 0x800265 <indexRxR>
     90a:	b0 e0       	ldi	r27, 0x00	; 0
     90c:	a3 5a       	subi	r26, 0xA3	; 163
     90e:	be 4f       	sbci	r27, 0xFE	; 254
     910:	2c 91       	ld	r18, X
     912:	29 83       	std	Y+1, r18	; 0x01
			myWord.ui8[0] = bufferRx[indexRxR++];
     914:	21 e0       	ldi	r18, 0x01	; 1
     916:	2e 0f       	add	r18, r30
     918:	20 93 65 02 	sts	0x0265, r18	; 0x800265 <indexRxR>
     91c:	f0 e0       	ldi	r31, 0x00	; 0
     91e:	e3 5a       	subi	r30, 0xA3	; 163
     920:	fe 4f       	sbci	r31, 0xFE	; 254
     922:	20 81       	ld	r18, Z
     924:	28 83       	st	Y, r18
			regCant = myWord.ui16[0];
     926:	09 90       	ld	r0, Y+
     928:	d8 81       	ld	r29, Y
     92a:	c0 2d       	mov	r28, r0
			
			//CONTROLAR CANTIDAD 
			if(regCant<1 || regCant > 0x07B){ //error cantidad
     92c:	9e 01       	movw	r18, r28
     92e:	21 50       	subi	r18, 0x01	; 1
     930:	31 09       	sbc	r19, r1
     932:	2b 37       	cpi	r18, 0x7B	; 123
     934:	31 05       	cpc	r19, r1
     936:	48 f0       	brcs	.+18     	; 0x94a <__stack+0x4b>
				myModbusFrame.excepCode = INVALID_DATA_VALUE;
     938:	83 e0       	ldi	r24, 0x03	; 3
     93a:	80 93 6a 02 	sts	0x026A, r24	; 0x80026a <myModbusFrame+0x3>
			    commFlags.iFlags.isExceptionCode = 1;
     93e:	80 91 5d 02 	lds	r24, 0x025D	; 0x80025d <commFlags>
     942:	88 60       	ori	r24, 0x08	; 8
     944:	80 93 5d 02 	sts	0x025D, r24	; 0x80025d <commFlags>
				return;
     948:	5c c3       	rjmp	.+1720   	; 0x1002 <__stack+0x703>
			}
			//Controlar validez direcciones
			if((regAddress <= 0) || ((regAddress > MAXEVENTS) && (regAddress < START_CONFIG_ADDRESS)) || (regAddress>END_CONFIG_ADDRESS_R && regAddress <START_EVENT_ADDRESS) || regAddress > END_EVENT_ADDRESS){
     94a:	00 97       	sbiw	r24, 0x00	; 0
     94c:	81 f0       	breq	.+32     	; 0x96e <__stack+0x6f>
     94e:	9c 01       	movw	r18, r24
     950:	23 53       	subi	r18, 0x33	; 51
     952:	31 09       	sbc	r19, r1
     954:	2d 3c       	cpi	r18, 0xCD	; 205
     956:	43 e0       	ldi	r20, 0x03	; 3
     958:	34 07       	cpc	r19, r20
     95a:	48 f0       	brcs	.+18     	; 0x96e <__stack+0x6f>
     95c:	21 5e       	subi	r18, 0xE1	; 225
     95e:	33 40       	sbci	r19, 0x03	; 3
     960:	2e 35       	cpi	r18, 0x5E	; 94
     962:	33 40       	sbci	r19, 0x03	; 3
     964:	20 f0       	brcs	.+8      	; 0x96e <__stack+0x6f>
     966:	8f 39       	cpi	r24, 0x9F	; 159
     968:	a8 e0       	ldi	r26, 0x08	; 8
     96a:	9a 07       	cpc	r25, r26
     96c:	48 f0       	brcs	.+18     	; 0x980 <__stack+0x81>
				myModbusFrame.excepCode = INVALID_DATA_ADDRESS;
     96e:	82 e0       	ldi	r24, 0x02	; 2
     970:	80 93 6a 02 	sts	0x026A, r24	; 0x80026a <myModbusFrame+0x3>
				commFlags.iFlags.isExceptionCode = 1;
     974:	80 91 5d 02 	lds	r24, 0x025D	; 0x80025d <commFlags>
     978:	88 60       	ori	r24, 0x08	; 8
     97a:	80 93 5d 02 	sts	0x025D, r24	; 0x80025d <commFlags>
				return;
     97e:	41 c3       	rjmp	.+1666   	; 0x1002 <__stack+0x703>
			}			
			if(regAddress>=START_CONFIG_ADDRESS && regAddress <= END_CONFIG_ADDRESS_R){
     980:	9c 01       	movw	r18, r24
     982:	34 50       	subi	r19, 0x04	; 4
     984:	24 31       	cpi	r18, 0x14	; 20
     986:	31 05       	cpc	r19, r1
     988:	98 f4       	brcc	.+38     	; 0x9b0 <__stack+0xb1>
				if((regAddress+((regCant -1)*2) > END_CONFIG_ADDRESS_R)){
     98a:	9e 01       	movw	r18, r28
     98c:	21 50       	subi	r18, 0x01	; 1
     98e:	30 48       	sbci	r19, 0x80	; 128
     990:	22 0f       	add	r18, r18
     992:	33 1f       	adc	r19, r19
     994:	28 0f       	add	r18, r24
     996:	39 1f       	adc	r19, r25
     998:	24 31       	cpi	r18, 0x14	; 20
     99a:	34 40       	sbci	r19, 0x04	; 4
     99c:	48 f0       	brcs	.+18     	; 0x9b0 <__stack+0xb1>
					//error address
					myModbusFrame.excepCode = INVALID_DATA_ADDRESS;
     99e:	82 e0       	ldi	r24, 0x02	; 2
     9a0:	80 93 6a 02 	sts	0x026A, r24	; 0x80026a <myModbusFrame+0x3>
					commFlags.iFlags.isExceptionCode = 1;
     9a4:	80 91 5d 02 	lds	r24, 0x025D	; 0x80025d <commFlags>
     9a8:	88 60       	ori	r24, 0x08	; 8
     9aa:	80 93 5d 02 	sts	0x025D, r24	; 0x80025d <commFlags>
					return;
     9ae:	29 c3       	rjmp	.+1618   	; 0x1002 <__stack+0x703>
				}

			}
			if(regAddress>=START_EVENT_ADDRESS && regAddress <= END_EVENT_ADDRESS){
     9b0:	9c 01       	movw	r18, r24
     9b2:	22 57       	subi	r18, 0x72	; 114
     9b4:	37 40       	sbci	r19, 0x07	; 7
     9b6:	2d 32       	cpi	r18, 0x2D	; 45
     9b8:	31 40       	sbci	r19, 0x01	; 1
     9ba:	98 f4       	brcc	.+38     	; 0x9e2 <__stack+0xe3>
				if((regAddress + (regCant -1)*2) > END_EVENT_ADDRESS){
     9bc:	9e 01       	movw	r18, r28
     9be:	21 50       	subi	r18, 0x01	; 1
     9c0:	30 48       	sbci	r19, 0x80	; 128
     9c2:	22 0f       	add	r18, r18
     9c4:	33 1f       	adc	r19, r19
     9c6:	28 0f       	add	r18, r24
     9c8:	39 1f       	adc	r19, r25
     9ca:	2f 39       	cpi	r18, 0x9F	; 159
     9cc:	38 40       	sbci	r19, 0x08	; 8
     9ce:	48 f0       	brcs	.+18     	; 0x9e2 <__stack+0xe3>
					myModbusFrame.excepCode = INVALID_DATA_ADDRESS;
     9d0:	82 e0       	ldi	r24, 0x02	; 2
     9d2:	80 93 6a 02 	sts	0x026A, r24	; 0x80026a <myModbusFrame+0x3>
					commFlags.iFlags.isExceptionCode = 1;
     9d6:	80 91 5d 02 	lds	r24, 0x025D	; 0x80025d <commFlags>
     9da:	88 60       	ori	r24, 0x08	; 8
     9dc:	80 93 5d 02 	sts	0x025D, r24	; 0x80025d <commFlags>
					return;
     9e0:	10 c3       	rjmp	.+1568   	; 0x1002 <__stack+0x703>
				}
			}
			
			// Cargar mensaje de respuesta
			bufferTx[indexTxW++] = slaveAddress;
     9e2:	a0 91 57 01 	lds	r26, 0x0157	; 0x800157 <indexTxW>
     9e6:	e1 e0       	ldi	r30, 0x01	; 1
     9e8:	ea 0f       	add	r30, r26
     9ea:	b0 e0       	ldi	r27, 0x00	; 0
     9ec:	a1 59       	subi	r26, 0x91	; 145
     9ee:	bd 4f       	sbci	r27, 0xFD	; 253
     9f0:	20 91 ff 03 	lds	r18, 0x03FF	; 0x8003ff <slaveAddress>
     9f4:	2c 93       	st	X, r18
			bufferTx[indexTxW++] = READ_HOLDING_REGISTERS;
     9f6:	01 e0       	ldi	r16, 0x01	; 1
     9f8:	0e 0f       	add	r16, r30
     9fa:	f0 e0       	ldi	r31, 0x00	; 0
     9fc:	e1 59       	subi	r30, 0x91	; 145
     9fe:	fd 4f       	sbci	r31, 0xFD	; 253
     a00:	23 e0       	ldi	r18, 0x03	; 3
     a02:	20 83       	st	Z, r18
			//////if para load eventos
			countIndex = indexTxW;
			bufferTx[indexTxW++] = 0x00; // Almacenar en la pocision de cantidad de bytes
     a04:	21 e0       	ldi	r18, 0x01	; 1
     a06:	20 0f       	add	r18, r16
     a08:	20 93 57 01 	sts	0x0157, r18	; 0x800157 <indexTxW>
     a0c:	10 e0       	ldi	r17, 0x00	; 0
     a0e:	f8 01       	movw	r30, r16
     a10:	e1 59       	subi	r30, 0x91	; 145
     a12:	fd 4f       	sbci	r31, 0xFD	; 253
     a14:	10 82       	st	Z, r1
			if(regAddress > 0 && regAddress < MAXEVENTS){//eventos
     a16:	9c 01       	movw	r18, r24
     a18:	21 50       	subi	r18, 0x01	; 1
     a1a:	31 09       	sbc	r19, r1
     a1c:	21 33       	cpi	r18, 0x31	; 49
     a1e:	31 05       	cpc	r19, r1
     a20:	38 f5       	brcc	.+78     	; 0xa70 <__stack+0x171>
				SentEvents((regCant/3));
     a22:	9e 01       	movw	r18, r28
     a24:	ab ea       	ldi	r26, 0xAB	; 171
     a26:	ba ea       	ldi	r27, 0xAA	; 170
     a28:	0e 94 41 0d 	call	0x1a82	; 0x1a82 <__umulhisi3>
     a2c:	7c 01       	movw	r14, r24
     a2e:	f6 94       	lsr	r15
     a30:	e7 94       	ror	r14
     a32:	c7 01       	movw	r24, r14
     a34:	0e 94 d2 02 	call	0x5a4	; 0x5a4 <SentEvents>
				modbusRegister.newEventCounter -= (regCant/3); 				
     a38:	e0 e0       	ldi	r30, 0x00	; 0
     a3a:	f4 e0       	ldi	r31, 0x04	; 4
     a3c:	80 89       	ldd	r24, Z+16	; 0x10
     a3e:	91 89       	ldd	r25, Z+17	; 0x11
     a40:	8e 19       	sub	r24, r14
     a42:	9f 09       	sbc	r25, r15
     a44:	91 8b       	std	Z+17, r25	; 0x11
     a46:	80 8b       	std	Z+16, r24	; 0x10
				byteCount = regCant * 2;
     a48:	5c 2f       	mov	r21, r28
     a4a:	55 0f       	add	r21, r21
     a4c:	1b c0       	rjmp	.+54     	; 0xa84 <__stack+0x185>
			}else{
				for(uint8_t i=0 ; i<(regCant*2) ; i++){
					bufferTx[indexTxW++] = *((uint8_t *)(regAddress + i)); //volatil
     a4e:	e0 91 57 01 	lds	r30, 0x0157	; 0x800157 <indexTxW>
     a52:	61 e0       	ldi	r22, 0x01	; 1
     a54:	6e 0f       	add	r22, r30
     a56:	60 93 57 01 	sts	0x0157, r22	; 0x800157 <indexTxW>
     a5a:	f0 e0       	ldi	r31, 0x00	; 0
     a5c:	dc 01       	movw	r26, r24
     a5e:	a2 0f       	add	r26, r18
     a60:	b3 1f       	adc	r27, r19
     a62:	2c 91       	ld	r18, X
     a64:	e1 59       	subi	r30, 0x91	; 145
     a66:	fd 4f       	sbci	r31, 0xFD	; 253
     a68:	20 83       	st	Z, r18
					byteCount++;
     a6a:	5f 5f       	subi	r21, 0xFF	; 255
			if(regAddress > 0 && regAddress < MAXEVENTS){//eventos
				SentEvents((regCant/3));
				modbusRegister.newEventCounter -= (regCant/3); 				
				byteCount = regCant * 2;
			}else{
				for(uint8_t i=0 ; i<(regCant*2) ; i++){
     a6c:	4f 5f       	subi	r20, 0xFF	; 255
     a6e:	02 c0       	rjmp	.+4      	; 0xa74 <__stack+0x175>
     a70:	40 e0       	ldi	r20, 0x00	; 0
     a72:	50 e0       	ldi	r21, 0x00	; 0
     a74:	24 2f       	mov	r18, r20
     a76:	30 e0       	ldi	r19, 0x00	; 0
     a78:	be 01       	movw	r22, r28
     a7a:	66 0f       	add	r22, r22
     a7c:	77 1f       	adc	r23, r23
     a7e:	26 17       	cp	r18, r22
     a80:	37 07       	cpc	r19, r23
     a82:	28 f3       	brcs	.-54     	; 0xa4e <__stack+0x14f>
					bufferTx[indexTxW++] = *((uint8_t *)(regAddress + i)); //volatil
					byteCount++;
				}
			}
			bufferTx[countIndex] = byteCount;
     a84:	f8 01       	movw	r30, r16
     a86:	e1 59       	subi	r30, 0x91	; 145
     a88:	fd 4f       	sbci	r31, 0xFD	; 253
     a8a:	50 83       	st	Z, r21
			for(uint8_t i = indexTxR; i < indexTxW + 3;i++){
     a8c:	c0 91 5e 02 	lds	r28, 0x025E	; 0x80025e <indexTxR>
     a90:	07 c0       	rjmp	.+14     	; 0xaa0 <__stack+0x1a1>
				MODBUS_CalculateCRC(bufferTx[i]);
     a92:	fc 01       	movw	r30, r24
     a94:	e1 59       	subi	r30, 0x91	; 145
     a96:	fd 4f       	sbci	r31, 0xFD	; 253
     a98:	80 81       	ld	r24, Z
     a9a:	0e 94 44 03 	call	0x688	; 0x688 <MODBUS_CalculateCRC>
					bufferTx[indexTxW++] = *((uint8_t *)(regAddress + i)); //volatil
					byteCount++;
				}
			}
			bufferTx[countIndex] = byteCount;
			for(uint8_t i = indexTxR; i < indexTxW + 3;i++){
     a9e:	cf 5f       	subi	r28, 0xFF	; 255
     aa0:	8c 2f       	mov	r24, r28
     aa2:	90 e0       	ldi	r25, 0x00	; 0
     aa4:	e0 91 57 01 	lds	r30, 0x0157	; 0x800157 <indexTxW>
     aa8:	2e 2f       	mov	r18, r30
     aaa:	30 e0       	ldi	r19, 0x00	; 0
     aac:	a9 01       	movw	r20, r18
     aae:	4d 5f       	subi	r20, 0xFD	; 253
     ab0:	5f 4f       	sbci	r21, 0xFF	; 255
     ab2:	84 17       	cp	r24, r20
     ab4:	95 07       	cpc	r25, r21
     ab6:	6c f3       	brlt	.-38     	; 0xa92 <__stack+0x193>
				MODBUS_CalculateCRC(bufferTx[i]);
			}
			myWord.ui16[0] = myModbusFrame.crcSlave;
     ab8:	80 91 6b 02 	lds	r24, 0x026B	; 0x80026b <myModbusFrame+0x4>
     abc:	90 91 6c 02 	lds	r25, 0x026C	; 0x80026c <myModbusFrame+0x5>
     ac0:	a0 e6       	ldi	r26, 0x60	; 96
     ac2:	b2 e0       	ldi	r27, 0x02	; 2
     ac4:	8c 93       	st	X, r24
     ac6:	11 96       	adiw	r26, 0x01	; 1
     ac8:	9c 93       	st	X, r25
			bufferTx[indexTxW++] = myWord.ui8[0];
     aca:	ef 5f       	subi	r30, 0xFF	; 255
     acc:	e9 01       	movw	r28, r18
     ace:	c1 59       	subi	r28, 0x91	; 145
     ad0:	dd 4f       	sbci	r29, 0xFD	; 253
     ad2:	88 83       	st	Y, r24
			bufferTx[indexTxW++] = myWord.ui8[1];
     ad4:	81 e0       	ldi	r24, 0x01	; 1
     ad6:	8e 0f       	add	r24, r30
     ad8:	80 93 57 01 	sts	0x0157, r24	; 0x800157 <indexTxW>
     adc:	f0 e0       	ldi	r31, 0x00	; 0
     ade:	e1 59       	subi	r30, 0x91	; 145
     ae0:	fd 4f       	sbci	r31, 0xFD	; 253
     ae2:	90 83       	st	Z, r25
		break;
     ae4:	8e c2       	rjmp	.+1308   	; 0x1002 <__stack+0x703>
		case WRITE_SINGLE_REGISTER:
			myModbusFrame.errorCode = 0x86;
     ae6:	86 e8       	ldi	r24, 0x86	; 134
     ae8:	80 93 69 02 	sts	0x0269, r24	; 0x800269 <myModbusFrame+0x2>
			
			//Direccion inicial
			myWord.ui8[1] = bufferRx[indexRxR++];
     aec:	a0 91 65 02 	lds	r26, 0x0265	; 0x800265 <indexRxR>
     af0:	e1 e0       	ldi	r30, 0x01	; 1
     af2:	ea 0f       	add	r30, r26
     af4:	e0 93 65 02 	sts	0x0265, r30	; 0x800265 <indexRxR>
     af8:	b0 e0       	ldi	r27, 0x00	; 0
     afa:	a3 5a       	subi	r26, 0xA3	; 163
     afc:	be 4f       	sbci	r27, 0xFE	; 254
     afe:	8c 91       	ld	r24, X
     b00:	c0 e6       	ldi	r28, 0x60	; 96
     b02:	d2 e0       	ldi	r29, 0x02	; 2
     b04:	89 83       	std	Y+1, r24	; 0x01
			myWord.ui8[0] = bufferRx[indexRxR++];
     b06:	a1 e0       	ldi	r26, 0x01	; 1
     b08:	ae 0f       	add	r26, r30
     b0a:	a0 93 65 02 	sts	0x0265, r26	; 0x800265 <indexRxR>
     b0e:	f0 e0       	ldi	r31, 0x00	; 0
     b10:	e3 5a       	subi	r30, 0xA3	; 163
     b12:	fe 4f       	sbci	r31, 0xFE	; 254
     b14:	80 81       	ld	r24, Z
     b16:	88 83       	st	Y, r24
			regAddress = myWord.ui16[0];
     b18:	88 81       	ld	r24, Y
     b1a:	99 81       	ldd	r25, Y+1	; 0x01
			//Cantidad de registros
			myWord.ui8[1] = bufferRx[indexRxR++];
     b1c:	e1 e0       	ldi	r30, 0x01	; 1
     b1e:	ea 0f       	add	r30, r26
     b20:	e0 93 65 02 	sts	0x0265, r30	; 0x800265 <indexRxR>
     b24:	b0 e0       	ldi	r27, 0x00	; 0
     b26:	a3 5a       	subi	r26, 0xA3	; 163
     b28:	be 4f       	sbci	r27, 0xFE	; 254
     b2a:	2c 91       	ld	r18, X
     b2c:	29 83       	std	Y+1, r18	; 0x01
			myWord.ui8[0] = bufferRx[indexRxR++];
     b2e:	31 e0       	ldi	r19, 0x01	; 1
     b30:	3e 0f       	add	r19, r30
     b32:	30 93 65 02 	sts	0x0265, r19	; 0x800265 <indexRxR>
     b36:	f0 e0       	ldi	r31, 0x00	; 0
     b38:	e3 5a       	subi	r30, 0xA3	; 163
     b3a:	fe 4f       	sbci	r31, 0xFE	; 254
     b3c:	30 81       	ld	r19, Z
     b3e:	38 83       	st	Y, r19
			regValue = myWord.ui16[0];
			
			//controlar direccion
			if((regAddress < START_SLAVE_ADDRESS) || (regAddress == SLAVE_ADDRESS) || (regAddress>END_CONFIG_ADDRESS_W && regAddress <START_EVENT_ADDRESS) || regAddress > END_EVENT_ADDRESS){
     b40:	8e 3f       	cpi	r24, 0xFE	; 254
     b42:	33 e0       	ldi	r19, 0x03	; 3
     b44:	93 07       	cpc	r25, r19
     b46:	70 f0       	brcs	.+28     	; 0xb64 <__stack+0x265>
     b48:	8f 3f       	cpi	r24, 0xFF	; 255
     b4a:	43 e0       	ldi	r20, 0x03	; 3
     b4c:	94 07       	cpc	r25, r20
     b4e:	51 f0       	breq	.+20     	; 0xb64 <__stack+0x265>
     b50:	ac 01       	movw	r20, r24
     b52:	4e 50       	subi	r20, 0x0E	; 14
     b54:	54 40       	sbci	r21, 0x04	; 4
     b56:	44 36       	cpi	r20, 0x64	; 100
     b58:	53 40       	sbci	r21, 0x03	; 3
     b5a:	20 f0       	brcs	.+8      	; 0xb64 <__stack+0x265>
     b5c:	8f 39       	cpi	r24, 0x9F	; 159
     b5e:	a8 e0       	ldi	r26, 0x08	; 8
     b60:	9a 07       	cpc	r25, r26
     b62:	48 f0       	brcs	.+18     	; 0xb76 <__stack+0x277>
				myModbusFrame.excepCode = INVALID_DATA_ADDRESS;
     b64:	82 e0       	ldi	r24, 0x02	; 2
     b66:	80 93 6a 02 	sts	0x026A, r24	; 0x80026a <myModbusFrame+0x3>
				commFlags.iFlags.isExceptionCode = 1;
     b6a:	80 91 5d 02 	lds	r24, 0x025D	; 0x80025d <commFlags>
     b6e:	88 60       	ori	r24, 0x08	; 8
     b70:	80 93 5d 02 	sts	0x025D, r24	; 0x80025d <commFlags>
				return;
     b74:	46 c2       	rjmp	.+1164   	; 0x1002 <__stack+0x703>
			}
			
			*((uint8_t *)(regAddress)) = myWord.ui8[1];
     b76:	ec 01       	movw	r28, r24
     b78:	28 83       	st	Y, r18
			*((uint8_t *)(regAddress+1)) = myWord.ui8[0];
     b7a:	20 91 60 02 	lds	r18, 0x0260	; 0x800260 <myWord>
     b7e:	29 83       	std	Y+1, r18	; 0x01
		
			if(commFlags.iFlags.isBroadcast){
     b80:	20 91 5d 02 	lds	r18, 0x025D	; 0x80025d <commFlags>
     b84:	24 ff       	sbrs	r18, 4
     b86:	05 c0       	rjmp	.+10     	; 0xb92 <__stack+0x293>
				commFlags.iFlags.isBroadcast = 0;
     b88:	82 2f       	mov	r24, r18
     b8a:	8f 7e       	andi	r24, 0xEF	; 239
     b8c:	80 93 5d 02 	sts	0x025D, r24	; 0x80025d <commFlags>
				return;
     b90:	38 c2       	rjmp	.+1136   	; 0x1002 <__stack+0x703>
			}
		
			bufferTx[indexTxW++] = (uint8_t)MODBUS_SLAVE_ADDRESS;
     b92:	a0 91 57 01 	lds	r26, 0x0157	; 0x800157 <indexTxW>
     b96:	e1 e0       	ldi	r30, 0x01	; 1
     b98:	ea 0f       	add	r30, r26
     b9a:	b0 e0       	ldi	r27, 0x00	; 0
     b9c:	20 91 ff 03 	lds	r18, 0x03FF	; 0x8003ff <slaveAddress>
     ba0:	a1 59       	subi	r26, 0x91	; 145
     ba2:	bd 4f       	sbci	r27, 0xFD	; 253
     ba4:	2c 93       	st	X, r18
			bufferTx[indexTxW++] = WRITE_SINGLE_REGISTER;
     ba6:	a1 e0       	ldi	r26, 0x01	; 1
     ba8:	ae 0f       	add	r26, r30
     baa:	f0 e0       	ldi	r31, 0x00	; 0
     bac:	e1 59       	subi	r30, 0x91	; 145
     bae:	fd 4f       	sbci	r31, 0xFD	; 253
     bb0:	26 e0       	ldi	r18, 0x06	; 6
     bb2:	20 83       	st	Z, r18
			myWord.ui16[0] = regAddress;
     bb4:	c0 e6       	ldi	r28, 0x60	; 96
     bb6:	d2 e0       	ldi	r29, 0x02	; 2
     bb8:	99 83       	std	Y+1, r25	; 0x01
     bba:	88 83       	st	Y, r24
			bufferTx[indexTxW++] = myWord.ui8[1];
     bbc:	e1 e0       	ldi	r30, 0x01	; 1
     bbe:	ea 0f       	add	r30, r26
     bc0:	b0 e0       	ldi	r27, 0x00	; 0
     bc2:	29 81       	ldd	r18, Y+1	; 0x01
     bc4:	a1 59       	subi	r26, 0x91	; 145
     bc6:	bd 4f       	sbci	r27, 0xFD	; 253
     bc8:	2c 93       	st	X, r18
			bufferTx[indexTxW++] = myWord.ui8[0];
     bca:	a1 e0       	ldi	r26, 0x01	; 1
     bcc:	ae 0f       	add	r26, r30
     bce:	f0 e0       	ldi	r31, 0x00	; 0
     bd0:	28 81       	ld	r18, Y
     bd2:	e1 59       	subi	r30, 0x91	; 145
     bd4:	fd 4f       	sbci	r31, 0xFD	; 253
     bd6:	20 83       	st	Z, r18
			bufferTx[indexTxW++] = *((uint8_t *)(regAddress));
     bd8:	e1 e0       	ldi	r30, 0x01	; 1
     bda:	ea 0f       	add	r30, r26
     bdc:	e0 93 57 01 	sts	0x0157, r30	; 0x800157 <indexTxW>
     be0:	b0 e0       	ldi	r27, 0x00	; 0
     be2:	ec 01       	movw	r28, r24
     be4:	28 81       	ld	r18, Y
     be6:	a1 59       	subi	r26, 0x91	; 145
     be8:	bd 4f       	sbci	r27, 0xFD	; 253
     bea:	2c 93       	st	X, r18
			bufferTx[indexTxW++] = *((uint8_t *)(regAddress+1));
     bec:	21 e0       	ldi	r18, 0x01	; 1
     bee:	2e 0f       	add	r18, r30
     bf0:	20 93 57 01 	sts	0x0157, r18	; 0x800157 <indexTxW>
     bf4:	f0 e0       	ldi	r31, 0x00	; 0
     bf6:	89 81       	ldd	r24, Y+1	; 0x01
     bf8:	e1 59       	subi	r30, 0x91	; 145
     bfa:	fd 4f       	sbci	r31, 0xFD	; 253
     bfc:	80 83       	st	Z, r24
		
			for(uint8_t i = indexTxR; i < indexTxW;i++){
     bfe:	c0 91 5e 02 	lds	r28, 0x025E	; 0x80025e <indexTxR>
     c02:	08 c0       	rjmp	.+16     	; 0xc14 <__stack+0x315>
				MODBUS_CalculateCRC(bufferTx[i]);
     c04:	ec 2f       	mov	r30, r28
     c06:	f0 e0       	ldi	r31, 0x00	; 0
     c08:	e1 59       	subi	r30, 0x91	; 145
     c0a:	fd 4f       	sbci	r31, 0xFD	; 253
     c0c:	80 81       	ld	r24, Z
     c0e:	0e 94 44 03 	call	0x688	; 0x688 <MODBUS_CalculateCRC>
			bufferTx[indexTxW++] = myWord.ui8[1];
			bufferTx[indexTxW++] = myWord.ui8[0];
			bufferTx[indexTxW++] = *((uint8_t *)(regAddress));
			bufferTx[indexTxW++] = *((uint8_t *)(regAddress+1));
		
			for(uint8_t i = indexTxR; i < indexTxW;i++){
     c12:	cf 5f       	subi	r28, 0xFF	; 255
     c14:	e0 91 57 01 	lds	r30, 0x0157	; 0x800157 <indexTxW>
     c18:	ce 17       	cp	r28, r30
     c1a:	a0 f3       	brcs	.-24     	; 0xc04 <__stack+0x305>
				MODBUS_CalculateCRC(bufferTx[i]);
			}
			myWord.ui16[0] = myModbusFrame.crcSlave;
     c1c:	90 91 6b 02 	lds	r25, 0x026B	; 0x80026b <myModbusFrame+0x4>
     c20:	80 91 6c 02 	lds	r24, 0x026C	; 0x80026c <myModbusFrame+0x5>
     c24:	a0 e6       	ldi	r26, 0x60	; 96
     c26:	b2 e0       	ldi	r27, 0x02	; 2
     c28:	9c 93       	st	X, r25
     c2a:	11 96       	adiw	r26, 0x01	; 1
     c2c:	8c 93       	st	X, r24
     c2e:	11 97       	sbiw	r26, 0x01	; 1
			bufferTx[indexTxW++] = myWord.ui8[0];
     c30:	81 e0       	ldi	r24, 0x01	; 1
     c32:	8e 0f       	add	r24, r30
     c34:	f0 e0       	ldi	r31, 0x00	; 0
     c36:	e1 59       	subi	r30, 0x91	; 145
     c38:	fd 4f       	sbci	r31, 0xFD	; 253
     c3a:	90 83       	st	Z, r25
			bufferTx[indexTxW++] = myWord.ui8[1];
     c3c:	91 e0       	ldi	r25, 0x01	; 1
     c3e:	98 0f       	add	r25, r24
     c40:	90 93 57 01 	sts	0x0157, r25	; 0x800157 <indexTxW>
     c44:	e8 2f       	mov	r30, r24
     c46:	f0 e0       	ldi	r31, 0x00	; 0
     c48:	11 96       	adiw	r26, 0x01	; 1
     c4a:	8c 91       	ld	r24, X
     c4c:	e1 59       	subi	r30, 0x91	; 145
     c4e:	fd 4f       	sbci	r31, 0xFD	; 253
     c50:	80 83       	st	Z, r24
		break;
     c52:	d7 c1       	rjmp	.+942    	; 0x1002 <__stack+0x703>
		case DIAGNOSTICS:
			myModbusFrame.errorCode = 0x88;
     c54:	88 e8       	ldi	r24, 0x88	; 136
     c56:	80 93 69 02 	sts	0x0269, r24	; 0x800269 <myModbusFrame+0x2>
			if(commFlags.iFlags.isBroadcast){
     c5a:	80 91 5d 02 	lds	r24, 0x025D	; 0x80025d <commFlags>
     c5e:	84 ff       	sbrs	r24, 4
     c60:	04 c0       	rjmp	.+8      	; 0xc6a <__stack+0x36b>
				commFlags.iFlags.isBroadcast = 0;
     c62:	8f 7e       	andi	r24, 0xEF	; 239
     c64:	80 93 5d 02 	sts	0x025D, r24	; 0x80025d <commFlags>
				return;
     c68:	cc c1       	rjmp	.+920    	; 0x1002 <__stack+0x703>
			}
			//Subfuncion
			myWord.ui8[1] = bufferRx[indexRxR++];
     c6a:	a0 91 65 02 	lds	r26, 0x0265	; 0x800265 <indexRxR>
     c6e:	e1 e0       	ldi	r30, 0x01	; 1
     c70:	ea 0f       	add	r30, r26
     c72:	e0 93 65 02 	sts	0x0265, r30	; 0x800265 <indexRxR>
     c76:	b0 e0       	ldi	r27, 0x00	; 0
     c78:	a3 5a       	subi	r26, 0xA3	; 163
     c7a:	be 4f       	sbci	r27, 0xFE	; 254
     c7c:	8c 91       	ld	r24, X
     c7e:	c0 e6       	ldi	r28, 0x60	; 96
     c80:	d2 e0       	ldi	r29, 0x02	; 2
     c82:	89 83       	std	Y+1, r24	; 0x01
			myWord.ui8[0] = bufferRx[indexRxR++];
     c84:	a1 e0       	ldi	r26, 0x01	; 1
     c86:	ae 0f       	add	r26, r30
     c88:	a0 93 65 02 	sts	0x0265, r26	; 0x800265 <indexRxR>
     c8c:	f0 e0       	ldi	r31, 0x00	; 0
     c8e:	e3 5a       	subi	r30, 0xA3	; 163
     c90:	fe 4f       	sbci	r31, 0xFE	; 254
     c92:	80 81       	ld	r24, Z
     c94:	88 83       	st	Y, r24
			subfunction = myWord.ui16[0];
     c96:	88 81       	ld	r24, Y
     c98:	99 81       	ldd	r25, Y+1	; 0x01
			myWord.ui8[1] = bufferRx[indexRxR++];
     c9a:	e1 e0       	ldi	r30, 0x01	; 1
     c9c:	ea 0f       	add	r30, r26
     c9e:	e0 93 65 02 	sts	0x0265, r30	; 0x800265 <indexRxR>
     ca2:	b0 e0       	ldi	r27, 0x00	; 0
     ca4:	a3 5a       	subi	r26, 0xA3	; 163
     ca6:	be 4f       	sbci	r27, 0xFE	; 254
     ca8:	2c 91       	ld	r18, X
     caa:	29 83       	std	Y+1, r18	; 0x01
			myWord.ui8[0] = bufferRx[indexRxR++];
     cac:	21 e0       	ldi	r18, 0x01	; 1
     cae:	2e 0f       	add	r18, r30
     cb0:	20 93 65 02 	sts	0x0265, r18	; 0x800265 <indexRxR>
     cb4:	f0 e0       	ldi	r31, 0x00	; 0
     cb6:	e3 5a       	subi	r30, 0xA3	; 163
     cb8:	fe 4f       	sbci	r31, 0xFE	; 254
     cba:	20 81       	ld	r18, Z
     cbc:	28 83       	st	Y, r18
			regValue = myWord.ui16[0];
     cbe:	28 81       	ld	r18, Y
     cc0:	39 81       	ldd	r19, Y+1	; 0x01
			
			switch(subfunction){
     cc2:	81 30       	cpi	r24, 0x01	; 1
     cc4:	91 05       	cpc	r25, r1
     cc6:	29 f0       	breq	.+10     	; 0xcd2 <__stack+0x3d3>
     cc8:	98 f1       	brcs	.+102    	; 0xd30 <__stack+0x431>
     cca:	82 30       	cpi	r24, 0x02	; 2
     ccc:	91 05       	cpc	r25, r1
     cce:	b9 f0       	breq	.+46     	; 0xcfe <__stack+0x3ff>
     cd0:	22 c0       	rjmp	.+68     	; 0xd16 <__stack+0x417>
				case RETURN_QUERY_DATA:
				//Eco
				break;
				case RESTART_COMMUNICATIONS:
					if(regValue == 0x0000 || regValue == 0xFF00){
     cd2:	21 15       	cp	r18, r1
     cd4:	31 05       	cpc	r19, r1
     cd6:	21 f0       	breq	.+8      	; 0xce0 <__stack+0x3e1>
     cd8:	21 15       	cp	r18, r1
     cda:	df ef       	ldi	r29, 0xFF	; 255
     cdc:	3d 07       	cpc	r19, r29
     cde:	31 f4       	brne	.+12     	; 0xcec <__stack+0x3ed>
						//Eco
						commFlags.iFlags.restartComms = 1; ////
     ce0:	40 91 5d 02 	lds	r20, 0x025D	; 0x80025d <commFlags>
     ce4:	40 64       	ori	r20, 0x40	; 64
     ce6:	40 93 5d 02 	sts	0x025D, r20	; 0x80025d <commFlags>
						}else{
						myModbusFrame.excepCode = INVALID_DATA_VALUE;
						commFlags.iFlags.isExceptionCode = 1;
						return;
					}
				break;
     cea:	22 c0       	rjmp	.+68     	; 0xd30 <__stack+0x431>
				case RESTART_COMMUNICATIONS:
					if(regValue == 0x0000 || regValue == 0xFF00){
						//Eco
						commFlags.iFlags.restartComms = 1; ////
						}else{
						myModbusFrame.excepCode = INVALID_DATA_VALUE;
     cec:	83 e0       	ldi	r24, 0x03	; 3
     cee:	80 93 6a 02 	sts	0x026A, r24	; 0x80026a <myModbusFrame+0x3>
						commFlags.iFlags.isExceptionCode = 1;
     cf2:	80 91 5d 02 	lds	r24, 0x025D	; 0x80025d <commFlags>
     cf6:	88 60       	ori	r24, 0x08	; 8
     cf8:	80 93 5d 02 	sts	0x025D, r24	; 0x80025d <commFlags>
						return;
     cfc:	82 c1       	rjmp	.+772    	; 0x1002 <__stack+0x703>
					}
				break;
				case RETURN_DIAGNOSTICS_REGISTER:
					if(regValue == 0x0000){
     cfe:	21 15       	cp	r18, r1
     d00:	31 05       	cpc	r19, r1
     d02:	b1 f0       	breq	.+44     	; 0xd30 <__stack+0x431>
						//Registro de diagnostico
						//regValue  = diagnosticsRegister;
						// regValue |= diagnosticsRegister;
						}else{
						myModbusFrame.excepCode = INVALID_DATA_VALUE;
     d04:	83 e0       	ldi	r24, 0x03	; 3
     d06:	80 93 6a 02 	sts	0x026A, r24	; 0x80026a <myModbusFrame+0x3>
						commFlags.iFlags.isExceptionCode = 1;
     d0a:	80 91 5d 02 	lds	r24, 0x025D	; 0x80025d <commFlags>
     d0e:	88 60       	ori	r24, 0x08	; 8
     d10:	80 93 5d 02 	sts	0x025D, r24	; 0x80025d <commFlags>
						return;
     d14:	76 c1       	rjmp	.+748    	; 0x1002 <__stack+0x703>
					}
				break;
				default:
					myModbusFrame.excepCode = INVALID_FUNCTION;
     d16:	81 e0       	ldi	r24, 0x01	; 1
     d18:	80 93 6a 02 	sts	0x026A, r24	; 0x80026a <myModbusFrame+0x3>
					commFlags.iFlags.isExceptionCode = 1;
     d1c:	80 91 5d 02 	lds	r24, 0x025D	; 0x80025d <commFlags>
     d20:	88 60       	ori	r24, 0x08	; 8
     d22:	80 93 5d 02 	sts	0x025D, r24	; 0x80025d <commFlags>
					indexRxR = indexRxW;
     d26:	80 91 66 02 	lds	r24, 0x0266	; 0x800266 <indexRxW>
     d2a:	80 93 65 02 	sts	0x0265, r24	; 0x800265 <indexRxR>
				return;
     d2e:	69 c1       	rjmp	.+722    	; 0x1002 <__stack+0x703>
			}
				bufferTx[indexTxW++] = (uint8_t)MODBUS_SLAVE_ADDRESS;
     d30:	a0 91 57 01 	lds	r26, 0x0157	; 0x800157 <indexTxW>
     d34:	e1 e0       	ldi	r30, 0x01	; 1
     d36:	ea 0f       	add	r30, r26
     d38:	b0 e0       	ldi	r27, 0x00	; 0
     d3a:	40 91 ff 03 	lds	r20, 0x03FF	; 0x8003ff <slaveAddress>
     d3e:	a1 59       	subi	r26, 0x91	; 145
     d40:	bd 4f       	sbci	r27, 0xFD	; 253
     d42:	4c 93       	st	X, r20
				bufferTx[indexTxW++] = DIAGNOSTICS;
     d44:	c1 e0       	ldi	r28, 0x01	; 1
     d46:	ce 0f       	add	r28, r30
     d48:	f0 e0       	ldi	r31, 0x00	; 0
     d4a:	e1 59       	subi	r30, 0x91	; 145
     d4c:	fd 4f       	sbci	r31, 0xFD	; 253
     d4e:	48 e0       	ldi	r20, 0x08	; 8
     d50:	40 83       	st	Z, r20
				myWord.ui16[0] = subfunction;
     d52:	a0 e6       	ldi	r26, 0x60	; 96
     d54:	b2 e0       	ldi	r27, 0x02	; 2
     d56:	11 96       	adiw	r26, 0x01	; 1
     d58:	9c 93       	st	X, r25
     d5a:	8e 93       	st	-X, r24
				bufferTx[indexTxW++] = myWord.ui8[1];
     d5c:	e1 e0       	ldi	r30, 0x01	; 1
     d5e:	ec 0f       	add	r30, r28
     d60:	d0 e0       	ldi	r29, 0x00	; 0
     d62:	11 96       	adiw	r26, 0x01	; 1
     d64:	8c 91       	ld	r24, X
     d66:	11 97       	sbiw	r26, 0x01	; 1
     d68:	c1 59       	subi	r28, 0x91	; 145
     d6a:	dd 4f       	sbci	r29, 0xFD	; 253
     d6c:	88 83       	st	Y, r24
				bufferTx[indexTxW++] = myWord.ui8[0];
     d6e:	c1 e0       	ldi	r28, 0x01	; 1
     d70:	ce 0f       	add	r28, r30
     d72:	f0 e0       	ldi	r31, 0x00	; 0
     d74:	8c 91       	ld	r24, X
     d76:	e1 59       	subi	r30, 0x91	; 145
     d78:	fd 4f       	sbci	r31, 0xFD	; 253
     d7a:	80 83       	st	Z, r24
				myWord.ui16[0] = regValue;
     d7c:	11 96       	adiw	r26, 0x01	; 1
     d7e:	3c 93       	st	X, r19
     d80:	2e 93       	st	-X, r18
				bufferTx[indexTxW++] = myWord.ui8[1];
     d82:	e1 e0       	ldi	r30, 0x01	; 1
     d84:	ec 0f       	add	r30, r28
     d86:	d0 e0       	ldi	r29, 0x00	; 0
     d88:	11 96       	adiw	r26, 0x01	; 1
     d8a:	8c 91       	ld	r24, X
     d8c:	11 97       	sbiw	r26, 0x01	; 1
     d8e:	c1 59       	subi	r28, 0x91	; 145
     d90:	dd 4f       	sbci	r29, 0xFD	; 253
     d92:	88 83       	st	Y, r24
				bufferTx[indexTxW++] = myWord.ui8[0];
     d94:	81 e0       	ldi	r24, 0x01	; 1
     d96:	8e 0f       	add	r24, r30
     d98:	80 93 57 01 	sts	0x0157, r24	; 0x800157 <indexTxW>
     d9c:	f0 e0       	ldi	r31, 0x00	; 0
     d9e:	8c 91       	ld	r24, X
     da0:	e1 59       	subi	r30, 0x91	; 145
     da2:	fd 4f       	sbci	r31, 0xFD	; 253
     da4:	80 83       	st	Z, r24
				for(uint8_t i=indexTxR; i < indexTxW; i++){
     da6:	c0 91 5e 02 	lds	r28, 0x025E	; 0x80025e <indexTxR>
     daa:	08 c0       	rjmp	.+16     	; 0xdbc <__stack+0x4bd>
					MODBUS_CalculateCRC(bufferTx[i]);
     dac:	ec 2f       	mov	r30, r28
     dae:	f0 e0       	ldi	r31, 0x00	; 0
     db0:	e1 59       	subi	r30, 0x91	; 145
     db2:	fd 4f       	sbci	r31, 0xFD	; 253
     db4:	80 81       	ld	r24, Z
     db6:	0e 94 44 03 	call	0x688	; 0x688 <MODBUS_CalculateCRC>
				bufferTx[indexTxW++] = myWord.ui8[1];
				bufferTx[indexTxW++] = myWord.ui8[0];
				myWord.ui16[0] = regValue;
				bufferTx[indexTxW++] = myWord.ui8[1];
				bufferTx[indexTxW++] = myWord.ui8[0];
				for(uint8_t i=indexTxR; i < indexTxW; i++){
     dba:	cf 5f       	subi	r28, 0xFF	; 255
     dbc:	e0 91 57 01 	lds	r30, 0x0157	; 0x800157 <indexTxW>
     dc0:	ce 17       	cp	r28, r30
     dc2:	a0 f3       	brcs	.-24     	; 0xdac <__stack+0x4ad>
					MODBUS_CalculateCRC(bufferTx[i]);
				}
				myWord.ui16[0] = myModbusFrame.crcSlave;
     dc4:	90 91 6b 02 	lds	r25, 0x026B	; 0x80026b <myModbusFrame+0x4>
     dc8:	80 91 6c 02 	lds	r24, 0x026C	; 0x80026c <myModbusFrame+0x5>
     dcc:	a0 e6       	ldi	r26, 0x60	; 96
     dce:	b2 e0       	ldi	r27, 0x02	; 2
     dd0:	9c 93       	st	X, r25
     dd2:	11 96       	adiw	r26, 0x01	; 1
     dd4:	8c 93       	st	X, r24
     dd6:	11 97       	sbiw	r26, 0x01	; 1
				bufferTx[indexTxW++] = myWord.ui8[0];
     dd8:	81 e0       	ldi	r24, 0x01	; 1
     dda:	8e 0f       	add	r24, r30
     ddc:	f0 e0       	ldi	r31, 0x00	; 0
     dde:	e1 59       	subi	r30, 0x91	; 145
     de0:	fd 4f       	sbci	r31, 0xFD	; 253
     de2:	90 83       	st	Z, r25
				bufferTx[indexTxW++] = myWord.ui8[1];
     de4:	91 e0       	ldi	r25, 0x01	; 1
     de6:	98 0f       	add	r25, r24
     de8:	90 93 57 01 	sts	0x0157, r25	; 0x800157 <indexTxW>
     dec:	e8 2f       	mov	r30, r24
     dee:	f0 e0       	ldi	r31, 0x00	; 0
     df0:	11 96       	adiw	r26, 0x01	; 1
     df2:	8c 91       	ld	r24, X
     df4:	e1 59       	subi	r30, 0x91	; 145
     df6:	fd 4f       	sbci	r31, 0xFD	; 253
     df8:	80 83       	st	Z, r24
				break;
     dfa:	03 c1       	rjmp	.+518    	; 0x1002 <__stack+0x703>
		case WRITE_MULTIPLE_REGISTERS: //Incompleto
			myModbusFrame.errorCode = 0x90;
     dfc:	80 e9       	ldi	r24, 0x90	; 144
     dfe:	80 93 69 02 	sts	0x0269, r24	; 0x800269 <myModbusFrame+0x2>
			//Direccion inicial
			myWord.ui8[1] = bufferRx[indexRxR++];
     e02:	e0 91 65 02 	lds	r30, 0x0265	; 0x800265 <indexRxR>
     e06:	a1 e0       	ldi	r26, 0x01	; 1
     e08:	ae 0f       	add	r26, r30
     e0a:	a0 93 65 02 	sts	0x0265, r26	; 0x800265 <indexRxR>
     e0e:	f0 e0       	ldi	r31, 0x00	; 0
     e10:	e3 5a       	subi	r30, 0xA3	; 163
     e12:	fe 4f       	sbci	r31, 0xFE	; 254
     e14:	80 81       	ld	r24, Z
     e16:	c0 e6       	ldi	r28, 0x60	; 96
     e18:	d2 e0       	ldi	r29, 0x02	; 2
     e1a:	89 83       	std	Y+1, r24	; 0x01
			myWord.ui8[0] = bufferRx[indexRxR++];
     e1c:	e1 e0       	ldi	r30, 0x01	; 1
     e1e:	ea 0f       	add	r30, r26
     e20:	e0 93 65 02 	sts	0x0265, r30	; 0x800265 <indexRxR>
     e24:	b0 e0       	ldi	r27, 0x00	; 0
     e26:	a3 5a       	subi	r26, 0xA3	; 163
     e28:	be 4f       	sbci	r27, 0xFE	; 254
     e2a:	8c 91       	ld	r24, X
     e2c:	88 83       	st	Y, r24
			regAddress = myWord.ui16[0];
     e2e:	88 81       	ld	r24, Y
     e30:	99 81       	ldd	r25, Y+1	; 0x01
			//Cantidad de registros
			myWord.ui8[1] = bufferRx[indexRxR++];
     e32:	a1 e0       	ldi	r26, 0x01	; 1
     e34:	ae 0f       	add	r26, r30
     e36:	a0 93 65 02 	sts	0x0265, r26	; 0x800265 <indexRxR>
     e3a:	f0 e0       	ldi	r31, 0x00	; 0
     e3c:	e3 5a       	subi	r30, 0xA3	; 163
     e3e:	fe 4f       	sbci	r31, 0xFE	; 254
     e40:	20 81       	ld	r18, Z
     e42:	29 83       	std	Y+1, r18	; 0x01
			myWord.ui8[0] = bufferRx[indexRxR++];
     e44:	e1 e0       	ldi	r30, 0x01	; 1
     e46:	ea 0f       	add	r30, r26
     e48:	e0 93 65 02 	sts	0x0265, r30	; 0x800265 <indexRxR>
     e4c:	b0 e0       	ldi	r27, 0x00	; 0
     e4e:	a3 5a       	subi	r26, 0xA3	; 163
     e50:	be 4f       	sbci	r27, 0xFE	; 254
     e52:	2c 91       	ld	r18, X
     e54:	28 83       	st	Y, r18
			regCant = myWord.ui16[0];
     e56:	48 81       	ld	r20, Y
     e58:	59 81       	ldd	r21, Y+1	; 0x01
			//Cantidad de bytes
			byteCount = bufferRx[indexRxR++];
     e5a:	21 e0       	ldi	r18, 0x01	; 1
     e5c:	2e 0f       	add	r18, r30
     e5e:	20 93 65 02 	sts	0x0265, r18	; 0x800265 <indexRxR>
     e62:	f0 e0       	ldi	r31, 0x00	; 0
     e64:	e3 5a       	subi	r30, 0xA3	; 163
     e66:	fe 4f       	sbci	r31, 0xFE	; 254
     e68:	20 81       	ld	r18, Z
		
			//Controlar cantidad de registros
			if((regCant < 1 || regCant > 0x007B) || (byteCount != (regCant*2))){
     e6a:	ba 01       	movw	r22, r20
     e6c:	61 50       	subi	r22, 0x01	; 1
     e6e:	71 09       	sbc	r23, r1
     e70:	6b 37       	cpi	r22, 0x7B	; 123
     e72:	71 05       	cpc	r23, r1
     e74:	38 f4       	brcc	.+14     	; 0xe84 <__stack+0x585>
     e76:	30 e0       	ldi	r19, 0x00	; 0
     e78:	da 01       	movw	r26, r20
     e7a:	aa 0f       	add	r26, r26
     e7c:	bb 1f       	adc	r27, r27
     e7e:	2a 17       	cp	r18, r26
     e80:	3b 07       	cpc	r19, r27
     e82:	49 f0       	breq	.+18     	; 0xe96 <__stack+0x597>
				myModbusFrame.excepCode = INVALID_DATA_VALUE;
     e84:	83 e0       	ldi	r24, 0x03	; 3
     e86:	80 93 6a 02 	sts	0x026A, r24	; 0x80026a <myModbusFrame+0x3>
				commFlags.iFlags.isExceptionCode = 1;
     e8a:	80 91 5d 02 	lds	r24, 0x025D	; 0x80025d <commFlags>
     e8e:	88 60       	ori	r24, 0x08	; 8
     e90:	80 93 5d 02 	sts	0x025D, r24	; 0x80025d <commFlags>
				return;
     e94:	b6 c0       	rjmp	.+364    	; 0x1002 <__stack+0x703>
			}

			//Controlar validez direcciones
			if((regAddress < START_CONFIG_ADDRESS) || (regAddress>END_CONFIG_ADDRESS_W)){
     e96:	9c 01       	movw	r18, r24
     e98:	34 50       	subi	r19, 0x04	; 4
     e9a:	2e 30       	cpi	r18, 0x0E	; 14
     e9c:	31 05       	cpc	r19, r1
     e9e:	48 f0       	brcs	.+18     	; 0xeb2 <__stack+0x5b3>
				myModbusFrame.excepCode = INVALID_DATA_ADDRESS;
     ea0:	82 e0       	ldi	r24, 0x02	; 2
     ea2:	80 93 6a 02 	sts	0x026A, r24	; 0x80026a <myModbusFrame+0x3>
				commFlags.iFlags.isExceptionCode = 1;
     ea6:	80 91 5d 02 	lds	r24, 0x025D	; 0x80025d <commFlags>
     eaa:	88 60       	ori	r24, 0x08	; 8
     eac:	80 93 5d 02 	sts	0x025D, r24	; 0x80025d <commFlags>
				return;
     eb0:	a8 c0       	rjmp	.+336    	; 0x1002 <__stack+0x703>
			}else{
				if(regAddress+((regCant -1)*2) >=END_CONFIG_ADDRESS_W){
     eb2:	9a 01       	movw	r18, r20
     eb4:	21 50       	subi	r18, 0x01	; 1
     eb6:	30 48       	sbci	r19, 0x80	; 128
     eb8:	22 0f       	add	r18, r18
     eba:	33 1f       	adc	r19, r19
     ebc:	28 0f       	add	r18, r24
     ebe:	39 1f       	adc	r19, r25
     ec0:	2d 30       	cpi	r18, 0x0D	; 13
     ec2:	34 40       	sbci	r19, 0x04	; 4
     ec4:	c8 f0       	brcs	.+50     	; 0xef8 <__stack+0x5f9>
					//error address
					myModbusFrame.excepCode = INVALID_DATA_ADDRESS;
     ec6:	82 e0       	ldi	r24, 0x02	; 2
     ec8:	80 93 6a 02 	sts	0x026A, r24	; 0x80026a <myModbusFrame+0x3>
					commFlags.iFlags.isExceptionCode = 1;
     ecc:	80 91 5d 02 	lds	r24, 0x025D	; 0x80025d <commFlags>
     ed0:	88 60       	ori	r24, 0x08	; 8
     ed2:	80 93 5d 02 	sts	0x025D, r24	; 0x80025d <commFlags>
					return;
     ed6:	95 c0       	rjmp	.+298    	; 0x1002 <__stack+0x703>
				}
			}

			for(uint8_t i=0; i<(regCant*2);i++){
				*((uint8_t *)(regAddress+i)) = bufferRx[indexRxR++];
     ed8:	ec 01       	movw	r28, r24
     eda:	c2 0f       	add	r28, r18
     edc:	d3 1f       	adc	r29, r19
     ede:	e0 91 65 02 	lds	r30, 0x0265	; 0x800265 <indexRxR>
     ee2:	71 e0       	ldi	r23, 0x01	; 1
     ee4:	7e 0f       	add	r23, r30
     ee6:	70 93 65 02 	sts	0x0265, r23	; 0x800265 <indexRxR>
     eea:	f0 e0       	ldi	r31, 0x00	; 0
     eec:	e3 5a       	subi	r30, 0xA3	; 163
     eee:	fe 4f       	sbci	r31, 0xFE	; 254
     ef0:	70 81       	ld	r23, Z
     ef2:	78 83       	st	Y, r23
					commFlags.iFlags.isExceptionCode = 1;
					return;
				}
			}

			for(uint8_t i=0; i<(regCant*2);i++){
     ef4:	6f 5f       	subi	r22, 0xFF	; 255
     ef6:	01 c0       	rjmp	.+2      	; 0xefa <__stack+0x5fb>
     ef8:	60 e0       	ldi	r22, 0x00	; 0
     efa:	26 2f       	mov	r18, r22
     efc:	30 e0       	ldi	r19, 0x00	; 0
     efe:	2a 17       	cp	r18, r26
     f00:	3b 07       	cpc	r19, r27
     f02:	50 f3       	brcs	.-44     	; 0xed8 <__stack+0x5d9>
				*((uint8_t *)(regAddress+i)) = bufferRx[indexRxR++];
			}
		
			if(commFlags.iFlags.isBroadcast){
     f04:	20 91 5d 02 	lds	r18, 0x025D	; 0x80025d <commFlags>
     f08:	24 ff       	sbrs	r18, 4
     f0a:	05 c0       	rjmp	.+10     	; 0xf16 <__stack+0x617>
				commFlags.iFlags.isBroadcast = 0;
     f0c:	82 2f       	mov	r24, r18
     f0e:	8f 7e       	andi	r24, 0xEF	; 239
     f10:	80 93 5d 02 	sts	0x025D, r24	; 0x80025d <commFlags>
				return;
     f14:	76 c0       	rjmp	.+236    	; 0x1002 <__stack+0x703>
			}
			bufferTx[indexTxW++] = (uint8_t)MODBUS_SLAVE_ADDRESS;
     f16:	a0 91 57 01 	lds	r26, 0x0157	; 0x800157 <indexTxW>
     f1a:	e1 e0       	ldi	r30, 0x01	; 1
     f1c:	ea 0f       	add	r30, r26
     f1e:	b0 e0       	ldi	r27, 0x00	; 0
     f20:	20 91 ff 03 	lds	r18, 0x03FF	; 0x8003ff <slaveAddress>
     f24:	a1 59       	subi	r26, 0x91	; 145
     f26:	bd 4f       	sbci	r27, 0xFD	; 253
     f28:	2c 93       	st	X, r18
			bufferTx[indexTxW++] = WRITE_MULTIPLE_REGISTERS;
     f2a:	c1 e0       	ldi	r28, 0x01	; 1
     f2c:	ce 0f       	add	r28, r30
     f2e:	f0 e0       	ldi	r31, 0x00	; 0
     f30:	e1 59       	subi	r30, 0x91	; 145
     f32:	fd 4f       	sbci	r31, 0xFD	; 253
     f34:	20 e1       	ldi	r18, 0x10	; 16
     f36:	20 83       	st	Z, r18
			myWord.ui16[0] = regAddress;
     f38:	a0 e6       	ldi	r26, 0x60	; 96
     f3a:	b2 e0       	ldi	r27, 0x02	; 2
     f3c:	11 96       	adiw	r26, 0x01	; 1
     f3e:	9c 93       	st	X, r25
     f40:	8e 93       	st	-X, r24
			bufferTx[indexTxW++] = myWord.ui8[1];
     f42:	e1 e0       	ldi	r30, 0x01	; 1
     f44:	ec 0f       	add	r30, r28
     f46:	d0 e0       	ldi	r29, 0x00	; 0
     f48:	11 96       	adiw	r26, 0x01	; 1
     f4a:	8c 91       	ld	r24, X
     f4c:	11 97       	sbiw	r26, 0x01	; 1
     f4e:	c1 59       	subi	r28, 0x91	; 145
     f50:	dd 4f       	sbci	r29, 0xFD	; 253
     f52:	88 83       	st	Y, r24
			bufferTx[indexTxW++] = myWord.ui8[0];
     f54:	c1 e0       	ldi	r28, 0x01	; 1
     f56:	ce 0f       	add	r28, r30
     f58:	f0 e0       	ldi	r31, 0x00	; 0
     f5a:	8c 91       	ld	r24, X
     f5c:	e1 59       	subi	r30, 0x91	; 145
     f5e:	fd 4f       	sbci	r31, 0xFD	; 253
     f60:	80 83       	st	Z, r24
			myWord.ui16[0] = regCant;
     f62:	11 96       	adiw	r26, 0x01	; 1
     f64:	5c 93       	st	X, r21
     f66:	4e 93       	st	-X, r20
			bufferTx[indexTxW++] = myWord.ui8[1];
     f68:	e1 e0       	ldi	r30, 0x01	; 1
     f6a:	ec 0f       	add	r30, r28
     f6c:	d0 e0       	ldi	r29, 0x00	; 0
     f6e:	11 96       	adiw	r26, 0x01	; 1
     f70:	8c 91       	ld	r24, X
     f72:	11 97       	sbiw	r26, 0x01	; 1
     f74:	c1 59       	subi	r28, 0x91	; 145
     f76:	dd 4f       	sbci	r29, 0xFD	; 253
     f78:	88 83       	st	Y, r24
			bufferTx[indexTxW++] = myWord.ui8[0];
     f7a:	81 e0       	ldi	r24, 0x01	; 1
     f7c:	8e 0f       	add	r24, r30
     f7e:	80 93 57 01 	sts	0x0157, r24	; 0x800157 <indexTxW>
     f82:	f0 e0       	ldi	r31, 0x00	; 0
     f84:	8c 91       	ld	r24, X
     f86:	e1 59       	subi	r30, 0x91	; 145
     f88:	fd 4f       	sbci	r31, 0xFD	; 253
     f8a:	80 83       	st	Z, r24
			for(uint8_t i = indexTxR; i < indexTxW;i++){
     f8c:	c0 91 5e 02 	lds	r28, 0x025E	; 0x80025e <indexTxR>
     f90:	08 c0       	rjmp	.+16     	; 0xfa2 <__stack+0x6a3>
				MODBUS_CalculateCRC(bufferTx[i]);
     f92:	ec 2f       	mov	r30, r28
     f94:	f0 e0       	ldi	r31, 0x00	; 0
     f96:	e1 59       	subi	r30, 0x91	; 145
     f98:	fd 4f       	sbci	r31, 0xFD	; 253
     f9a:	80 81       	ld	r24, Z
     f9c:	0e 94 44 03 	call	0x688	; 0x688 <MODBUS_CalculateCRC>
			bufferTx[indexTxW++] = myWord.ui8[1];
			bufferTx[indexTxW++] = myWord.ui8[0];
			myWord.ui16[0] = regCant;
			bufferTx[indexTxW++] = myWord.ui8[1];
			bufferTx[indexTxW++] = myWord.ui8[0];
			for(uint8_t i = indexTxR; i < indexTxW;i++){
     fa0:	cf 5f       	subi	r28, 0xFF	; 255
     fa2:	e0 91 57 01 	lds	r30, 0x0157	; 0x800157 <indexTxW>
     fa6:	ce 17       	cp	r28, r30
     fa8:	a0 f3       	brcs	.-24     	; 0xf92 <__stack+0x693>
				MODBUS_CalculateCRC(bufferTx[i]);
			}
			myWord.ui16[0] = myModbusFrame.crcSlave;
     faa:	90 91 6b 02 	lds	r25, 0x026B	; 0x80026b <myModbusFrame+0x4>
     fae:	80 91 6c 02 	lds	r24, 0x026C	; 0x80026c <myModbusFrame+0x5>
     fb2:	a0 e6       	ldi	r26, 0x60	; 96
     fb4:	b2 e0       	ldi	r27, 0x02	; 2
     fb6:	9c 93       	st	X, r25
     fb8:	11 96       	adiw	r26, 0x01	; 1
     fba:	8c 93       	st	X, r24
     fbc:	11 97       	sbiw	r26, 0x01	; 1
			bufferTx[indexTxW++] = myWord.ui8[0];
     fbe:	81 e0       	ldi	r24, 0x01	; 1
     fc0:	8e 0f       	add	r24, r30
     fc2:	f0 e0       	ldi	r31, 0x00	; 0
     fc4:	e1 59       	subi	r30, 0x91	; 145
     fc6:	fd 4f       	sbci	r31, 0xFD	; 253
     fc8:	90 83       	st	Z, r25
			bufferTx[indexTxW++] = myWord.ui8[1];
     fca:	91 e0       	ldi	r25, 0x01	; 1
     fcc:	98 0f       	add	r25, r24
     fce:	90 93 57 01 	sts	0x0157, r25	; 0x800157 <indexTxW>
     fd2:	e8 2f       	mov	r30, r24
     fd4:	f0 e0       	ldi	r31, 0x00	; 0
     fd6:	11 96       	adiw	r26, 0x01	; 1
     fd8:	8c 91       	ld	r24, X
     fda:	e1 59       	subi	r30, 0x91	; 145
     fdc:	fd 4f       	sbci	r31, 0xFD	; 253
     fde:	80 83       	st	Z, r24
		break;
     fe0:	10 c0       	rjmp	.+32     	; 0x1002 <__stack+0x703>
		default:
			if(commFlags.iFlags.isBroadcast){
     fe2:	80 91 5d 02 	lds	r24, 0x025D	; 0x80025d <commFlags>
     fe6:	84 fd       	sbrc	r24, 4
     fe8:	0c c0       	rjmp	.+24     	; 0x1002 <__stack+0x703>
				return;
			}
		myModbusFrame.excepCode = INVALID_FUNCTION;
     fea:	81 e0       	ldi	r24, 0x01	; 1
     fec:	80 93 6a 02 	sts	0x026A, r24	; 0x80026a <myModbusFrame+0x3>
		commFlags.iFlags.isExceptionCode = 1;
     ff0:	80 91 5d 02 	lds	r24, 0x025D	; 0x80025d <commFlags>
     ff4:	88 60       	ori	r24, 0x08	; 8
     ff6:	80 93 5d 02 	sts	0x025D, r24	; 0x80025d <commFlags>
		indexRxR = indexRxW;
     ffa:	80 91 66 02 	lds	r24, 0x0266	; 0x800266 <indexRxW>
     ffe:	80 93 65 02 	sts	0x0265, r24	; 0x800265 <indexRxR>
		break;
	}
	 
}
    1002:	df 91       	pop	r29
    1004:	cf 91       	pop	r28
    1006:	1f 91       	pop	r17
    1008:	0f 91       	pop	r16
    100a:	ff 90       	pop	r15
    100c:	ef 90       	pop	r14
    100e:	08 95       	ret

00001010 <MODBUS_SendExceptionCode>:

void MODBUS_SendExceptionCode(){
    1010:	cf 93       	push	r28
    1012:	df 93       	push	r29
	commFlags.iFlags.isExceptionCode = 0;
    1014:	80 91 5d 02 	lds	r24, 0x025D	; 0x80025d <commFlags>
    1018:	87 7f       	andi	r24, 0xF7	; 247
    101a:	80 93 5d 02 	sts	0x025D, r24	; 0x80025d <commFlags>
	bufferTx[indexTxW++] = (uint8_t)MODBUS_SLAVE_ADDRESS;
    101e:	e0 91 57 01 	lds	r30, 0x0157	; 0x800157 <indexTxW>
    1022:	a1 e0       	ldi	r26, 0x01	; 1
    1024:	ae 0f       	add	r26, r30
    1026:	f0 e0       	ldi	r31, 0x00	; 0
    1028:	80 91 ff 03 	lds	r24, 0x03FF	; 0x8003ff <slaveAddress>
    102c:	e1 59       	subi	r30, 0x91	; 145
    102e:	fd 4f       	sbci	r31, 0xFD	; 253
    1030:	80 83       	st	Z, r24
	bufferTx[indexTxW++] = myModbusFrame.errorCode;
    1032:	e1 e0       	ldi	r30, 0x01	; 1
    1034:	ea 0f       	add	r30, r26
    1036:	b0 e0       	ldi	r27, 0x00	; 0
    1038:	c7 e6       	ldi	r28, 0x67	; 103
    103a:	d2 e0       	ldi	r29, 0x02	; 2
    103c:	8a 81       	ldd	r24, Y+2	; 0x02
    103e:	a1 59       	subi	r26, 0x91	; 145
    1040:	bd 4f       	sbci	r27, 0xFD	; 253
    1042:	8c 93       	st	X, r24
	bufferTx[indexTxW++] = myModbusFrame.excepCode;
    1044:	81 e0       	ldi	r24, 0x01	; 1
    1046:	8e 0f       	add	r24, r30
    1048:	80 93 57 01 	sts	0x0157, r24	; 0x800157 <indexTxW>
    104c:	f0 e0       	ldi	r31, 0x00	; 0
    104e:	8b 81       	ldd	r24, Y+3	; 0x03
    1050:	e1 59       	subi	r30, 0x91	; 145
    1052:	fd 4f       	sbci	r31, 0xFD	; 253
    1054:	80 83       	st	Z, r24
	for(uint8_t i = indexTxR; i < indexTxW;i++){
    1056:	c0 91 5e 02 	lds	r28, 0x025E	; 0x80025e <indexTxR>
    105a:	08 c0       	rjmp	.+16     	; 0x106c <MODBUS_SendExceptionCode+0x5c>
		MODBUS_CalculateCRC(bufferTx[i]);
    105c:	ec 2f       	mov	r30, r28
    105e:	f0 e0       	ldi	r31, 0x00	; 0
    1060:	e1 59       	subi	r30, 0x91	; 145
    1062:	fd 4f       	sbci	r31, 0xFD	; 253
    1064:	80 81       	ld	r24, Z
    1066:	0e 94 44 03 	call	0x688	; 0x688 <MODBUS_CalculateCRC>
void MODBUS_SendExceptionCode(){
	commFlags.iFlags.isExceptionCode = 0;
	bufferTx[indexTxW++] = (uint8_t)MODBUS_SLAVE_ADDRESS;
	bufferTx[indexTxW++] = myModbusFrame.errorCode;
	bufferTx[indexTxW++] = myModbusFrame.excepCode;
	for(uint8_t i = indexTxR; i < indexTxW;i++){
    106a:	cf 5f       	subi	r28, 0xFF	; 255
    106c:	e0 91 57 01 	lds	r30, 0x0157	; 0x800157 <indexTxW>
    1070:	ce 17       	cp	r28, r30
    1072:	a0 f3       	brcs	.-24     	; 0x105c <MODBUS_SendExceptionCode+0x4c>
		MODBUS_CalculateCRC(bufferTx[i]);
	}
	myWord.ui16[0] = myModbusFrame.crcSlave;
    1074:	90 91 6b 02 	lds	r25, 0x026B	; 0x80026b <myModbusFrame+0x4>
    1078:	80 91 6c 02 	lds	r24, 0x026C	; 0x80026c <myModbusFrame+0x5>
    107c:	a0 e6       	ldi	r26, 0x60	; 96
    107e:	b2 e0       	ldi	r27, 0x02	; 2
    1080:	9c 93       	st	X, r25
    1082:	11 96       	adiw	r26, 0x01	; 1
    1084:	8c 93       	st	X, r24
    1086:	11 97       	sbiw	r26, 0x01	; 1
	bufferTx[indexTxW++] = myWord.ui8[0];
    1088:	81 e0       	ldi	r24, 0x01	; 1
    108a:	8e 0f       	add	r24, r30
    108c:	f0 e0       	ldi	r31, 0x00	; 0
    108e:	e1 59       	subi	r30, 0x91	; 145
    1090:	fd 4f       	sbci	r31, 0xFD	; 253
    1092:	90 83       	st	Z, r25
	bufferTx[indexTxW++] = myWord.ui8[1];
    1094:	91 e0       	ldi	r25, 0x01	; 1
    1096:	98 0f       	add	r25, r24
    1098:	90 93 57 01 	sts	0x0157, r25	; 0x800157 <indexTxW>
    109c:	e8 2f       	mov	r30, r24
    109e:	f0 e0       	ldi	r31, 0x00	; 0
    10a0:	11 96       	adiw	r26, 0x01	; 1
    10a2:	8c 91       	ld	r24, X
    10a4:	e1 59       	subi	r30, 0x91	; 145
    10a6:	fd 4f       	sbci	r31, 0xFD	; 253
    10a8:	80 83       	st	Z, r24
}
    10aa:	df 91       	pop	r29
    10ac:	cf 91       	pop	r28
    10ae:	08 95       	ret

000010b0 <main>:

/*
    Main application
*/

int main(void){
    10b0:	cf 93       	push	r28
    10b2:	df 93       	push	r29
    10b4:	cd b7       	in	r28, 0x3d	; 61
    10b6:	de b7       	in	r29, 0x3e	; 62
    10b8:	28 97       	sbiw	r28, 0x08	; 8
    10ba:	0f b6       	in	r0, 0x3f	; 63
    10bc:	f8 94       	cli
    10be:	de bf       	out	0x3e, r29	; 62
    10c0:	0f be       	out	0x3f, r0	; 63
    10c2:	cd bf       	out	0x3d, r28	; 61
	
	SYSTEM_Initialize();
    10c4:	0e 94 bb 0a 	call	0x1576	; 0x1576 <SYSTEM_Initialize>
	
	uint8_t auxSlaveAddress, hbState = 0, byte=0; 
	uint16_t auxtimeBtw[4];
	
	//LEER DE EEPROM
	slaveAddress = EEPROM_Read(SLAVE_EEPROM_ADDRESS);
    10c8:	81 e0       	ldi	r24, 0x01	; 1
    10ca:	90 e0       	ldi	r25, 0x00	; 0
    10cc:	0e 94 22 01 	call	0x244	; 0x244 <EEPROM_Read>
    10d0:	80 93 ff 03 	sts	0x03FF, r24	; 0x8003ff <slaveAddress>
	modbusRegister.brConfig = EEPROM_Read(BRCONFIG_EEPROM_ADDRESS);
    10d4:	82 e0       	ldi	r24, 0x02	; 2
    10d6:	90 e0       	ldi	r25, 0x00	; 0
    10d8:	0e 94 22 01 	call	0x244	; 0x244 <EEPROM_Read>
    10dc:	0f 2e       	mov	r0, r31
    10de:	f0 e0       	ldi	r31, 0x00	; 0
    10e0:	ef 2e       	mov	r14, r31
    10e2:	f4 e0       	ldi	r31, 0x04	; 4
    10e4:	ff 2e       	mov	r15, r31
    10e6:	f0 2d       	mov	r31, r0
    10e8:	d7 01       	movw	r26, r14
    10ea:	14 96       	adiw	r26, 0x04	; 4
    10ec:	8c 93       	st	X, r24
	modbusRegister.parity = EEPROM_Read(PARITY_EEPROM_ADDRESS);
    10ee:	83 e0       	ldi	r24, 0x03	; 3
    10f0:	90 e0       	ldi	r25, 0x00	; 0
    10f2:	0e 94 22 01 	call	0x244	; 0x244 <EEPROM_Read>
    10f6:	f7 01       	movw	r30, r14
    10f8:	85 83       	std	Z+5, r24	; 0x05

	myWord.ui8[0] = EEPROM_Read(TIMEBTW0_LOW_EEPROM_ADDRESS);
    10fa:	84 e0       	ldi	r24, 0x04	; 4
    10fc:	90 e0       	ldi	r25, 0x00	; 0
    10fe:	0e 94 22 01 	call	0x244	; 0x244 <EEPROM_Read>
    1102:	00 e6       	ldi	r16, 0x60	; 96
    1104:	12 e0       	ldi	r17, 0x02	; 2
    1106:	d8 01       	movw	r26, r16
    1108:	8c 93       	st	X, r24
	myWord.ui8[1] = EEPROM_Read(TIMEBTW0_HIGH_EEPROM_ADDRESS);
    110a:	85 e0       	ldi	r24, 0x05	; 5
    110c:	90 e0       	ldi	r25, 0x00	; 0
    110e:	0e 94 22 01 	call	0x244	; 0x244 <EEPROM_Read>
    1112:	f8 01       	movw	r30, r16
    1114:	81 83       	std	Z+1, r24	; 0x01
	modbusRegister.timeBtw[0]= myWord.ui16[0];
    1116:	80 81       	ld	r24, Z
    1118:	91 81       	ldd	r25, Z+1	; 0x01
    111a:	d7 01       	movw	r26, r14
    111c:	17 96       	adiw	r26, 0x07	; 7
    111e:	9c 93       	st	X, r25
    1120:	8e 93       	st	-X, r24
    1122:	16 97       	sbiw	r26, 0x06	; 6
	myWord.ui8[1] = EEPROM_Read(TIMEBTW1_HIGH_EEPROM_ADDRESS);
    1124:	87 e0       	ldi	r24, 0x07	; 7
    1126:	90 e0       	ldi	r25, 0x00	; 0
    1128:	0e 94 22 01 	call	0x244	; 0x244 <EEPROM_Read>
    112c:	f8 01       	movw	r30, r16
    112e:	81 83       	std	Z+1, r24	; 0x01
	myWord.ui8[0] = EEPROM_Read(TIMEBTW1_LOW_EEPROM_ADDRESS);
    1130:	86 e0       	ldi	r24, 0x06	; 6
    1132:	90 e0       	ldi	r25, 0x00	; 0
    1134:	0e 94 22 01 	call	0x244	; 0x244 <EEPROM_Read>
    1138:	d8 01       	movw	r26, r16
    113a:	8c 93       	st	X, r24
	modbusRegister.timeBtw[1]= myWord.ui16[0];
    113c:	8d 91       	ld	r24, X+
    113e:	9c 91       	ld	r25, X
    1140:	f7 01       	movw	r30, r14
    1142:	91 87       	std	Z+9, r25	; 0x09
    1144:	80 87       	std	Z+8, r24	; 0x08
	myWord.ui8[1] = EEPROM_Read(TIMEBTW2_HIGH_EEPROM_ADDRESS);
    1146:	89 e0       	ldi	r24, 0x09	; 9
    1148:	90 e0       	ldi	r25, 0x00	; 0
    114a:	0e 94 22 01 	call	0x244	; 0x244 <EEPROM_Read>
    114e:	d8 01       	movw	r26, r16
    1150:	11 96       	adiw	r26, 0x01	; 1
    1152:	8c 93       	st	X, r24
	myWord.ui8[0] = EEPROM_Read(TIMEBTW2_LOW_EEPROM_ADDRESS);
    1154:	88 e0       	ldi	r24, 0x08	; 8
    1156:	90 e0       	ldi	r25, 0x00	; 0
    1158:	0e 94 22 01 	call	0x244	; 0x244 <EEPROM_Read>
    115c:	f8 01       	movw	r30, r16
    115e:	80 83       	st	Z, r24
	modbusRegister.timeBtw[2]= myWord.ui16[0];
    1160:	80 81       	ld	r24, Z
    1162:	91 81       	ldd	r25, Z+1	; 0x01
    1164:	d7 01       	movw	r26, r14
    1166:	1b 96       	adiw	r26, 0x0b	; 11
    1168:	9c 93       	st	X, r25
    116a:	8e 93       	st	-X, r24
    116c:	1a 97       	sbiw	r26, 0x0a	; 10
	myWord.ui8[1] = EEPROM_Read(TIMEBTW3_HIGH_EEPROM_ADDRESS);
    116e:	8b e0       	ldi	r24, 0x0B	; 11
    1170:	90 e0       	ldi	r25, 0x00	; 0
    1172:	0e 94 22 01 	call	0x244	; 0x244 <EEPROM_Read>
    1176:	f8 01       	movw	r30, r16
    1178:	81 83       	std	Z+1, r24	; 0x01
	myWord.ui8[0] = EEPROM_Read(TIMEBTW3_LOW_EEPROM_ADDRESS);
    117a:	8a e0       	ldi	r24, 0x0A	; 10
    117c:	90 e0       	ldi	r25, 0x00	; 0
    117e:	0e 94 22 01 	call	0x244	; 0x244 <EEPROM_Read>
    1182:	d8 01       	movw	r26, r16
    1184:	8c 93       	st	X, r24
	modbusRegister.timeBtw[3]= myWord.ui16[0];
    1186:	8d 91       	ld	r24, X+
    1188:	9c 91       	ld	r25, X
    118a:	f7 01       	movw	r30, r14
    118c:	95 87       	std	Z+13, r25	; 0x0d
    118e:	84 87       	std	Z+12, r24	; 0x0c
	modbusRegister.eventIndexR = 0;
    1190:	13 8a       	std	Z+19, r1	; 0x13
    1192:	12 8a       	std	Z+18, r1	; 0x12
	modbusRegister.unixTime				= 1770766800;
    1194:	40 ed       	ldi	r20, 0xD0	; 208
    1196:	51 ec       	ldi	r21, 0xC1	; 193
    1198:	6b e8       	ldi	r22, 0x8B	; 139
    119a:	79 e6       	ldi	r23, 0x69	; 105
    119c:	d7 01       	movw	r26, r14
    119e:	40 83       	st	Z, r20
    11a0:	51 83       	std	Z+1, r21	; 0x01
    11a2:	62 83       	std	Z+2, r22	; 0x02
    11a4:	73 83       	std	Z+3, r23	; 0x03
	modbusRegister.diagnosticsRegister	= 0x3333; //Ver que valor darle que nos sirva
    11a6:	23 e3       	ldi	r18, 0x33	; 51
    11a8:	33 e3       	ldi	r19, 0x33	; 51
    11aa:	37 87       	std	Z+15, r19	; 0x0f
    11ac:	26 87       	std	Z+14, r18	; 0x0e
	modbusRegister.newEventCounter		= 0x0000;
    11ae:	11 8a       	std	Z+17, r1	; 0x11
    11b0:	10 8a       	std	Z+16, r1	; 0x10


	auxSlaveAddress = slaveAddress;
    11b2:	00 91 ff 03 	lds	r16, 0x03FF	; 0x8003ff <slaveAddress>
	auxbrConfig = modbusRegister.brConfig;
    11b6:	f4 81       	ldd	r31, Z+4	; 0x04
    11b8:	f0 93 0e 01 	sts	0x010E, r31	; 0x80010e <auxbrConfig>
	auxParity = modbusRegister.parity;
    11bc:	15 96       	adiw	r26, 0x05	; 5
    11be:	ec 91       	ld	r30, X
    11c0:	15 97       	sbiw	r26, 0x05	; 5
    11c2:	e0 93 0d 01 	sts	0x010D, r30	; 0x80010d <auxParity>
	auxtimeBtw[0] = modbusRegister.timeBtw[0];	
    11c6:	16 96       	adiw	r26, 0x06	; 6
    11c8:	6d 91       	ld	r22, X+
    11ca:	7c 91       	ld	r23, X
    11cc:	17 97       	sbiw	r26, 0x07	; 7
    11ce:	7a 83       	std	Y+2, r23	; 0x02
    11d0:	69 83       	std	Y+1, r22	; 0x01
	auxtimeBtw[1] = modbusRegister.timeBtw[1];
    11d2:	18 96       	adiw	r26, 0x08	; 8
    11d4:	4d 91       	ld	r20, X+
    11d6:	5c 91       	ld	r21, X
    11d8:	19 97       	sbiw	r26, 0x09	; 9
    11da:	5c 83       	std	Y+4, r21	; 0x04
    11dc:	4b 83       	std	Y+3, r20	; 0x03
	auxtimeBtw[2] = modbusRegister.timeBtw[2];
    11de:	1a 96       	adiw	r26, 0x0a	; 10
    11e0:	2d 91       	ld	r18, X+
    11e2:	3c 91       	ld	r19, X
    11e4:	1b 97       	sbiw	r26, 0x0b	; 11
    11e6:	3e 83       	std	Y+6, r19	; 0x06
    11e8:	2d 83       	std	Y+5, r18	; 0x05
	auxtimeBtw[3] = modbusRegister.timeBtw[3];
    11ea:	98 87       	std	Y+8, r25	; 0x08
    11ec:	8f 83       	std	Y+7, r24	; 0x07
	
	if(slaveAddress == 0xFF){
    11ee:	0f 3f       	cpi	r16, 0xFF	; 255
    11f0:	21 f4       	brne	.+8      	; 0x11fa <main+0x14a>
		slaveAddress = 0x02;
    11f2:	a2 e0       	ldi	r26, 0x02	; 2
    11f4:	a0 93 ff 03 	sts	0x03FF, r26	; 0x8003ff <slaveAddress>
		auxSlaveAddress = slaveAddress;
    11f8:	02 e0       	ldi	r16, 0x02	; 2
	}
	if(modbusRegister.brConfig == 0xFF){
    11fa:	ff 3f       	cpi	r31, 0xFF	; 255
    11fc:	21 f4       	brne	.+8      	; 0x1206 <main+0x156>
		modbusRegister.brConfig = 0x00;
    11fe:	10 92 04 04 	sts	0x0404, r1	; 0x800404 <modbusRegister+0x4>
		auxbrConfig = modbusRegister.brConfig;
    1202:	10 92 0e 01 	sts	0x010E, r1	; 0x80010e <auxbrConfig>
	}
	if(modbusRegister.parity == 0xFF){
    1206:	ef 3f       	cpi	r30, 0xFF	; 255
    1208:	29 f4       	brne	.+10     	; 0x1214 <main+0x164>
		modbusRegister.parity = 0x01;
    120a:	e1 e0       	ldi	r30, 0x01	; 1
    120c:	e0 93 05 04 	sts	0x0405, r30	; 0x800405 <modbusRegister+0x5>
		auxParity = modbusRegister.parity;
    1210:	e0 93 0d 01 	sts	0x010D, r30	; 0x80010d <auxParity>
	}
	if(modbusRegister.timeBtw[0] == 0xFFFF){
    1214:	6f 3f       	cpi	r22, 0xFF	; 255
    1216:	7f 4f       	sbci	r23, 0xFF	; 255
    1218:	31 f4       	brne	.+12     	; 0x1226 <main+0x176>
		modbusRegister.timeBtw[0] = 0x00;
    121a:	10 92 07 04 	sts	0x0407, r1	; 0x800407 <modbusRegister+0x7>
    121e:	10 92 06 04 	sts	0x0406, r1	; 0x800406 <modbusRegister+0x6>
		auxtimeBtw[0] = modbusRegister.timeBtw[0];
    1222:	1a 82       	std	Y+2, r1	; 0x02
    1224:	19 82       	std	Y+1, r1	; 0x01
	}
	if(modbusRegister.timeBtw[1] == 0xFFFF){
    1226:	4f 3f       	cpi	r20, 0xFF	; 255
    1228:	5f 4f       	sbci	r21, 0xFF	; 255
    122a:	31 f4       	brne	.+12     	; 0x1238 <main+0x188>
		modbusRegister.timeBtw[1] = 0x00;
    122c:	10 92 09 04 	sts	0x0409, r1	; 0x800409 <modbusRegister+0x9>
    1230:	10 92 08 04 	sts	0x0408, r1	; 0x800408 <modbusRegister+0x8>
		auxtimeBtw[1] = modbusRegister.timeBtw[1];
    1234:	1c 82       	std	Y+4, r1	; 0x04
    1236:	1b 82       	std	Y+3, r1	; 0x03
	}
	if(modbusRegister.timeBtw[2] == 0xFFFF){
    1238:	2f 3f       	cpi	r18, 0xFF	; 255
    123a:	3f 4f       	sbci	r19, 0xFF	; 255
    123c:	31 f4       	brne	.+12     	; 0x124a <main+0x19a>
		modbusRegister.timeBtw[2] = 0x00;
    123e:	10 92 0b 04 	sts	0x040B, r1	; 0x80040b <modbusRegister+0xb>
    1242:	10 92 0a 04 	sts	0x040A, r1	; 0x80040a <modbusRegister+0xa>
		auxtimeBtw[2] = modbusRegister.timeBtw[2];
    1246:	1e 82       	std	Y+6, r1	; 0x06
    1248:	1d 82       	std	Y+5, r1	; 0x05
	}
	if(modbusRegister.timeBtw[3] == 0xFFFF){
    124a:	01 96       	adiw	r24, 0x01	; 1
    124c:	31 f4       	brne	.+12     	; 0x125a <main+0x1aa>
		modbusRegister.timeBtw[3] = 0x00;
    124e:	10 92 0d 04 	sts	0x040D, r1	; 0x80040d <modbusRegister+0xd>
    1252:	10 92 0c 04 	sts	0x040C, r1	; 0x80040c <modbusRegister+0xc>
		auxtimeBtw[3] = modbusRegister.timeBtw[3];
    1256:	18 86       	std	Y+8, r1	; 0x08
    1258:	1f 82       	std	Y+7, r1	; 0x07
	}


	
	
	decodeState = IDLE;
    125a:	10 92 5c 01 	sts	0x015C, r1	; 0x80015c <decodeState>
	hbTime = PERIOD250MS;
    125e:	89 e1       	ldi	r24, 0x19	; 25
    1260:	80 93 0c 01 	sts	0x010C, r24	; 0x80010c <hbTime>
	auxTik = 25000;
    1264:	88 ea       	ldi	r24, 0xA8	; 168
    1266:	91 e6       	ldi	r25, 0x61	; 97
    1268:	90 93 0a 01 	sts	0x010A, r25	; 0x80010a <auxTik+0x1>
    126c:	80 93 09 01 	sts	0x0109, r24	; 0x800109 <auxTik>
	commFlags.aFlags = 0;
	commFlags.iFlags.silenceTime = 1;
    1270:	84 e0       	ldi	r24, 0x04	; 4
    1272:	80 93 5d 02 	sts	0x025D, r24	; 0x80025d <commFlags>
	indexTxW = 0;
    1276:	10 92 57 01 	sts	0x0157, r1	; 0x800157 <indexTxW>
	indexTxR = 0;
    127a:	10 92 5e 02 	sts	0x025E, r1	; 0x80025e <indexTxR>
	indexRxW = 0;
    127e:	10 92 66 02 	sts	0x0266, r1	; 0x800266 <indexRxW>
	indexRxR = 0;
    1282:	10 92 65 02 	sts	0x0265, r1	; 0x800265 <indexRxR>
		
	unixTik = PERIOD500MS;
    1286:	82 e3       	ldi	r24, 0x32	; 50
    1288:	80 93 0b 01 	sts	0x010B, r24	; 0x80010b <unixTik>
	tikRX=PERIODBR;
    128c:	82 e0       	ldi	r24, 0x02	; 2
    128e:	80 93 79 03 	sts	0x0379, r24	; 0x800379 <tikRX>
	tim2Tik = PERIOD1S_TIM2;
    1292:	8f e8       	ldi	r24, 0x8F	; 143
    1294:	95 e2       	ldi	r25, 0x25	; 37
    1296:	90 93 08 01 	sts	0x0108, r25	; 0x800108 <tim2Tik+0x1>
    129a:	80 93 07 01 	sts	0x0107, r24	; 0x800107 <tim2Tik>
	/*-----LECTURA ENTRADAS-----------------------*/
	newValueA = ~(PORTC & MASK_PORTC);
    129e:	88 b1       	in	r24, 0x08	; 8
    12a0:	8f 70       	andi	r24, 0x0F	; 15
    12a2:	80 95       	com	r24
    12a4:	80 93 05 01 	sts	0x0105, r24	; 0x800105 <newValueA>
	outValues = newValueA;
    12a8:	80 93 04 01 	sts	0x0104, r24	; 0x800104 <outValues>
	inputFlags.aFlags_input = 0;
    12ac:	10 92 64 02 	sts	0x0264, r1	; 0x800264 <inputFlags>
	commFlags.aFlags = 0;
    12b0:	10 92 5d 02 	sts	0x025D, r1	; 0x80025d <commFlags>
	is500ms=0;
    12b4:	10 92 00 01 	sts	0x0100, r1	; 0x800100 <__DATA_REGION_ORIGIN__>

	tikBetweenTime[0] = 0;
    12b8:	e0 e7       	ldi	r30, 0x70	; 112
    12ba:	f3 e0       	ldi	r31, 0x03	; 3
    12bc:	11 82       	std	Z+1, r1	; 0x01
    12be:	10 82       	st	Z, r1
	tikBetweenTime[1] = 0;
    12c0:	13 82       	std	Z+3, r1	; 0x03
    12c2:	12 82       	std	Z+2, r1	; 0x02
	tikBetweenTime[2] = 0;
    12c4:	15 82       	std	Z+5, r1	; 0x05
    12c6:	14 82       	std	Z+4, r1	; 0x04
	tikBetweenTime[3] = 0;
    12c8:	17 82       	std	Z+7, r1	; 0x07
    12ca:	16 82       	std	Z+6, r1	; 0x06
		

	USART0_Initialize(modbusRegister.brConfig, modbusRegister.parity);
    12cc:	e0 e0       	ldi	r30, 0x00	; 0
    12ce:	f4 e0       	ldi	r31, 0x04	; 4
    12d0:	65 81       	ldd	r22, Z+5	; 0x05
    12d2:	84 81       	ldd	r24, Z+4	; 0x04
    12d4:	0e 94 f8 0b 	call	0x17f0	; 0x17f0 <USART0_Initialize>
	TC0_Initialize();
    12d8:	0e 94 c2 0a 	call	0x1584	; 0x1584 <TC0_Initialize>
	TC1_Initialize();
    12dc:	0e 94 0b 0b 	call	0x1616	; 0x1616 <TC1_Initialize>
	TC2_Initialize();
    12e0:	0e 94 83 0b 	call	0x1706	; 0x1706 <TC2_Initialize>
	USART1_Initialize();
    12e4:	0e 94 27 0c 	call	0x184e	; 0x184e <USART1_Initialize>
	InitializeEvents();
    12e8:	0e 94 75 01 	call	0x2ea	; 0x2ea <InitializeEvents>
	
	
	sei();
    12ec:	78 94       	sei
	
	TMR0_SetHandler(do10ms);
    12ee:	82 e8       	ldi	r24, 0x82	; 130
    12f0:	90 e0       	ldi	r25, 0x00	; 0
    12f2:	0e 94 db 0a 	call	0x15b6	; 0x15b6 <TMR0_SetHandler>
	TMR1_SetHandler(do10us);
    12f6:	8a e5       	ldi	r24, 0x5A	; 90
    12f8:	90 e0       	ldi	r25, 0x00	; 0
    12fa:	0e 94 53 0b 	call	0x16a6	; 0x16a6 <TMR1_SetHandler>
	TMR2_SetHandler(ISRVirtualUsart);
    12fe:	8e ea       	ldi	r24, 0xAE	; 174
    1300:	90 e0       	ldi	r25, 0x00	; 0
    1302:	0e 94 96 0b 	call	0x172c	; 0x172c <TMR2_SetHandler>
	USART0_ReceiveInterruptEnable();
    1306:	0e 94 00 01 	call	0x200	; 0x200 <USART0_ReceiveInterruptEnable>

int main(void){
	
	SYSTEM_Initialize();
	
	uint8_t auxSlaveAddress, hbState = 0, byte=0; 
    130a:	10 e0       	ldi	r17, 0x00	; 0
	USART0_ReceiveInterruptEnable();

	
	while(1){
		
			if(!hbTime){ //Heartbeat
    130c:	80 91 0c 01 	lds	r24, 0x010C	; 0x80010c <hbTime>
    1310:	81 11       	cpse	r24, r1
    1312:	05 c0       	rjmp	.+10     	; 0x131e <main+0x26e>
			//	PORTB ^= (1<<5);
				hbState ^= (1<<5);
    1314:	80 e2       	ldi	r24, 0x20	; 32
    1316:	18 27       	eor	r17, r24
				hbTime = PERIOD250MS;
    1318:	89 e1       	ldi	r24, 0x19	; 25
    131a:	80 93 0c 01 	sts	0x010C, r24	; 0x80010c <hbTime>
			}
			//USART1
			USART1_Start_bit_detect();
    131e:	0e 94 40 0c 	call	0x1880	; 0x1880 <USART1_Start_bit_detect>
			if(USART1_RX_READY){
    1322:	80 91 7a 03 	lds	r24, 0x037A	; 0x80037a <USART1>
    1326:	82 ff       	sbrs	r24, 2
    1328:	04 c0       	rjmp	.+8      	; 0x1332 <main+0x282>
				byte = USART1_Read();
    132a:	0e 94 33 0d 	call	0x1a66	; 0x1a66 <USART1_Read>
				USART1_Write(byte);
    132e:	0e 94 2b 0d 	call	0x1a56	; 0x1a56 <USART1_Write>
			}			
			//------		 
			if(commFlags.iFlags.dataReady){ //DECODIFICA SI EL FRAME SE RECIBIO CORRECTAMENTE
    1332:	80 91 5d 02 	lds	r24, 0x025D	; 0x80025d <commFlags>
    1336:	81 ff       	sbrs	r24, 1
    1338:	05 c0       	rjmp	.+10     	; 0x1344 <main+0x294>
				commFlags.iFlags.dataReady = 0;
    133a:	8d 7f       	andi	r24, 0xFD	; 253
    133c:	80 93 5d 02 	sts	0x025D, r24	; 0x80025d <commFlags>
				MODBUS_ProcessFunction();
    1340:	0e 94 43 04 	call	0x886	; 0x886 <MODBUS_ProcessFunction>
			}

			if(indexTxR != indexTxW){ //Si hay datos para transmitir, transmite todo lo que tiene
    1344:	90 91 5e 02 	lds	r25, 0x025E	; 0x80025e <indexTxR>
    1348:	80 91 57 01 	lds	r24, 0x0157	; 0x800157 <indexTxW>
    134c:	98 17       	cp	r25, r24
    134e:	39 f0       	breq	.+14     	; 0x135e <main+0x2ae>
				USART0_ReceiveInterruptDisable();
    1350:	0e 94 06 01 	call	0x20c	; 0x20c <USART0_ReceiveInterruptDisable>
				PORTD |= 0x4; //MAX HIGH
    1354:	8b b1       	in	r24, 0x0b	; 11
    1356:	84 60       	ori	r24, 0x04	; 4
    1358:	8b b9       	out	0x0b, r24	; 11
				UARTsendByte();
    135a:	0e 94 e8 00 	call	0x1d0	; 0x1d0 <UARTsendByte>
			}
			if(indexTxR == indexTxW){ //Si no hay datos para transmitir vuelve a la interrupcion
    135e:	90 91 5e 02 	lds	r25, 0x025E	; 0x80025e <indexTxR>
    1362:	80 91 57 01 	lds	r24, 0x0157	; 0x800157 <indexTxW>
    1366:	98 13       	cpse	r25, r24
    1368:	0e c0       	rjmp	.+28     	; 0x1386 <main+0x2d6>
				if(USART0_IsTxDone()){ //IS TRANSMIT COMPLETE
    136a:	0e 94 d7 0b 	call	0x17ae	; 0x17ae <USART0_IsTxDone>
    136e:	88 23       	and	r24, r24
    1370:	51 f0       	breq	.+20     	; 0x1386 <main+0x2d6>
					UCSR0A |= (1<<TXC0);           // limpiar TXC0
    1372:	e0 ec       	ldi	r30, 0xC0	; 192
    1374:	f0 e0       	ldi	r31, 0x00	; 0
    1376:	80 81       	ld	r24, Z
    1378:	80 64       	ori	r24, 0x40	; 64
    137a:	80 83       	st	Z, r24
					USART0_ReceiveInterruptEnable();
    137c:	0e 94 00 01 	call	0x200	; 0x200 <USART0_ReceiveInterruptEnable>
					PORTD &= ~ 0x4; //MAX_SetLow();
    1380:	8b b1       	in	r24, 0x0b	; 11
    1382:	8b 7f       	andi	r24, 0xFB	; 251
    1384:	8b b9       	out	0x0b, r24	; 11
				}
			}

			if(commFlags.iFlags.isExceptionCode){ 
    1386:	80 91 5d 02 	lds	r24, 0x025D	; 0x80025d <commFlags>
    138a:	83 fd       	sbrc	r24, 3
				MODBUS_SendExceptionCode();
    138c:	0e 94 08 08 	call	0x1010	; 0x1010 <MODBUS_SendExceptionCode>
			}
 
			if(commFlags.iFlags.restartComms){ //resetear usart segun baudrate y paridad
    1390:	80 91 5d 02 	lds	r24, 0x025D	; 0x80025d <commFlags>
    1394:	86 ff       	sbrs	r24, 6
    1396:	c7 c0       	rjmp	.+398    	; 0x1526 <main+0x476>
				//GUARDAR TODOS LOS REGISTROS EN EEPROM Y RESETEAR USART
				//modbusRegister.brConfig = 0x00;
				//modbusRegister.parity = 0x00;
						if(auxSlaveAddress != slaveAddress){
    1398:	60 91 ff 03 	lds	r22, 0x03FF	; 0x8003ff <slaveAddress>
    139c:	06 17       	cp	r16, r22
    139e:	31 f0       	breq	.+12     	; 0x13ac <main+0x2fc>
							//cargar eeprom
							EEPROM_Write(SLAVE_EEPROM_ADDRESS, slaveAddress);
    13a0:	81 e0       	ldi	r24, 0x01	; 1
    13a2:	90 e0       	ldi	r25, 0x00	; 0
    13a4:	0e 94 0c 01 	call	0x218	; 0x218 <EEPROM_Write>
							auxSlaveAddress = slaveAddress;
    13a8:	00 91 ff 03 	lds	r16, 0x03FF	; 0x8003ff <slaveAddress>
						}
						
						if(auxbrConfig != modbusRegister.brConfig){
    13ac:	60 91 04 04 	lds	r22, 0x0404	; 0x800404 <modbusRegister+0x4>
    13b0:	80 91 0e 01 	lds	r24, 0x010E	; 0x80010e <auxbrConfig>
    13b4:	68 17       	cp	r22, r24
    13b6:	41 f0       	breq	.+16     	; 0x13c8 <main+0x318>
							//cargar eeprom
							EEPROM_Write(BRCONFIG_EEPROM_ADDRESS,modbusRegister.brConfig);
    13b8:	82 e0       	ldi	r24, 0x02	; 2
    13ba:	90 e0       	ldi	r25, 0x00	; 0
    13bc:	0e 94 0c 01 	call	0x218	; 0x218 <EEPROM_Write>
							auxbrConfig = modbusRegister.brConfig;
    13c0:	80 91 04 04 	lds	r24, 0x0404	; 0x800404 <modbusRegister+0x4>
    13c4:	80 93 0e 01 	sts	0x010E, r24	; 0x80010e <auxbrConfig>
						}
						if(auxParity != modbusRegister.parity){
    13c8:	60 91 05 04 	lds	r22, 0x0405	; 0x800405 <modbusRegister+0x5>
    13cc:	80 91 0d 01 	lds	r24, 0x010D	; 0x80010d <auxParity>
    13d0:	68 17       	cp	r22, r24
    13d2:	41 f0       	breq	.+16     	; 0x13e4 <main+0x334>
							//cargar eeprom
							EEPROM_Write(PARITY_EEPROM_ADDRESS,modbusRegister.parity);
    13d4:	83 e0       	ldi	r24, 0x03	; 3
    13d6:	90 e0       	ldi	r25, 0x00	; 0
    13d8:	0e 94 0c 01 	call	0x218	; 0x218 <EEPROM_Write>
							auxParity = modbusRegister.parity;
    13dc:	80 91 05 04 	lds	r24, 0x0405	; 0x800405 <modbusRegister+0x5>
    13e0:	80 93 0d 01 	sts	0x010D, r24	; 0x80010d <auxParity>
						}
						if(auxtimeBtw[0] != modbusRegister.timeBtw[0]){
    13e4:	29 81       	ldd	r18, Y+1	; 0x01
    13e6:	3a 81       	ldd	r19, Y+2	; 0x02
    13e8:	80 91 06 04 	lds	r24, 0x0406	; 0x800406 <modbusRegister+0x6>
    13ec:	90 91 07 04 	lds	r25, 0x0407	; 0x800407 <modbusRegister+0x7>
    13f0:	28 17       	cp	r18, r24
    13f2:	39 07       	cpc	r19, r25
    13f4:	e1 f0       	breq	.+56     	; 0x142e <main+0x37e>
							//cargar eeprom
							myWord.ui16[0]=modbusRegister.timeBtw[0];
    13f6:	0f 2e       	mov	r0, r31
    13f8:	f0 e6       	ldi	r31, 0x60	; 96
    13fa:	ef 2e       	mov	r14, r31
    13fc:	f2 e0       	ldi	r31, 0x02	; 2
    13fe:	ff 2e       	mov	r15, r31
    1400:	f0 2d       	mov	r31, r0
    1402:	d7 01       	movw	r26, r14
    1404:	11 96       	adiw	r26, 0x01	; 1
    1406:	9c 93       	st	X, r25
    1408:	8e 93       	st	-X, r24
							EEPROM_Write(TIMEBTW0_HIGH_EEPROM_ADDRESS,myWord.ui8[1]);
    140a:	11 96       	adiw	r26, 0x01	; 1
    140c:	6c 91       	ld	r22, X
    140e:	85 e0       	ldi	r24, 0x05	; 5
    1410:	90 e0       	ldi	r25, 0x00	; 0
    1412:	0e 94 0c 01 	call	0x218	; 0x218 <EEPROM_Write>
							EEPROM_Write(TIMEBTW0_LOW_EEPROM_ADDRESS,myWord.ui8[0]);
    1416:	f7 01       	movw	r30, r14
    1418:	60 81       	ld	r22, Z
    141a:	84 e0       	ldi	r24, 0x04	; 4
    141c:	90 e0       	ldi	r25, 0x00	; 0
    141e:	0e 94 0c 01 	call	0x218	; 0x218 <EEPROM_Write>
							auxtimeBtw[0] = modbusRegister.timeBtw[0];
    1422:	80 91 06 04 	lds	r24, 0x0406	; 0x800406 <modbusRegister+0x6>
    1426:	90 91 07 04 	lds	r25, 0x0407	; 0x800407 <modbusRegister+0x7>
    142a:	9a 83       	std	Y+2, r25	; 0x02
    142c:	89 83       	std	Y+1, r24	; 0x01
						}
						
						if(auxtimeBtw[1] != modbusRegister.timeBtw[1]){
    142e:	2b 81       	ldd	r18, Y+3	; 0x03
    1430:	3c 81       	ldd	r19, Y+4	; 0x04
    1432:	80 91 08 04 	lds	r24, 0x0408	; 0x800408 <modbusRegister+0x8>
    1436:	90 91 09 04 	lds	r25, 0x0409	; 0x800409 <modbusRegister+0x9>
    143a:	28 17       	cp	r18, r24
    143c:	39 07       	cpc	r19, r25
    143e:	e1 f0       	breq	.+56     	; 0x1478 <main+0x3c8>
							//cargar eeprom
							myWord.ui16[0]=modbusRegister.timeBtw[1];
    1440:	0f 2e       	mov	r0, r31
    1442:	f0 e6       	ldi	r31, 0x60	; 96
    1444:	ef 2e       	mov	r14, r31
    1446:	f2 e0       	ldi	r31, 0x02	; 2
    1448:	ff 2e       	mov	r15, r31
    144a:	f0 2d       	mov	r31, r0
    144c:	d7 01       	movw	r26, r14
    144e:	11 96       	adiw	r26, 0x01	; 1
    1450:	9c 93       	st	X, r25
    1452:	8e 93       	st	-X, r24
							EEPROM_Write(TIMEBTW1_HIGH_EEPROM_ADDRESS,myWord.ui8[1]);
    1454:	11 96       	adiw	r26, 0x01	; 1
    1456:	6c 91       	ld	r22, X
    1458:	87 e0       	ldi	r24, 0x07	; 7
    145a:	90 e0       	ldi	r25, 0x00	; 0
    145c:	0e 94 0c 01 	call	0x218	; 0x218 <EEPROM_Write>
							EEPROM_Write(TIMEBTW1_LOW_EEPROM_ADDRESS,myWord.ui8[0]);
    1460:	f7 01       	movw	r30, r14
    1462:	60 81       	ld	r22, Z
    1464:	86 e0       	ldi	r24, 0x06	; 6
    1466:	90 e0       	ldi	r25, 0x00	; 0
    1468:	0e 94 0c 01 	call	0x218	; 0x218 <EEPROM_Write>
							auxtimeBtw[1] = modbusRegister.timeBtw[1];
    146c:	80 91 08 04 	lds	r24, 0x0408	; 0x800408 <modbusRegister+0x8>
    1470:	90 91 09 04 	lds	r25, 0x0409	; 0x800409 <modbusRegister+0x9>
    1474:	9c 83       	std	Y+4, r25	; 0x04
    1476:	8b 83       	std	Y+3, r24	; 0x03
						}
						if(auxtimeBtw[2] != modbusRegister.timeBtw[2]){
    1478:	2d 81       	ldd	r18, Y+5	; 0x05
    147a:	3e 81       	ldd	r19, Y+6	; 0x06
    147c:	80 91 0a 04 	lds	r24, 0x040A	; 0x80040a <modbusRegister+0xa>
    1480:	90 91 0b 04 	lds	r25, 0x040B	; 0x80040b <modbusRegister+0xb>
    1484:	28 17       	cp	r18, r24
    1486:	39 07       	cpc	r19, r25
    1488:	e1 f0       	breq	.+56     	; 0x14c2 <main+0x412>
							//cargar eeprom
							myWord.ui16[0]=modbusRegister.timeBtw[2];
    148a:	0f 2e       	mov	r0, r31
    148c:	f0 e6       	ldi	r31, 0x60	; 96
    148e:	ef 2e       	mov	r14, r31
    1490:	f2 e0       	ldi	r31, 0x02	; 2
    1492:	ff 2e       	mov	r15, r31
    1494:	f0 2d       	mov	r31, r0
    1496:	d7 01       	movw	r26, r14
    1498:	11 96       	adiw	r26, 0x01	; 1
    149a:	9c 93       	st	X, r25
    149c:	8e 93       	st	-X, r24
							EEPROM_Write(TIMEBTW2_HIGH_EEPROM_ADDRESS,myWord.ui8[1]);
    149e:	11 96       	adiw	r26, 0x01	; 1
    14a0:	6c 91       	ld	r22, X
    14a2:	89 e0       	ldi	r24, 0x09	; 9
    14a4:	90 e0       	ldi	r25, 0x00	; 0
    14a6:	0e 94 0c 01 	call	0x218	; 0x218 <EEPROM_Write>
							EEPROM_Write(TIMEBTW2_LOW_EEPROM_ADDRESS,myWord.ui8[0]);
    14aa:	f7 01       	movw	r30, r14
    14ac:	60 81       	ld	r22, Z
    14ae:	88 e0       	ldi	r24, 0x08	; 8
    14b0:	90 e0       	ldi	r25, 0x00	; 0
    14b2:	0e 94 0c 01 	call	0x218	; 0x218 <EEPROM_Write>
							auxtimeBtw[2] = modbusRegister.timeBtw[2];
    14b6:	80 91 0a 04 	lds	r24, 0x040A	; 0x80040a <modbusRegister+0xa>
    14ba:	90 91 0b 04 	lds	r25, 0x040B	; 0x80040b <modbusRegister+0xb>
    14be:	9e 83       	std	Y+6, r25	; 0x06
    14c0:	8d 83       	std	Y+5, r24	; 0x05
						}
						if(auxtimeBtw[3] != modbusRegister.timeBtw[3]){
    14c2:	2f 81       	ldd	r18, Y+7	; 0x07
    14c4:	38 85       	ldd	r19, Y+8	; 0x08
    14c6:	80 91 0c 04 	lds	r24, 0x040C	; 0x80040c <modbusRegister+0xc>
    14ca:	90 91 0d 04 	lds	r25, 0x040D	; 0x80040d <modbusRegister+0xd>
    14ce:	28 17       	cp	r18, r24
    14d0:	39 07       	cpc	r19, r25
    14d2:	e1 f0       	breq	.+56     	; 0x150c <main+0x45c>
							//cargar eeprom
							myWord.ui16[0]=modbusRegister.timeBtw[3];
    14d4:	0f 2e       	mov	r0, r31
    14d6:	f0 e6       	ldi	r31, 0x60	; 96
    14d8:	ef 2e       	mov	r14, r31
    14da:	f2 e0       	ldi	r31, 0x02	; 2
    14dc:	ff 2e       	mov	r15, r31
    14de:	f0 2d       	mov	r31, r0
    14e0:	d7 01       	movw	r26, r14
    14e2:	11 96       	adiw	r26, 0x01	; 1
    14e4:	9c 93       	st	X, r25
    14e6:	8e 93       	st	-X, r24
							EEPROM_Write(TIMEBTW3_HIGH_EEPROM_ADDRESS,myWord.ui8[1]);
    14e8:	11 96       	adiw	r26, 0x01	; 1
    14ea:	6c 91       	ld	r22, X
    14ec:	8b e0       	ldi	r24, 0x0B	; 11
    14ee:	90 e0       	ldi	r25, 0x00	; 0
    14f0:	0e 94 0c 01 	call	0x218	; 0x218 <EEPROM_Write>
							EEPROM_Write(TIMEBTW3_LOW_EEPROM_ADDRESS,myWord.ui8[0]);
    14f4:	f7 01       	movw	r30, r14
    14f6:	60 81       	ld	r22, Z
    14f8:	8a e0       	ldi	r24, 0x0A	; 10
    14fa:	90 e0       	ldi	r25, 0x00	; 0
    14fc:	0e 94 0c 01 	call	0x218	; 0x218 <EEPROM_Write>
							auxtimeBtw[3] = modbusRegister.timeBtw[3];
    1500:	80 91 0c 04 	lds	r24, 0x040C	; 0x80040c <modbusRegister+0xc>
    1504:	90 91 0d 04 	lds	r25, 0x040D	; 0x80040d <modbusRegister+0xd>
    1508:	98 87       	std	Y+8, r25	; 0x08
    150a:	8f 83       	std	Y+7, r24	; 0x07
						}
				USART0_Deinitialize();
    150c:	0e 94 c6 0b 	call	0x178c	; 0x178c <USART0_Deinitialize>
				USART0_Initialize(modbusRegister.brConfig,modbusRegister.parity);
    1510:	e0 e0       	ldi	r30, 0x00	; 0
    1512:	f4 e0       	ldi	r31, 0x04	; 4
    1514:	65 81       	ldd	r22, Z+5	; 0x05
    1516:	84 81       	ldd	r24, Z+4	; 0x04
    1518:	0e 94 f8 0b 	call	0x17f0	; 0x17f0 <USART0_Initialize>
				commFlags.iFlags.restartComms = 0;
    151c:	80 91 5d 02 	lds	r24, 0x025D	; 0x80025d <commFlags>
    1520:	8f 7b       	andi	r24, 0xBF	; 191
    1522:	80 93 5d 02 	sts	0x025D, r24	; 0x80025d <commFlags>
			}
			
	//---------------------------- PROGRAMA LEDS---------------------------------------------
		
		if(commFlags.iFlags.isEvent1){
    1526:	80 91 5d 02 	lds	r24, 0x025D	; 0x80025d <commFlags>
    152a:	80 ff       	sbrs	r24, 0
    152c:	04 c0       	rjmp	.+8      	; 0x1536 <main+0x486>
			//deshabilitar interrupcion
			TC0_Disable_CompareA_Interrupt();
    152e:	0e 94 d5 0a 	call	0x15aa	; 0x15aa <TC0_Disable_CompareA_Interrupt>
			RegInput();
    1532:	0e 94 09 02 	call	0x412	; 0x412 <RegInput>
		//1ra vez leer variables de eprom y cargar modbus registers y aux value tmb
		//Faltaria declarar las variables en la eeprom
		

		
		PORTB = ((outValues << 1) & MASK_PORTB) | hbState ; 
    1536:	80 91 04 01 	lds	r24, 0x0104	; 0x800104 <outValues>
    153a:	90 e0       	ldi	r25, 0x00	; 0
    153c:	88 0f       	add	r24, r24
    153e:	99 1f       	adc	r25, r25
    1540:	8e 71       	andi	r24, 0x1E	; 30
    1542:	81 2b       	or	r24, r17
    1544:	85 b9       	out	0x05, r24	; 5

	}
    1546:	e2 ce       	rjmp	.-572    	; 0x130c <main+0x25c>

00001548 <CPU_Initialize>:
#include <avr/io.h>
#include "../cpu.h"

void CPU_Initialize (void)
{
    PRR = (0 << PRADC)   // PRADC disabled
    1548:	10 92 64 00 	sts	0x0064, r1	; 0x800064 <__TEXT_REGION_LENGTH__+0x7f8064>
            | (0 << PRTIM0)   // PRTIM0 disabled
            | (0 << PRTIM1)   // PRTIM1 disabled
            | (0 << PRTIM2)   // PRTIM2 disabled
            | (0 << PRTWI)   // PRTWI disabled
            | (0 << PRUSART0);   // PRUSART0 disabled
    CLKPR = (0 << CLKPCE)   // CLKPCE disabled
    154c:	10 92 61 00 	sts	0x0061, r1	; 0x800061 <__TEXT_REGION_LENGTH__+0x7f8061>
            | (0 << CLKPS0);   // CLKPS 1
    SMCR = (0 << SE)   // SE disabled
    1550:	13 be       	out	0x33, r1	; 51
            | (0 << SM0);   // SM IDLE
    MCUCR = (0 << BODS)   // BODS disabled
    1552:	15 be       	out	0x35, r1	; 53
    1554:	08 95       	ret

00001556 <CPUINT_Initialize>:
#include "../cpuint.h"

int8_t CPUINT_Initialize(void) 
{
    //IVCE disabled; IVSEL disabled; 
    MCUCR = 0x0;
    1556:	15 be       	out	0x35, r1	; 53
    
    //I disabled; 
    SREG = 0x0;
    1558:	1f be       	out	0x3f, r1	; 63

    return 0;
    155a:	80 e0       	ldi	r24, 0x00	; 0
    155c:	08 95       	ret

0000155e <PIN_MANAGER_Initialize>:
#include "../pins.h"

void PIN_MANAGER_Initialize()
{
  /* DIR Registers Initialization */
    DDRB = 0x3F;
    155e:	8f e3       	ldi	r24, 0x3F	; 63
    1560:	84 b9       	out	0x04, r24	; 4
    DDRC = 0x0;
    1562:	17 b8       	out	0x07, r1	; 7
    DDRD = 0x16;
    1564:	86 e1       	ldi	r24, 0x16	; 22
    1566:	8a b9       	out	0x0a, r24	; 10

  /* PORTx Registers Initialization */
    PORTB = 0x0;
    1568:	15 b8       	out	0x05, r1	; 5
    PORTC = 0x0;
    156a:	18 b8       	out	0x08, r1	; 8
    PORTD = 0x0;
    156c:	1b b8       	out	0x0b, r1	; 11

  /* PINx registers Initialization */
    PINB = 0x0;
    156e:	13 b8       	out	0x03, r1	; 3
    PINC = 0x0;
    1570:	16 b8       	out	0x06, r1	; 6
    PIND = 0x0;
    1572:	19 b8       	out	0x09, r1	; 9
    1574:	08 95       	ret

00001576 <SYSTEM_Initialize>:



void SYSTEM_Initialize(void)
{
    CPU_Initialize();
    1576:	0e 94 a4 0a 	call	0x1548	; 0x1548 <CPU_Initialize>
    PIN_MANAGER_Initialize();
    157a:	0e 94 af 0a 	call	0x155e	; 0x155e <PIN_MANAGER_Initialize>
    CPUINT_Initialize();
    157e:	0e 94 ab 0a 	call	0x1556	; 0x1556 <CPUINT_Initialize>
    1582:	08 95       	ret

00001584 <TC0_Initialize>:
}

uint8_t TC0_ReadTimer(void)
{
    return TCNT0;
}
    1584:	8b e9       	ldi	r24, 0x9B	; 155
    1586:	87 bd       	out	0x27, r24	; 39
    1588:	18 bc       	out	0x28, r1	; 40
    158a:	16 bc       	out	0x26, r1	; 38
    158c:	13 bc       	out	0x23, r1	; 35
    158e:	82 e0       	ldi	r24, 0x02	; 2
    1590:	84 bd       	out	0x24, r24	; 36
    1592:	95 e0       	ldi	r25, 0x05	; 5
    1594:	95 bd       	out	0x25, r25	; 37
    1596:	80 93 6e 00 	sts	0x006E, r24	; 0x80006e <__TEXT_REGION_LENGTH__+0x7f806e>
    159a:	80 e0       	ldi	r24, 0x00	; 0
    159c:	08 95       	ret

0000159e <TC0_Enable_CompareA_Interrupt>:
    159e:	ee e6       	ldi	r30, 0x6E	; 110
    15a0:	f0 e0       	ldi	r31, 0x00	; 0
    15a2:	80 81       	ld	r24, Z
    15a4:	82 60       	ori	r24, 0x02	; 2
    15a6:	80 83       	st	Z, r24
    15a8:	08 95       	ret

000015aa <TC0_Disable_CompareA_Interrupt>:
    15aa:	ee e6       	ldi	r30, 0x6E	; 110
    15ac:	f0 e0       	ldi	r31, 0x00	; 0
    15ae:	80 81       	ld	r24, Z
    15b0:	82 70       	andi	r24, 0x02	; 2
    15b2:	80 83       	st	Z, r24
    15b4:	08 95       	ret

000015b6 <TMR0_SetHandler>:

void TMR0_SetHandler(void (*interruptHandler)(void)){
	TMR0Handler = interruptHandler;
    15b6:	90 93 14 01 	sts	0x0114, r25	; 0x800114 <TMR0Handler+0x1>
    15ba:	80 93 13 01 	sts	0x0113, r24	; 0x800113 <TMR0Handler>
    15be:	08 95       	ret

000015c0 <__vector_14>:
}

ISR(TIMER0_COMPA_vect)
{
    15c0:	1f 92       	push	r1
    15c2:	0f 92       	push	r0
    15c4:	0f b6       	in	r0, 0x3f	; 63
    15c6:	0f 92       	push	r0
    15c8:	11 24       	eor	r1, r1
    15ca:	2f 93       	push	r18
    15cc:	3f 93       	push	r19
    15ce:	4f 93       	push	r20
    15d0:	5f 93       	push	r21
    15d2:	6f 93       	push	r22
    15d4:	7f 93       	push	r23
    15d6:	8f 93       	push	r24
    15d8:	9f 93       	push	r25
    15da:	af 93       	push	r26
    15dc:	bf 93       	push	r27
    15de:	ef 93       	push	r30
    15e0:	ff 93       	push	r31
    //clears the Compare A interrupt flag
    TIFR0 = OCF0A;
    15e2:	81 e0       	ldi	r24, 0x01	; 1
    15e4:	85 bb       	out	0x15, r24	; 21
	
	// Si el puntero no es nulo, ejecuta la función asignada
	if(TMR0Handler != NULL){
    15e6:	e0 91 13 01 	lds	r30, 0x0113	; 0x800113 <TMR0Handler>
    15ea:	f0 91 14 01 	lds	r31, 0x0114	; 0x800114 <TMR0Handler+0x1>
    15ee:	30 97       	sbiw	r30, 0x00	; 0
    15f0:	09 f0       	breq	.+2      	; 0x15f4 <__vector_14+0x34>
		TMR0Handler();
    15f2:	09 95       	icall
	}
    /* Insert your Compare A interrupt handling code here */
    
}
    15f4:	ff 91       	pop	r31
    15f6:	ef 91       	pop	r30
    15f8:	bf 91       	pop	r27
    15fa:	af 91       	pop	r26
    15fc:	9f 91       	pop	r25
    15fe:	8f 91       	pop	r24
    1600:	7f 91       	pop	r23
    1602:	6f 91       	pop	r22
    1604:	5f 91       	pop	r21
    1606:	4f 91       	pop	r20
    1608:	3f 91       	pop	r19
    160a:	2f 91       	pop	r18
    160c:	0f 90       	pop	r0
    160e:	0f be       	out	0x3f, r0	; 63
    1610:	0f 90       	pop	r0
    1612:	1f 90       	pop	r1
    1614:	18 95       	reti

00001616 <TC1_Initialize>:
}

uint16_t TC1_ReadTimer(void)
{
    return TCNT1;
}
    1616:	8f e9       	ldi	r24, 0x9F	; 159
    1618:	90 e0       	ldi	r25, 0x00	; 0
    161a:	90 93 89 00 	sts	0x0089, r25	; 0x800089 <__TEXT_REGION_LENGTH__+0x7f8089>
    161e:	80 93 88 00 	sts	0x0088, r24	; 0x800088 <__TEXT_REGION_LENGTH__+0x7f8088>
    1622:	81 e0       	ldi	r24, 0x01	; 1
    1624:	90 e0       	ldi	r25, 0x00	; 0
    1626:	90 93 8b 00 	sts	0x008B, r25	; 0x80008b <__TEXT_REGION_LENGTH__+0x7f808b>
    162a:	80 93 8a 00 	sts	0x008A, r24	; 0x80008a <__TEXT_REGION_LENGTH__+0x7f808a>
    162e:	10 92 87 00 	sts	0x0087, r1	; 0x800087 <__TEXT_REGION_LENGTH__+0x7f8087>
    1632:	10 92 86 00 	sts	0x0086, r1	; 0x800086 <__TEXT_REGION_LENGTH__+0x7f8086>
    1636:	10 92 85 00 	sts	0x0085, r1	; 0x800085 <__TEXT_REGION_LENGTH__+0x7f8085>
    163a:	10 92 84 00 	sts	0x0084, r1	; 0x800084 <__TEXT_REGION_LENGTH__+0x7f8084>
    163e:	13 bc       	out	0x23, r1	; 35
    1640:	10 92 80 00 	sts	0x0080, r1	; 0x800080 <__TEXT_REGION_LENGTH__+0x7f8080>
    1644:	89 e0       	ldi	r24, 0x09	; 9
    1646:	80 93 81 00 	sts	0x0081, r24	; 0x800081 <__TEXT_REGION_LENGTH__+0x7f8081>
    164a:	10 92 82 00 	sts	0x0082, r1	; 0x800082 <__TEXT_REGION_LENGTH__+0x7f8082>
    164e:	82 e0       	ldi	r24, 0x02	; 2
    1650:	80 93 6f 00 	sts	0x006F, r24	; 0x80006f <__TEXT_REGION_LENGTH__+0x7f806f>
    1654:	80 e0       	ldi	r24, 0x00	; 0
    1656:	08 95       	ret

00001658 <__vector_12>:


ISR(TIMER1_COMPB_vect)
{
    1658:	1f 92       	push	r1
    165a:	0f 92       	push	r0
    165c:	0f b6       	in	r0, 0x3f	; 63
    165e:	0f 92       	push	r0
    1660:	11 24       	eor	r1, r1
    1662:	8f 93       	push	r24
    //clears the Compare B interrupt flag
    TIFR1 = OCF1B;
    1664:	82 e0       	ldi	r24, 0x02	; 2
    1666:	86 bb       	out	0x16, r24	; 22

    /* Insert your Compare B interrupt handling code here */
    
}
    1668:	8f 91       	pop	r24
    166a:	0f 90       	pop	r0
    166c:	0f be       	out	0x3f, r0	; 63
    166e:	0f 90       	pop	r0
    1670:	1f 90       	pop	r1
    1672:	18 95       	reti

00001674 <__vector_13>:

ISR(TIMER1_OVF_vect)
{
    1674:	1f 92       	push	r1
    1676:	0f 92       	push	r0
    1678:	0f b6       	in	r0, 0x3f	; 63
    167a:	0f 92       	push	r0
    167c:	11 24       	eor	r1, r1
    //clears the Overflow interrupt flag
    TIFR1 = TOV1;
    167e:	16 ba       	out	0x16, r1	; 22

    /* Insert your Overflow interrupt handling code here */
    
}
    1680:	0f 90       	pop	r0
    1682:	0f be       	out	0x3f, r0	; 63
    1684:	0f 90       	pop	r0
    1686:	1f 90       	pop	r1
    1688:	18 95       	reti

0000168a <__vector_10>:

ISR(TIMER1_CAPT_vect)
{
    168a:	1f 92       	push	r1
    168c:	0f 92       	push	r0
    168e:	0f b6       	in	r0, 0x3f	; 63
    1690:	0f 92       	push	r0
    1692:	11 24       	eor	r1, r1
    1694:	8f 93       	push	r24
    //clears the Overflow interrupt flag
    TIFR1 = ICF1;
    1696:	85 e0       	ldi	r24, 0x05	; 5
    1698:	86 bb       	out	0x16, r24	; 22

    /* Insert your Overflow interrupt handling code here */
    
}
    169a:	8f 91       	pop	r24
    169c:	0f 90       	pop	r0
    169e:	0f be       	out	0x3f, r0	; 63
    16a0:	0f 90       	pop	r0
    16a2:	1f 90       	pop	r1
    16a4:	18 95       	reti

000016a6 <TMR1_SetHandler>:


void TMR1_SetHandler(void (*interruptHandler)(void)){
	TMR1Handler = interruptHandler;
    16a6:	90 93 16 01 	sts	0x0116, r25	; 0x800116 <TMR1Handler+0x1>
    16aa:	80 93 15 01 	sts	0x0115, r24	; 0x800115 <TMR1Handler>
    16ae:	08 95       	ret

000016b0 <__vector_11>:
}

ISR(TIMER1_COMPA_vect)
{
    16b0:	1f 92       	push	r1
    16b2:	0f 92       	push	r0
    16b4:	0f b6       	in	r0, 0x3f	; 63
    16b6:	0f 92       	push	r0
    16b8:	11 24       	eor	r1, r1
    16ba:	2f 93       	push	r18
    16bc:	3f 93       	push	r19
    16be:	4f 93       	push	r20
    16c0:	5f 93       	push	r21
    16c2:	6f 93       	push	r22
    16c4:	7f 93       	push	r23
    16c6:	8f 93       	push	r24
    16c8:	9f 93       	push	r25
    16ca:	af 93       	push	r26
    16cc:	bf 93       	push	r27
    16ce:	ef 93       	push	r30
    16d0:	ff 93       	push	r31
	//clears the Compare A interrupt flag
	TIFR1 = OCF1A;
    16d2:	81 e0       	ldi	r24, 0x01	; 1
    16d4:	86 bb       	out	0x16, r24	; 22
	
	// Si el puntero no es nulo, ejecuta la función asignada
	if(TMR1Handler != NULL){
    16d6:	e0 91 15 01 	lds	r30, 0x0115	; 0x800115 <TMR1Handler>
    16da:	f0 91 16 01 	lds	r31, 0x0116	; 0x800116 <TMR1Handler+0x1>
    16de:	30 97       	sbiw	r30, 0x00	; 0
    16e0:	09 f0       	breq	.+2      	; 0x16e4 <__vector_11+0x34>
		TMR1Handler();
    16e2:	09 95       	icall
	}
	/* Insert your Compare A interrupt handling code here */
	
    16e4:	ff 91       	pop	r31
    16e6:	ef 91       	pop	r30
    16e8:	bf 91       	pop	r27
    16ea:	af 91       	pop	r26
    16ec:	9f 91       	pop	r25
    16ee:	8f 91       	pop	r24
    16f0:	7f 91       	pop	r23
    16f2:	6f 91       	pop	r22
    16f4:	5f 91       	pop	r21
    16f6:	4f 91       	pop	r20
    16f8:	3f 91       	pop	r19
    16fa:	2f 91       	pop	r18
    16fc:	0f 90       	pop	r0
    16fe:	0f be       	out	0x3f, r0	; 63
    1700:	0f 90       	pop	r0
    1702:	1f 90       	pop	r1
    1704:	18 95       	reti

00001706 <TC2_Initialize>:
}

uint8_t TC2_ReadTimer(void)
{
    return TCNT2;
}
    1706:	87 e6       	ldi	r24, 0x67	; 103
    1708:	80 93 b3 00 	sts	0x00B3, r24	; 0x8000b3 <__TEXT_REGION_LENGTH__+0x7f80b3>
    170c:	10 92 b4 00 	sts	0x00B4, r1	; 0x8000b4 <__TEXT_REGION_LENGTH__+0x7f80b4>
    1710:	10 92 b2 00 	sts	0x00B2, r1	; 0x8000b2 <__TEXT_REGION_LENGTH__+0x7f80b2>
    1714:	13 bc       	out	0x23, r1	; 35
    1716:	82 e0       	ldi	r24, 0x02	; 2
    1718:	80 93 b0 00 	sts	0x00B0, r24	; 0x8000b0 <__TEXT_REGION_LENGTH__+0x7f80b0>
    171c:	80 93 b1 00 	sts	0x00B1, r24	; 0x8000b1 <__TEXT_REGION_LENGTH__+0x7f80b1>
    1720:	80 93 70 00 	sts	0x0070, r24	; 0x800070 <__TEXT_REGION_LENGTH__+0x7f8070>
    1724:	10 92 b6 00 	sts	0x00B6, r1	; 0x8000b6 <__TEXT_REGION_LENGTH__+0x7f80b6>
    1728:	80 e0       	ldi	r24, 0x00	; 0
    172a:	08 95       	ret

0000172c <TMR2_SetHandler>:

void TMR2_SetHandler(void (*interruptHandler)(void)){
	TMR2Handler = interruptHandler;
    172c:	90 93 18 01 	sts	0x0118, r25	; 0x800118 <TMR2Handler+0x1>
    1730:	80 93 17 01 	sts	0x0117, r24	; 0x800117 <TMR2Handler>
    1734:	08 95       	ret

00001736 <__vector_7>:
}

ISR(TIMER2_COMPA_vect)
{
    1736:	1f 92       	push	r1
    1738:	0f 92       	push	r0
    173a:	0f b6       	in	r0, 0x3f	; 63
    173c:	0f 92       	push	r0
    173e:	11 24       	eor	r1, r1
    1740:	2f 93       	push	r18
    1742:	3f 93       	push	r19
    1744:	4f 93       	push	r20
    1746:	5f 93       	push	r21
    1748:	6f 93       	push	r22
    174a:	7f 93       	push	r23
    174c:	8f 93       	push	r24
    174e:	9f 93       	push	r25
    1750:	af 93       	push	r26
    1752:	bf 93       	push	r27
    1754:	ef 93       	push	r30
    1756:	ff 93       	push	r31
    //clears the Compare A interrupt flag
    TIFR2 = OCF2A;
    1758:	81 e0       	ldi	r24, 0x01	; 1
    175a:	87 bb       	out	0x17, r24	; 23

	if(TMR2Handler != NULL){
    175c:	e0 91 17 01 	lds	r30, 0x0117	; 0x800117 <TMR2Handler>
    1760:	f0 91 18 01 	lds	r31, 0x0118	; 0x800118 <TMR2Handler+0x1>
    1764:	30 97       	sbiw	r30, 0x00	; 0
    1766:	09 f0       	breq	.+2      	; 0x176a <__vector_7+0x34>
		TMR2Handler();
    1768:	09 95       	icall
	}

    /* Insert your Compare A interrupt handling code here */
    
}
    176a:	ff 91       	pop	r31
    176c:	ef 91       	pop	r30
    176e:	bf 91       	pop	r27
    1770:	af 91       	pop	r26
    1772:	9f 91       	pop	r25
    1774:	8f 91       	pop	r24
    1776:	7f 91       	pop	r23
    1778:	6f 91       	pop	r22
    177a:	5f 91       	pop	r21
    177c:	4f 91       	pop	r20
    177e:	3f 91       	pop	r19
    1780:	2f 91       	pop	r18
    1782:	0f 90       	pop	r0
    1784:	0f be       	out	0x3f, r0	; 63
    1786:	0f 90       	pop	r0
    1788:	1f 90       	pop	r1
    178a:	18 95       	reti

0000178c <USART0_Deinitialize>:
}

uint8_t USART0_Read(void)
{
    return UDR0;
}
    178c:	10 92 c5 00 	sts	0x00C5, r1	; 0x8000c5 <__TEXT_REGION_LENGTH__+0x7f80c5>
    1790:	10 92 c4 00 	sts	0x00C4, r1	; 0x8000c4 <__TEXT_REGION_LENGTH__+0x7f80c4>
    1794:	10 92 c0 00 	sts	0x00C0, r1	; 0x8000c0 <__TEXT_REGION_LENGTH__+0x7f80c0>
    1798:	10 92 c1 00 	sts	0x00C1, r1	; 0x8000c1 <__TEXT_REGION_LENGTH__+0x7f80c1>
    179c:	10 92 c2 00 	sts	0x00C2, r1	; 0x8000c2 <__TEXT_REGION_LENGTH__+0x7f80c2>
    17a0:	08 95       	ret

000017a2 <USART0_IsTxReady>:
    17a2:	80 91 c0 00 	lds	r24, 0x00C0	; 0x8000c0 <__TEXT_REGION_LENGTH__+0x7f80c0>
    17a6:	85 fb       	bst	r24, 5
    17a8:	88 27       	eor	r24, r24
    17aa:	80 f9       	bld	r24, 0
    17ac:	08 95       	ret

000017ae <USART0_IsTxDone>:
    17ae:	80 91 c0 00 	lds	r24, 0x00C0	; 0x8000c0 <__TEXT_REGION_LENGTH__+0x7f80c0>
    17b2:	86 fb       	bst	r24, 6
    17b4:	88 27       	eor	r24, r24
    17b6:	80 f9       	bld	r24, 0
    17b8:	08 95       	ret

000017ba <USART0_Write>:


void USART0_Write(uint8_t txData)
{
    UDR0 = txData;    // Write the data byte to the USART.
    17ba:	80 93 c6 00 	sts	0x00C6, r24	; 0x8000c6 <__TEXT_REGION_LENGTH__+0x7f80c6>
    17be:	08 95       	ret

000017c0 <USART0_DefaultFramingErrorCallback>:
}
static void USART0_DefaultFramingErrorCallback(void)
{
    17c0:	08 95       	ret

000017c2 <USART0_DefaultOverrunErrorCallback>:
    
}

static void USART0_DefaultOverrunErrorCallback(void)
{
    17c2:	08 95       	ret

000017c4 <USART0_DefaultParityErrorCallback>:
    
}

static void USART0_DefaultParityErrorCallback(void)
{
    17c4:	08 95       	ret

000017c6 <USART0_FramingErrorCallbackRegister>:
}

/* cppcheck-suppress misra-c2012-8.7 */
void USART0_FramingErrorCallbackRegister(void (* callbackHandler)(void))
{
    if(NULL != callbackHandler)
    17c6:	00 97       	sbiw	r24, 0x00	; 0
    17c8:	21 f0       	breq	.+8      	; 0x17d2 <USART0_FramingErrorCallbackRegister+0xc>
    {
        USART0_FramingErrorHandler = callbackHandler;
    17ca:	90 93 1e 01 	sts	0x011E, r25	; 0x80011e <USART0_FramingErrorHandler+0x1>
    17ce:	80 93 1d 01 	sts	0x011D, r24	; 0x80011d <USART0_FramingErrorHandler>
    17d2:	08 95       	ret

000017d4 <USART0_OverrunErrorCallbackRegister>:
}

/* cppcheck-suppress misra-c2012-8.7 */
void USART0_OverrunErrorCallbackRegister(void (* callbackHandler)(void))
{
    if(NULL != callbackHandler)
    17d4:	00 97       	sbiw	r24, 0x00	; 0
    17d6:	21 f0       	breq	.+8      	; 0x17e0 <USART0_OverrunErrorCallbackRegister+0xc>
    {
        USART0_OverrunErrorHandler = callbackHandler;
    17d8:	90 93 1c 01 	sts	0x011C, r25	; 0x80011c <USART0_OverrunErrorHandler+0x1>
    17dc:	80 93 1b 01 	sts	0x011B, r24	; 0x80011b <USART0_OverrunErrorHandler>
    17e0:	08 95       	ret

000017e2 <USART0_ParityErrorCallbackRegister>:
}

/* cppcheck-suppress misra-c2012-8.7 */
void USART0_ParityErrorCallbackRegister(void (* callbackHandler)(void))
{
    if(NULL != callbackHandler)
    17e2:	00 97       	sbiw	r24, 0x00	; 0
    17e4:	21 f0       	breq	.+8      	; 0x17ee <USART0_ParityErrorCallbackRegister+0xc>
    {
        USART0_ParityErrorHandler = callbackHandler;
    17e6:	90 93 1a 01 	sts	0x011A, r25	; 0x80011a <USART0_ParityErrorHandler+0x1>
    17ea:	80 93 19 01 	sts	0x0119, r24	; 0x800119 <USART0_ParityErrorHandler>
    17ee:	08 95       	ret

000017f0 <USART0_Initialize>:
*/

void USART0_Initialize(uint8_t baudRate, uint8_t parity)
{
    // Set the USART0 module to the options selected in the user interface.
	if(baudRate == 1){ //19200bps
    17f0:	81 30       	cpi	r24, 0x01	; 1
    17f2:	39 f4       	brne	.+14     	; 0x1802 <USART0_Initialize+0x12>
		//UBRR0 103;
		UBRR0 = 0x67;
    17f4:	87 e6       	ldi	r24, 0x67	; 103
    17f6:	90 e0       	ldi	r25, 0x00	; 0
    17f8:	90 93 c5 00 	sts	0x00C5, r25	; 0x8000c5 <__TEXT_REGION_LENGTH__+0x7f80c5>
    17fc:	80 93 c4 00 	sts	0x00C4, r24	; 0x8000c4 <__TEXT_REGION_LENGTH__+0x7f80c4>
    1800:	06 c0       	rjmp	.+12     	; 0x180e <USART0_Initialize+0x1e>
	}else{ //9600bps
		//UBRR0 207;
		UBRR0 = 0xCF;
    1802:	8f ec       	ldi	r24, 0xCF	; 207
    1804:	90 e0       	ldi	r25, 0x00	; 0
    1806:	90 93 c5 00 	sts	0x00C5, r25	; 0x8000c5 <__TEXT_REGION_LENGTH__+0x7f80c5>
    180a:	80 93 c4 00 	sts	0x00C4, r24	; 0x8000c4 <__TEXT_REGION_LENGTH__+0x7f80c4>
	}
	
    //MPCM0 disabled; TXC0 disabled; U2X0 enabled; 
    UCSR0A = 0x2;
    180e:	82 e0       	ldi	r24, 0x02	; 2
    1810:	80 93 c0 00 	sts	0x00C0, r24	; 0x8000c0 <__TEXT_REGION_LENGTH__+0x7f80c0>

    //RXB80 disabled; RXCIE0 disabled; RXEN0 enabled; TXB80 disabled; TXCIE0 disabled; TXEN0 enabled; UCSZ02 disabled; UDRIE0 disabled; 
    UCSR0B = 0x18;
    1814:	88 e1       	ldi	r24, 0x18	; 24
    1816:	80 93 c1 00 	sts	0x00C1, r24	; 0x8000c1 <__TEXT_REGION_LENGTH__+0x7f80c1>


	if(parity == 1){ //Even
    181a:	61 30       	cpi	r22, 0x01	; 1
    181c:	21 f4       	brne	.+8      	; 0x1826 <USART0_Initialize+0x36>
		UCSR0C = 0x26;
    181e:	86 e2       	ldi	r24, 0x26	; 38
    1820:	80 93 c2 00 	sts	0x00C2, r24	; 0x8000c2 <__TEXT_REGION_LENGTH__+0x7f80c2>
    1824:	03 c0       	rjmp	.+6      	; 0x182c <USART0_Initialize+0x3c>
	}else{ //No Parity
		//UCPOL0 disabled; UCSZ0 3; UMSEL0 Asynchronous Mode; UPM0 Disabled; USBS0 1-bit;
		UCSR0C = 0x6;		
    1826:	86 e0       	ldi	r24, 0x06	; 6
    1828:	80 93 c2 00 	sts	0x00C2, r24	; 0x8000c2 <__TEXT_REGION_LENGTH__+0x7f80c2>
	}



    /* cppcheck-suppress misra-c2012-8.7 */
    USART0_FramingErrorCallbackRegister(USART0_DefaultFramingErrorCallback);
    182c:	80 ee       	ldi	r24, 0xE0	; 224
    182e:	9b e0       	ldi	r25, 0x0B	; 11
    1830:	0e 94 e3 0b 	call	0x17c6	; 0x17c6 <USART0_FramingErrorCallbackRegister>
    /* cppcheck-suppress misra-c2012-8.7 */
    USART0_OverrunErrorCallbackRegister(USART0_DefaultOverrunErrorCallback);
    1834:	81 ee       	ldi	r24, 0xE1	; 225
    1836:	9b e0       	ldi	r25, 0x0B	; 11
    1838:	0e 94 ea 0b 	call	0x17d4	; 0x17d4 <USART0_OverrunErrorCallbackRegister>
    /* cppcheck-suppress misra-c2012-8.7 */
    USART0_ParityErrorCallbackRegister(USART0_DefaultParityErrorCallback);
    183c:	82 ee       	ldi	r24, 0xE2	; 226
    183e:	9b e0       	ldi	r25, 0x0B	; 11
    1840:	0e 94 f1 0b 	call	0x17e2	; 0x17e2 <USART0_ParityErrorCallbackRegister>
    usart0RxLastError.status = 0;  
    1844:	10 92 20 01 	sts	0x0120, r1	; 0x800120 <usart0RxLastError+0x1>
    1848:	10 92 1f 01 	sts	0x011F, r1	; 0x80011f <usart0RxLastError>
    184c:	08 95       	ret

0000184e <USART1_Initialize>:
void USART1_Start_bit_detect_ISR(){
	if(!USART1.iFlags.RXcomplete){ //no hay nada para leer
		if(USART1.iFlags.RXdone){
			UsartRXstates = START;
			tikRX = PERIOD05BR;
			USART1.iFlags.RXdone=0; //BUSY
    184e:	8a b1       	in	r24, 0x0a	; 10
    1850:	80 68       	ori	r24, 0x80	; 128
    1852:	8a b9       	out	0x0a, r24	; 10
    1854:	8a b1       	in	r24, 0x0a	; 10
    1856:	8f 7b       	andi	r24, 0xBF	; 191
    1858:	8a b9       	out	0x0a, r24	; 10
    185a:	8b b1       	in	r24, 0x0b	; 11
    185c:	80 68       	ori	r24, 0x80	; 128
    185e:	8b b9       	out	0x0b, r24	; 11
    1860:	8b b1       	in	r24, 0x0b	; 11
    1862:	80 64       	ori	r24, 0x40	; 64
    1864:	8b b9       	out	0x0b, r24	; 11
    1866:	8b e2       	ldi	r24, 0x2B	; 43
    1868:	80 93 7a 03 	sts	0x037A, r24	; 0x80037a <USART1>
    186c:	e8 e6       	ldi	r30, 0x68	; 104
    186e:	f0 e0       	ldi	r31, 0x00	; 0
    1870:	80 81       	ld	r24, Z
    1872:	84 60       	ori	r24, 0x04	; 4
    1874:	80 83       	st	Z, r24
    1876:	10 92 7b 03 	sts	0x037B, r1	; 0x80037b <UsartTXstates>
    187a:	10 92 78 03 	sts	0x0378, r1	; 0x800378 <UsartRXstates>
    187e:	08 95       	ret

00001880 <USART1_Start_bit_detect>:
	}
}

//copiar funcion de arriba 
void USART1_Start_bit_detect(){
	if(USART1.iFlags.RXdone){
    1880:	80 91 7a 03 	lds	r24, 0x037A	; 0x80037a <USART1>
    1884:	85 ff       	sbrs	r24, 5
    1886:	15 c0       	rjmp	.+42     	; 0x18b2 <USART1_Start_bit_detect+0x32>
		if(!(PCIFR  &  (1 << PCIF2))){
    1888:	da 99       	sbic	0x1b, 2	; 27
    188a:	13 c0       	rjmp	.+38     	; 0x18b2 <USART1_Start_bit_detect+0x32>
			CLEAR_RXPIN_F();
    188c:	8b b3       	in	r24, 0x1b	; 27
    188e:	84 60       	ori	r24, 0x04	; 4
    1890:	8b bb       	out	0x1b, r24	; 27
			if(!(PIND & (1<<VRX))){
    1892:	4e 99       	sbic	0x09, 6	; 9
    1894:	0e c0       	rjmp	.+28     	; 0x18b2 <USART1_Start_bit_detect+0x32>
				if(!USART1.iFlags.RXcomplete){ //no hay nada para leer
    1896:	80 91 7a 03 	lds	r24, 0x037A	; 0x80037a <USART1>
    189a:	88 23       	and	r24, r24
    189c:	54 f0       	brlt	.+20     	; 0x18b2 <USART1_Start_bit_detect+0x32>
					UsartRXstates = START;
    189e:	81 e0       	ldi	r24, 0x01	; 1
    18a0:	80 93 78 03 	sts	0x0378, r24	; 0x800378 <UsartRXstates>
					tikRX = PERIOD05BR;
    18a4:	80 93 79 03 	sts	0x0379, r24	; 0x800379 <tikRX>
					USART1.iFlags.RXdone=0; //BUSY
    18a8:	80 91 7a 03 	lds	r24, 0x037A	; 0x80037a <USART1>
    18ac:	8f 7d       	andi	r24, 0xDF	; 223
    18ae:	80 93 7a 03 	sts	0x037A, r24	; 0x80037a <USART1>
    18b2:	08 95       	ret

000018b4 <USART1_TRANSMIT>:
			}
		}
}

void USART1_TRANSMIT(){
	switch(UsartTXstates){
    18b4:	80 91 7b 03 	lds	r24, 0x037B	; 0x80037b <UsartTXstates>
    18b8:	81 30       	cpi	r24, 0x01	; 1
    18ba:	79 f0       	breq	.+30     	; 0x18da <USART1_TRANSMIT+0x26>
    18bc:	28 f0       	brcs	.+10     	; 0x18c8 <USART1_TRANSMIT+0x14>
    18be:	82 30       	cpi	r24, 0x02	; 2
    18c0:	99 f0       	breq	.+38     	; 0x18e8 <USART1_TRANSMIT+0x34>
    18c2:	83 30       	cpi	r24, 0x03	; 3
    18c4:	79 f1       	breq	.+94     	; 0x1924 <USART1_TRANSMIT+0x70>
    18c6:	34 c0       	rjmp	.+104    	; 0x1930 <USART1_TRANSMIT+0x7c>
		case USARTIDLE:
			USART1.iFlags.TXdone = 1;
    18c8:	80 91 7a 03 	lds	r24, 0x037A	; 0x80037a <USART1>
    18cc:	80 61       	ori	r24, 0x10	; 16
    18ce:	80 93 7a 03 	sts	0x037A, r24	; 0x80037a <USART1>
			TX_HIGH();
    18d2:	8b b1       	in	r24, 0x0b	; 11
    18d4:	80 68       	ori	r24, 0x80	; 128
    18d6:	8b b9       	out	0x0b, r24	; 11
		break;
    18d8:	08 95       	ret
		case START:
			TX_LOW();
    18da:	8b b1       	in	r24, 0x0b	; 11
    18dc:	8f 77       	andi	r24, 0x7F	; 127
    18de:	8b b9       	out	0x0b, r24	; 11
			UsartTXstates = USARTDATA;
    18e0:	82 e0       	ldi	r24, 0x02	; 2
    18e2:	80 93 7b 03 	sts	0x037B, r24	; 0x80037b <UsartTXstates>
		break;
    18e6:	08 95       	ret
		case USARTDATA:
			if(TXreg & (1<<tx_idx)){
    18e8:	80 91 23 01 	lds	r24, 0x0123	; 0x800123 <TXreg>
    18ec:	90 e0       	ldi	r25, 0x00	; 0
    18ee:	00 90 26 01 	lds	r0, 0x0126	; 0x800126 <tx_idx>
    18f2:	02 c0       	rjmp	.+4      	; 0x18f8 <USART1_TRANSMIT+0x44>
    18f4:	95 95       	asr	r25
    18f6:	87 95       	ror	r24
    18f8:	0a 94       	dec	r0
    18fa:	e2 f7       	brpl	.-8      	; 0x18f4 <USART1_TRANSMIT+0x40>
    18fc:	80 ff       	sbrs	r24, 0
    18fe:	04 c0       	rjmp	.+8      	; 0x1908 <USART1_TRANSMIT+0x54>
				TX_HIGH();
    1900:	8b b1       	in	r24, 0x0b	; 11
    1902:	80 68       	ori	r24, 0x80	; 128
    1904:	8b b9       	out	0x0b, r24	; 11
    1906:	03 c0       	rjmp	.+6      	; 0x190e <USART1_TRANSMIT+0x5a>
				}else{
				TX_LOW();
    1908:	8b b1       	in	r24, 0x0b	; 11
    190a:	8f 77       	andi	r24, 0x7F	; 127
    190c:	8b b9       	out	0x0b, r24	; 11
			}
			tx_idx++;
    190e:	80 91 26 01 	lds	r24, 0x0126	; 0x800126 <tx_idx>
    1912:	8f 5f       	subi	r24, 0xFF	; 255
    1914:	80 93 26 01 	sts	0x0126, r24	; 0x800126 <tx_idx>
			if(tx_idx>7){
    1918:	88 30       	cpi	r24, 0x08	; 8
    191a:	60 f0       	brcs	.+24     	; 0x1934 <USART1_TRANSMIT+0x80>
				UsartTXstates = STOP;
    191c:	83 e0       	ldi	r24, 0x03	; 3
    191e:	80 93 7b 03 	sts	0x037B, r24	; 0x80037b <UsartTXstates>
    1922:	08 95       	ret
			}
		break;
		case STOP:
			TX_HIGH();
    1924:	8b b1       	in	r24, 0x0b	; 11
    1926:	80 68       	ori	r24, 0x80	; 128
    1928:	8b b9       	out	0x0b, r24	; 11
			UsartTXstates = USARTIDLE;
    192a:	10 92 7b 03 	sts	0x037B, r1	; 0x80037b <UsartTXstates>
		break;
    192e:	08 95       	ret
		default:
			UsartTXstates = USARTIDLE;
    1930:	10 92 7b 03 	sts	0x037B, r1	; 0x80037b <UsartTXstates>
    1934:	08 95       	ret

00001936 <USART1_RECEIVE>:
		break;
	}
}

void USART1_RECEIVE(){
		switch(UsartRXstates){
    1936:	80 91 78 03 	lds	r24, 0x0378	; 0x800378 <UsartRXstates>
    193a:	81 30       	cpi	r24, 0x01	; 1
    193c:	69 f0       	breq	.+26     	; 0x1958 <USART1_RECEIVE+0x22>
    193e:	30 f0       	brcs	.+12     	; 0x194c <USART1_RECEIVE+0x16>
    1940:	82 30       	cpi	r24, 0x02	; 2
    1942:	d1 f0       	breq	.+52     	; 0x1978 <USART1_RECEIVE+0x42>
    1944:	83 30       	cpi	r24, 0x03	; 3
    1946:	09 f4       	brne	.+2      	; 0x194a <USART1_RECEIVE+0x14>
    1948:	42 c0       	rjmp	.+132    	; 0x19ce <USART1_RECEIVE+0x98>
    194a:	08 95       	ret
			case USARTIDLE:
				USART1.iFlags.RXdone = 1;
    194c:	80 91 7a 03 	lds	r24, 0x037A	; 0x80037a <USART1>
    1950:	80 62       	ori	r24, 0x20	; 32
    1952:	80 93 7a 03 	sts	0x037A, r24	; 0x80037a <USART1>
			
			break;
    1956:	08 95       	ret
			case START:
				if(!(PIND & (1<<VRX))){ //si es 0 es bit start
    1958:	4e 99       	sbic	0x09, 6	; 9
    195a:	06 c0       	rjmp	.+12     	; 0x1968 <USART1_RECEIVE+0x32>
					UsartRXstates = USARTDATA;
    195c:	82 e0       	ldi	r24, 0x02	; 2
    195e:	80 93 78 03 	sts	0x0378, r24	; 0x800378 <UsartRXstates>
					rx_idx  = 0;
    1962:	10 92 25 01 	sts	0x0125, r1	; 0x800125 <rx_idx>
    1966:	08 95       	ret
					}else{
					UsartRXstates = USARTIDLE; //falso bit start
    1968:	10 92 78 03 	sts	0x0378, r1	; 0x800378 <UsartRXstates>
					USART1.iFlags.RXdone = 1;
    196c:	80 91 7a 03 	lds	r24, 0x037A	; 0x80037a <USART1>
    1970:	80 62       	ori	r24, 0x20	; 32
    1972:	80 93 7a 03 	sts	0x037A, r24	; 0x80037a <USART1>
    1976:	08 95       	ret
					#endif
				}

			break;
			case USARTDATA:
				if(PIND & (1<<VRX)){  //HIGH
    1978:	4e 9b       	sbis	0x09, 6	; 9
    197a:	0f c0       	rjmp	.+30     	; 0x199a <USART1_RECEIVE+0x64>
					RXreg |= (1 << rx_idx);
    197c:	81 e0       	ldi	r24, 0x01	; 1
    197e:	90 e0       	ldi	r25, 0x00	; 0
    1980:	00 90 25 01 	lds	r0, 0x0125	; 0x800125 <rx_idx>
    1984:	02 c0       	rjmp	.+4      	; 0x198a <USART1_RECEIVE+0x54>
    1986:	88 0f       	add	r24, r24
    1988:	99 1f       	adc	r25, r25
    198a:	0a 94       	dec	r0
    198c:	e2 f7       	brpl	.-8      	; 0x1986 <USART1_RECEIVE+0x50>
    198e:	90 91 22 01 	lds	r25, 0x0122	; 0x800122 <RXreg>
    1992:	89 2b       	or	r24, r25
    1994:	80 93 22 01 	sts	0x0122, r24	; 0x800122 <RXreg>
    1998:	0f c0       	rjmp	.+30     	; 0x19b8 <USART1_RECEIVE+0x82>
					}else{				//LOW
					RXreg &= ~(1 << rx_idx);;
    199a:	81 e0       	ldi	r24, 0x01	; 1
    199c:	90 e0       	ldi	r25, 0x00	; 0
    199e:	00 90 25 01 	lds	r0, 0x0125	; 0x800125 <rx_idx>
    19a2:	02 c0       	rjmp	.+4      	; 0x19a8 <USART1_RECEIVE+0x72>
    19a4:	88 0f       	add	r24, r24
    19a6:	99 1f       	adc	r25, r25
    19a8:	0a 94       	dec	r0
    19aa:	e2 f7       	brpl	.-8      	; 0x19a4 <USART1_RECEIVE+0x6e>
    19ac:	80 95       	com	r24
    19ae:	90 91 22 01 	lds	r25, 0x0122	; 0x800122 <RXreg>
    19b2:	89 23       	and	r24, r25
    19b4:	80 93 22 01 	sts	0x0122, r24	; 0x800122 <RXreg>
				}
				rx_idx++;
    19b8:	80 91 25 01 	lds	r24, 0x0125	; 0x800125 <rx_idx>
    19bc:	8f 5f       	subi	r24, 0xFF	; 255
    19be:	80 93 25 01 	sts	0x0125, r24	; 0x800125 <rx_idx>
				if(rx_idx>7){
    19c2:	88 30       	cpi	r24, 0x08	; 8
    19c4:	40 f1       	brcs	.+80     	; 0x1a16 <USART1_RECEIVE+0xe0>
					UsartRXstates = STOP;
    19c6:	83 e0       	ldi	r24, 0x03	; 3
    19c8:	80 93 78 03 	sts	0x0378, r24	; 0x800378 <UsartRXstates>
    19cc:	08 95       	ret
				}
			break;
			case STOP:
				if(PIND & (1<<VRX)){ //stop
    19ce:	4e 9b       	sbis	0x09, 6	; 9
    19d0:	14 c0       	rjmp	.+40     	; 0x19fa <USART1_RECEIVE+0xc4>
					USART1.iFlags.RXcomplete = 1;
    19d2:	80 91 7a 03 	lds	r24, 0x037A	; 0x80037a <USART1>
    19d6:	80 68       	ori	r24, 0x80	; 128
    19d8:	80 93 7a 03 	sts	0x037A, r24	; 0x80037a <USART1>
					if(!USART1.iFlags.TXready){
    19dc:	83 fd       	sbrc	r24, 3
    19de:	14 c0       	rjmp	.+40     	; 0x1a08 <USART1_RECEIVE+0xd2>
						RXdata  = RXreg;
    19e0:	80 91 22 01 	lds	r24, 0x0122	; 0x800122 <RXreg>
    19e4:	80 93 21 01 	sts	0x0121, r24	; 0x800121 <RXdata>
						RXreg = 0;
    19e8:	10 92 22 01 	sts	0x0122, r1	; 0x800122 <RXreg>
						USART1.iFlags.RXready = 1;
    19ec:	80 91 7a 03 	lds	r24, 0x037A	; 0x80037a <USART1>
						USART1.iFlags.RXcomplete = 0;
    19f0:	84 60       	ori	r24, 0x04	; 4
    19f2:	8f 77       	andi	r24, 0x7F	; 127
    19f4:	80 93 7a 03 	sts	0x037A, r24	; 0x80037a <USART1>
    19f8:	07 c0       	rjmp	.+14     	; 0x1a08 <USART1_RECEIVE+0xd2>
					}
				}else{
					//no se recibio nada descarto dato
					USART1.iFlags.RXcomplete = 0;
    19fa:	80 91 7a 03 	lds	r24, 0x037A	; 0x80037a <USART1>
    19fe:	8f 77       	andi	r24, 0x7F	; 127
    1a00:	80 93 7a 03 	sts	0x037A, r24	; 0x80037a <USART1>
					RXreg = 0;
    1a04:	10 92 22 01 	sts	0x0122, r1	; 0x800122 <RXreg>
				}
				USART1.iFlags.RXdone=1;
    1a08:	80 91 7a 03 	lds	r24, 0x037A	; 0x80037a <USART1>
    1a0c:	80 62       	ori	r24, 0x20	; 32
    1a0e:	80 93 7a 03 	sts	0x037A, r24	; 0x80037a <USART1>
				UsartRXstates = USARTIDLE;
    1a12:	10 92 78 03 	sts	0x0378, r1	; 0x800378 <UsartRXstates>
    1a16:	08 95       	ret

00001a18 <USART1_SendByte>:
			break;
		}
}

void USART1_SendByte(){
	TXreg  = TXdata;
    1a18:	80 91 24 01 	lds	r24, 0x0124	; 0x800124 <TXdata>
    1a1c:	80 93 23 01 	sts	0x0123, r24	; 0x800123 <TXreg>
	TXdata = 0;
    1a20:	10 92 24 01 	sts	0x0124, r1	; 0x800124 <TXdata>
	tx_idx  = 0;
    1a24:	10 92 26 01 	sts	0x0126, r1	; 0x800126 <tx_idx>
	USART1.iFlags.TXready = 1;
    1a28:	80 91 7a 03 	lds	r24, 0x037A	; 0x80037a <USART1>
	USART1.iFlags.TXdone = 0;
    1a2c:	88 60       	ori	r24, 0x08	; 8
    1a2e:	8f 7e       	andi	r24, 0xEF	; 239
    1a30:	80 93 7a 03 	sts	0x037A, r24	; 0x80037a <USART1>
	UsartTXstates = START;
    1a34:	81 e0       	ldi	r24, 0x01	; 1
    1a36:	80 93 7b 03 	sts	0x037B, r24	; 0x80037b <UsartTXstates>
    1a3a:	08 95       	ret

00001a3c <USART1_receiveByte>:
}

void USART1_receiveByte(){
	RXdata  = RXreg;
    1a3c:	80 91 22 01 	lds	r24, 0x0122	; 0x800122 <RXreg>
    1a40:	80 93 21 01 	sts	0x0121, r24	; 0x800121 <RXdata>
	RXreg = 0;
    1a44:	10 92 22 01 	sts	0x0122, r1	; 0x800122 <RXreg>
	USART1.iFlags.RXready = 1;
    1a48:	80 91 7a 03 	lds	r24, 0x037A	; 0x80037a <USART1>
	USART1.iFlags.RXcomplete = 0;
    1a4c:	84 60       	ori	r24, 0x04	; 4
    1a4e:	8f 77       	andi	r24, 0x7F	; 127
    1a50:	80 93 7a 03 	sts	0x037A, r24	; 0x80037a <USART1>
    1a54:	08 95       	ret

00001a56 <USART1_Write>:
}

void USART1_Write(uint8_t b){
	TXdata = b;
    1a56:	80 93 24 01 	sts	0x0124, r24	; 0x800124 <TXdata>
	USART1.iFlags.TXready=0;
    1a5a:	80 91 7a 03 	lds	r24, 0x037A	; 0x80037a <USART1>
    1a5e:	87 7f       	andi	r24, 0xF7	; 247
    1a60:	80 93 7a 03 	sts	0x037A, r24	; 0x80037a <USART1>
    1a64:	08 95       	ret

00001a66 <USART1_Read>:
}

uint8_t USART1_Read(){
	USART1.iFlags.RXready = 0;      // DATO LEIDO
    1a66:	80 91 7a 03 	lds	r24, 0x037A	; 0x80037a <USART1>
    1a6a:	8b 7f       	andi	r24, 0xFB	; 251
    1a6c:	80 93 7a 03 	sts	0x037A, r24	; 0x80037a <USART1>
	return RXdata;
    1a70:	80 91 21 01 	lds	r24, 0x0121	; 0x800121 <RXdata>
    1a74:	08 95       	ret

00001a76 <__tablejump2__>:
    1a76:	ee 0f       	add	r30, r30
    1a78:	ff 1f       	adc	r31, r31
    1a7a:	05 90       	lpm	r0, Z+
    1a7c:	f4 91       	lpm	r31, Z
    1a7e:	e0 2d       	mov	r30, r0
    1a80:	09 94       	ijmp

00001a82 <__umulhisi3>:
    1a82:	a2 9f       	mul	r26, r18
    1a84:	b0 01       	movw	r22, r0
    1a86:	b3 9f       	mul	r27, r19
    1a88:	c0 01       	movw	r24, r0
    1a8a:	a3 9f       	mul	r26, r19
    1a8c:	70 0d       	add	r23, r0
    1a8e:	81 1d       	adc	r24, r1
    1a90:	11 24       	eor	r1, r1
    1a92:	91 1d       	adc	r25, r1
    1a94:	b2 9f       	mul	r27, r18
    1a96:	70 0d       	add	r23, r0
    1a98:	81 1d       	adc	r24, r1
    1a9a:	11 24       	eor	r1, r1
    1a9c:	91 1d       	adc	r25, r1
    1a9e:	08 95       	ret

00001aa0 <_exit>:
    1aa0:	f8 94       	cli

00001aa2 <__stop_program>:
    1aa2:	ff cf       	rjmp	.-2      	; 0x1aa2 <__stop_program>
