
ModuloATMEL.elf:     file format elf32-avr

Sections:
Idx Name          Size      VMA       LMA       File off  Algn
  0 .data         00000000  00800100  00800100  00001d04  2**0
                  CONTENTS, ALLOC, LOAD, DATA
  1 .mySlaveAddress 00000001  008003ff  008003ff  00001bc0  2**0
                  CONTENTS, ALLOC, LOAD, DATA
  2 .modbus_r     00000014  00800400  00800400  00001bc1  2**0
                  CONTENTS, ALLOC, LOAD, DATA
  3 .fixed_events 0000012c  00800772  00800772  00001bd5  2**0
                  CONTENTS, ALLOC, LOAD, DATA
  4 .text         00001aec  00000000  00000000  000000d4  2**1
                  CONTENTS, ALLOC, LOAD, READONLY, CODE
  5 .bss          00000280  00800100  00800100  00001bc0  2**0
                  ALLOC
  6 .fuse         00000003  00820000  00820000  00001d01  2**0
                  CONTENTS, ALLOC, LOAD, DATA
  7 .comment      00000030  00000000  00000000  00001d04  2**0
                  CONTENTS, READONLY
  8 .note.gnu.avr.deviceinfo 00000040  00000000  00000000  00001d34  2**2
                  CONTENTS, READONLY
  9 .debug_aranges 00000428  00000000  00000000  00001d74  2**0
                  CONTENTS, READONLY, DEBUGGING
 10 .debug_info   00002c86  00000000  00000000  0000219c  2**0
                  CONTENTS, READONLY, DEBUGGING
 11 .debug_abbrev 00000f82  00000000  00000000  00004e22  2**0
                  CONTENTS, READONLY, DEBUGGING
 12 .debug_line   00002368  00000000  00000000  00005da4  2**0
                  CONTENTS, READONLY, DEBUGGING
 13 .debug_frame  000008b8  00000000  00000000  0000810c  2**2
                  CONTENTS, READONLY, DEBUGGING
 14 .debug_str    000015a8  00000000  00000000  000089c4  2**0
                  CONTENTS, READONLY, DEBUGGING
 15 .debug_loc    00000bd9  00000000  00000000  00009f6c  2**0
                  CONTENTS, READONLY, DEBUGGING
 16 .debug_ranges 000003a0  00000000  00000000  0000ab45  2**0
                  CONTENTS, READONLY, DEBUGGING

Disassembly of section .text:

00000000 <__vectors>:
       0:	0c 94 3b 00 	jmp	0x76	; 0x76 <__ctors_end>
       4:	0c 94 58 00 	jmp	0xb0	; 0xb0 <__bad_interrupt>
       8:	0c 94 58 00 	jmp	0xb0	; 0xb0 <__bad_interrupt>
       c:	0c 94 58 00 	jmp	0xb0	; 0xb0 <__bad_interrupt>
      10:	0c 94 58 00 	jmp	0xb0	; 0xb0 <__bad_interrupt>
      14:	0c 94 58 00 	jmp	0xb0	; 0xb0 <__bad_interrupt>
      18:	0c 94 58 00 	jmp	0xb0	; 0xb0 <__bad_interrupt>
      1c:	0c 94 c6 0b 	jmp	0x178c	; 0x178c <__vector_7>
      20:	0c 94 58 00 	jmp	0xb0	; 0xb0 <__bad_interrupt>
      24:	0c 94 58 00 	jmp	0xb0	; 0xb0 <__bad_interrupt>
      28:	0c 94 70 0b 	jmp	0x16e0	; 0x16e0 <__vector_10>
      2c:	0c 94 83 0b 	jmp	0x1706	; 0x1706 <__vector_11>
      30:	0c 94 57 0b 	jmp	0x16ae	; 0x16ae <__vector_12>
      34:	0c 94 65 0b 	jmp	0x16ca	; 0x16ca <__vector_13>
      38:	0c 94 0b 0b 	jmp	0x1616	; 0x1616 <__vector_14>
      3c:	0c 94 58 00 	jmp	0xb0	; 0xb0 <__bad_interrupt>
      40:	0c 94 58 00 	jmp	0xb0	; 0xb0 <__bad_interrupt>
      44:	0c 94 58 00 	jmp	0xb0	; 0xb0 <__bad_interrupt>
      48:	0c 94 1f 04 	jmp	0x83e	; 0x83e <__vector_18>
      4c:	0c 94 58 00 	jmp	0xb0	; 0xb0 <__bad_interrupt>
      50:	0c 94 58 00 	jmp	0xb0	; 0xb0 <__bad_interrupt>
      54:	0c 94 58 00 	jmp	0xb0	; 0xb0 <__bad_interrupt>
      58:	0c 94 58 00 	jmp	0xb0	; 0xb0 <__bad_interrupt>
      5c:	0c 94 58 00 	jmp	0xb0	; 0xb0 <__bad_interrupt>
      60:	0c 94 58 00 	jmp	0xb0	; 0xb0 <__bad_interrupt>
      64:	0c 94 58 00 	jmp	0xb0	; 0xb0 <__bad_interrupt>
      68:	79 03       	fmul	r23, r17
      6a:	9e 03       	fmulsu	r17, r22
      6c:	b1 03       	fmuls	r19, r17
      6e:	d3 03       	fmuls	r21, r19
      70:	f5 03       	fmuls	r23, r21
      72:	eb 03       	fmulsu	r22, r19
      74:	11 04       	cpc	r1, r1

00000076 <__ctors_end>:
      76:	11 24       	eor	r1, r1
      78:	1f be       	out	0x3f, r1	; 63
      7a:	cf ef       	ldi	r28, 0xFF	; 255
      7c:	d8 e0       	ldi	r29, 0x08	; 8
      7e:	de bf       	out	0x3e, r29	; 62
      80:	cd bf       	out	0x3d, r28	; 61

00000082 <__do_copy_data>:
      82:	11 e0       	ldi	r17, 0x01	; 1
      84:	a0 e0       	ldi	r26, 0x00	; 0
      86:	b1 e0       	ldi	r27, 0x01	; 1
      88:	ec ee       	ldi	r30, 0xEC	; 236
      8a:	fa e1       	ldi	r31, 0x1A	; 26
      8c:	02 c0       	rjmp	.+4      	; 0x92 <__do_copy_data+0x10>
      8e:	05 90       	lpm	r0, Z+
      90:	0d 92       	st	X+, r0
      92:	a0 30       	cpi	r26, 0x00	; 0
      94:	b1 07       	cpc	r27, r17
      96:	d9 f7       	brne	.-10     	; 0x8e <__do_copy_data+0xc>

00000098 <__do_clear_bss>:
      98:	23 e0       	ldi	r18, 0x03	; 3
      9a:	a0 e0       	ldi	r26, 0x00	; 0
      9c:	b1 e0       	ldi	r27, 0x01	; 1
      9e:	01 c0       	rjmp	.+2      	; 0xa2 <.do_clear_bss_start>

000000a0 <.do_clear_bss_loop>:
      a0:	1d 92       	st	X+, r1

000000a2 <.do_clear_bss_start>:
      a2:	a0 38       	cpi	r26, 0x80	; 128
      a4:	b2 07       	cpc	r27, r18
      a6:	e1 f7       	brne	.-8      	; 0xa0 <.do_clear_bss_loop>
      a8:	0e 94 6a 08 	call	0x10d4	; 0x10d4 <main>
      ac:	0c 94 74 0d 	jmp	0x1ae8	; 0x1ae8 <_exit>

000000b0 <__bad_interrupt>:
      b0:	0c 94 00 00 	jmp	0	; 0x0 <__vectors>

000000b4 <do10us>:
		}
	}
}

void do10us(){
	if(t15Tik){
      b4:	80 91 0a 01 	lds	r24, 0x010A	; 0x80010a <t15Tik>
      b8:	90 91 0b 01 	lds	r25, 0x010B	; 0x80010b <t15Tik+0x1>
      bc:	00 97       	sbiw	r24, 0x00	; 0
      be:	31 f0       	breq	.+12     	; 0xcc <do10us+0x18>
		t15Tik--;
      c0:	01 97       	sbiw	r24, 0x01	; 1
      c2:	90 93 0b 01 	sts	0x010B, r25	; 0x80010b <t15Tik+0x1>
      c6:	80 93 0a 01 	sts	0x010A, r24	; 0x80010a <t15Tik>
      ca:	09 c0       	rjmp	.+18     	; 0xde <do10us+0x2a>
	}else if((decodeState != IDLE) && (decodeState != DISCARD)){
      cc:	80 91 58 01 	lds	r24, 0x0158	; 0x800158 <decodeState>
      d0:	88 23       	and	r24, r24
      d2:	29 f0       	breq	.+10     	; 0xde <do10us+0x2a>
      d4:	86 30       	cpi	r24, 0x06	; 6
      d6:	19 f0       	breq	.+6      	; 0xde <do10us+0x2a>
		decodeState = DISCARD;
      d8:	86 e0       	ldi	r24, 0x06	; 6
      da:	80 93 58 01 	sts	0x0158, r24	; 0x800158 <decodeState>
	}
	if(t35Tik){
      de:	80 91 08 01 	lds	r24, 0x0108	; 0x800108 <t35Tik>
      e2:	90 91 09 01 	lds	r25, 0x0109	; 0x800109 <t35Tik+0x1>
      e6:	00 97       	sbiw	r24, 0x00	; 0
      e8:	31 f0       	breq	.+12     	; 0xf6 <do10us+0x42>
		t35Tik--;
      ea:	01 97       	sbiw	r24, 0x01	; 1
      ec:	90 93 09 01 	sts	0x0109, r25	; 0x800109 <t35Tik+0x1>
      f0:	80 93 08 01 	sts	0x0108, r24	; 0x800108 <t35Tik>
      f4:	06 c0       	rjmp	.+12     	; 0x102 <do10us+0x4e>
	}else{
		decodeState = IDLE;
      f6:	10 92 58 01 	sts	0x0158, r1	; 0x800158 <decodeState>
		indexRxR = indexRxW;
      fa:	80 91 68 02 	lds	r24, 0x0268	; 0x800268 <indexRxW>
      fe:	80 93 64 02 	sts	0x0264, r24	; 0x800264 <indexRxR>
	}
	if(tikResponse){
     102:	80 91 5a 02 	lds	r24, 0x025A	; 0x80025a <tikResponse>
     106:	90 91 5b 02 	lds	r25, 0x025B	; 0x80025b <tikResponse+0x1>
     10a:	00 97       	sbiw	r24, 0x00	; 0
     10c:	29 f0       	breq	.+10     	; 0x118 <do10us+0x64>
		tikResponse--;
     10e:	01 97       	sbiw	r24, 0x01	; 1
     110:	90 93 5b 02 	sts	0x025B, r25	; 0x80025b <tikResponse+0x1>
     114:	80 93 5a 02 	sts	0x025A, r24	; 0x80025a <tikResponse>
     118:	08 95       	ret

0000011a <do10ms>:
	}
}

void do10ms(){
	hbTime--;
     11a:	80 91 01 01 	lds	r24, 0x0101	; 0x800101 <hbTime>
     11e:	81 50       	subi	r24, 0x01	; 1
     120:	80 93 01 01 	sts	0x0101, r24	; 0x800101 <hbTime>
	unixTik--;
     124:	80 91 00 01 	lds	r24, 0x0100	; 0x800100 <__DATA_REGION_ORIGIN__>
     128:	81 50       	subi	r24, 0x01	; 1
     12a:	80 93 00 01 	sts	0x0100, r24	; 0x800100 <__DATA_REGION_ORIGIN__>
	if(!unixTik){
     12e:	81 11       	cpse	r24, r1
     130:	1a c0       	rjmp	.+52     	; 0x166 <do10ms+0x4c>
		if(is500ms){
     132:	80 91 5e 02 	lds	r24, 0x025E	; 0x80025e <is500ms>
     136:	88 23       	and	r24, r24
     138:	81 f0       	breq	.+32     	; 0x15a <do10ms+0x40>
			modbusRegister.unixTime++;				
     13a:	e0 e0       	ldi	r30, 0x00	; 0
     13c:	f4 e0       	ldi	r31, 0x04	; 4
     13e:	80 81       	ld	r24, Z
     140:	91 81       	ldd	r25, Z+1	; 0x01
     142:	a2 81       	ldd	r26, Z+2	; 0x02
     144:	b3 81       	ldd	r27, Z+3	; 0x03
     146:	01 96       	adiw	r24, 0x01	; 1
     148:	a1 1d       	adc	r26, r1
     14a:	b1 1d       	adc	r27, r1
     14c:	80 83       	st	Z, r24
     14e:	91 83       	std	Z+1, r25	; 0x01
     150:	a2 83       	std	Z+2, r26	; 0x02
     152:	b3 83       	std	Z+3, r27	; 0x03
			is500ms = 0;
     154:	10 92 5e 02 	sts	0x025E, r1	; 0x80025e <is500ms>
     158:	03 c0       	rjmp	.+6      	; 0x160 <do10ms+0x46>
		}else{
			is500ms = 1;
     15a:	81 e0       	ldi	r24, 0x01	; 1
     15c:	80 93 5e 02 	sts	0x025E, r24	; 0x80025e <is500ms>
		}
		unixTik = PERIOD500MS;
     160:	82 e3       	ldi	r24, 0x32	; 50
     162:	80 93 00 01 	sts	0x0100, r24	; 0x800100 <__DATA_REGION_ORIGIN__>
	}
	commFlags.iFlags.isEvent1 = 1;
     166:	80 91 59 02 	lds	r24, 0x0259	; 0x800259 <commFlags>
     16a:	81 60       	ori	r24, 0x01	; 1
     16c:	80 93 59 02 	sts	0x0259, r24	; 0x800259 <commFlags>
     170:	08 95       	ret

00000172 <ISRVirtualUsart>:
			USART0_Write(bufferTx[indexTxR++]);
		}
}

void ISRVirtualUsart(){
	tim2Tik--;
     172:	80 91 02 01 	lds	r24, 0x0102	; 0x800102 <tim2Tik>
     176:	90 91 03 01 	lds	r25, 0x0103	; 0x800103 <tim2Tik+0x1>
     17a:	01 97       	sbiw	r24, 0x01	; 1
     17c:	90 93 03 01 	sts	0x0103, r25	; 0x800103 <tim2Tik+0x1>
     180:	80 93 02 01 	sts	0x0102, r24	; 0x800102 <tim2Tik>
	tikRX--;
     184:	80 91 7d 03 	lds	r24, 0x037D	; 0x80037d <tikRX>
     188:	81 50       	subi	r24, 0x01	; 1
     18a:	80 93 7d 03 	sts	0x037D, r24	; 0x80037d <tikRX>
	if(!tikRX){
     18e:	81 11       	cpse	r24, r1
     190:	08 c0       	rjmp	.+16     	; 0x1a2 <ISRVirtualUsart+0x30>
		//FUNCION LECTURA
		tikRX = PERIODBR;
     192:	82 e0       	ldi	r24, 0x02	; 2
     194:	80 93 7d 03 	sts	0x037D, r24	; 0x80037d <tikRX>
		if(USART1_RXENABLE){
     198:	80 91 7e 03 	lds	r24, 0x037E	; 0x80037e <USART1>
     19c:	81 fd       	sbrc	r24, 1
			USART1_RECEIVE();
     19e:	0e 94 bf 0c 	call	0x197e	; 0x197e <USART1_RECEIVE>
		}//else inicializar variables
	}
	
	if(USART1_RX_COMPLETE == 1 && USART1_RX_READY == 0){
     1a2:	80 91 7e 03 	lds	r24, 0x037E	; 0x80037e <USART1>
     1a6:	84 78       	andi	r24, 0x84	; 132
     1a8:	80 38       	cpi	r24, 0x80	; 128
     1aa:	11 f4       	brne	.+4      	; 0x1b0 <ISRVirtualUsart+0x3e>
		USART1_receiveByte();
     1ac:	0e 94 42 0d 	call	0x1a84	; 0x1a84 <USART1_receiveByte>
	}
	
	if(TIM2_BR.iFlags.BR9600){
     1b0:	80 91 72 03 	lds	r24, 0x0372	; 0x800372 <TIM2_BR>
     1b4:	80 ff       	sbrs	r24, 0
     1b6:	11 c0       	rjmp	.+34     	; 0x1da <ISRVirtualUsart+0x68>
		TIM2_BR.iFlags.BR9600 = 0;
     1b8:	8e 7f       	andi	r24, 0xFE	; 254
     1ba:	80 93 72 03 	sts	0x0372, r24	; 0x800372 <TIM2_BR>
		
		if(USART1_TX_DONE == 1 && USART1_TX_READY == 0){ //hay dato para guardar en rx data
     1be:	80 91 7e 03 	lds	r24, 0x037E	; 0x80037e <USART1>
     1c2:	88 71       	andi	r24, 0x18	; 24
     1c4:	80 31       	cpi	r24, 0x10	; 16
     1c6:	11 f4       	brne	.+4      	; 0x1cc <ISRVirtualUsart+0x5a>
			USART1_SendByte();
     1c8:	0e 94 30 0d 	call	0x1a60	; 0x1a60 <USART1_SendByte>
		}
		
		if(USART1_TXENABLE)//else inicializar variables
     1cc:	80 91 7e 03 	lds	r24, 0x037E	; 0x80037e <USART1>
     1d0:	80 ff       	sbrs	r24, 0
     1d2:	08 c0       	rjmp	.+16     	; 0x1e4 <ISRVirtualUsart+0x72>
		USART1_TRANSMIT();
     1d4:	0e 94 7e 0c 	call	0x18fc	; 0x18fc <USART1_TRANSMIT>
     1d8:	08 95       	ret
		}else{
		TIM2_BR.iFlags.BR9600 = 1;
     1da:	80 91 72 03 	lds	r24, 0x0372	; 0x800372 <TIM2_BR>
     1de:	81 60       	ori	r24, 0x01	; 1
     1e0:	80 93 72 03 	sts	0x0372, r24	; 0x800372 <TIM2_BR>
     1e4:	08 95       	ret

000001e6 <EEPROM_Write>:
	MODBUS_DecodeFrame(UDR0);
}

int8_t EEPROM_Write(uint16_t address, uint8_t data){
	//Validar direccion o da la vuelta
	if(address < 1 || address > 1023){
     1e6:	9c 01       	movw	r18, r24
     1e8:	21 50       	subi	r18, 0x01	; 1
     1ea:	31 09       	sbc	r19, r1
     1ec:	2f 3f       	cpi	r18, 0xFF	; 255
     1ee:	33 40       	sbci	r19, 0x03	; 3
     1f0:	70 f4       	brcc	.+28     	; 0x20e <EEPROM_Write+0x28>
		return -1;
	}
	while(EECR & (1<<EEPE)); //Este bit deben estar en 0.
     1f2:	f9 99       	sbic	0x1f, 1	; 31
     1f4:	fe cf       	rjmp	.-4      	; 0x1f2 <EEPROM_Write+0xc>
	cli();
     1f6:	f8 94       	cli
	//Direccion del registro
	EEARL = address;
     1f8:	81 bd       	out	0x21, r24	; 33
	//Dato a guardar
	EEDR = data;
     1fa:	60 bd       	out	0x20, r22	; 32
	//Configurar a escritura seteando EEMPE
	EECR |= (1<<EEMPE);
     1fc:	8f b3       	in	r24, 0x1f	; 31
     1fe:	84 60       	ori	r24, 0x04	; 4
     200:	8f bb       	out	0x1f, r24	; 31
	//Iniciar la escritura seteando EEPE
	EECR |= (1<<EEPE);
     202:	8f b3       	in	r24, 0x1f	; 31
     204:	82 60       	ori	r24, 0x02	; 2
     206:	8f bb       	out	0x1f, r24	; 31
	//Restaurar interrupciones
	sei();
     208:	78 94       	sei
	
	return 1;
     20a:	81 e0       	ldi	r24, 0x01	; 1
     20c:	08 95       	ret
}

int8_t EEPROM_Write(uint16_t address, uint8_t data){
	//Validar direccion o da la vuelta
	if(address < 1 || address > 1023){
		return -1;
     20e:	8f ef       	ldi	r24, 0xFF	; 255
	EECR |= (1<<EEPE);
	//Restaurar interrupciones
	sei();
	
	return 1;
}
     210:	08 95       	ret

00000212 <EEPROM_Read>:

int16_t EEPROM_Read(uint16_t address){
	//Validar direccion o da la vuelta
	if(address < 1 || address > 1023){
     212:	9c 01       	movw	r18, r24
     214:	21 50       	subi	r18, 0x01	; 1
     216:	31 09       	sbc	r19, r1
     218:	2f 3f       	cpi	r18, 0xFF	; 255
     21a:	33 40       	sbci	r19, 0x03	; 3
     21c:	50 f4       	brcc	.+20     	; 0x232 <EEPROM_Read+0x20>
		return -1;
	}
	while(EECR & (1<<EEPE)); //Estos bits deben estar en 0.
     21e:	f9 99       	sbic	0x1f, 1	; 31
     220:	fe cf       	rjmp	.-4      	; 0x21e <EEPROM_Read+0xc>
	//Direccion del registro
	EEAR = address;
     222:	92 bd       	out	0x22, r25	; 34
     224:	81 bd       	out	0x21, r24	; 33
	//Leer datos
	EECR |= (1 << EERE);
     226:	8f b3       	in	r24, 0x1f	; 31
     228:	81 60       	ori	r24, 0x01	; 1
     22a:	8f bb       	out	0x1f, r24	; 31
	//devolver dato leido
	return EEDR;
     22c:	80 b5       	in	r24, 0x20	; 32
     22e:	90 e0       	ldi	r25, 0x00	; 0
     230:	08 95       	ret
}

int16_t EEPROM_Read(uint16_t address){
	//Validar direccion o da la vuelta
	if(address < 1 || address > 1023){
		return -1;
     232:	8f ef       	ldi	r24, 0xFF	; 255
     234:	9f ef       	ldi	r25, 0xFF	; 255
	EEAR = address;
	//Leer datos
	EECR |= (1 << EERE);
	//devolver dato leido
	return EEDR;
}
     236:	08 95       	ret

00000238 <UARTsendByte>:
static inline void USART0_ReceiveInterruptDisable(){
	UCSR0B &= ~(1 << (RXCIE0));
}

void UARTsendByte(){
		if (UCSR0A & (1 << UDRE0)) {
     238:	80 91 c0 00 	lds	r24, 0x00C0	; 0x8000c0 <__TEXT_REGION_LENGTH__+0x7f80c0>
     23c:	85 ff       	sbrs	r24, 5
     23e:	0c c0       	rjmp	.+24     	; 0x258 <UARTsendByte+0x20>
			USART0_Write(bufferTx[indexTxR++]);
     240:	e0 91 5c 02 	lds	r30, 0x025C	; 0x80025c <indexTxR>
     244:	81 e0       	ldi	r24, 0x01	; 1
     246:	8e 0f       	add	r24, r30
     248:	80 93 5c 02 	sts	0x025C, r24	; 0x80025c <indexTxR>
     24c:	f0 e0       	ldi	r31, 0x00	; 0
     24e:	ee 58       	subi	r30, 0x8E	; 142
     250:	fd 4f       	sbci	r31, 0xFD	; 253
     252:	80 81       	ld	r24, Z
     254:	0e 94 fc 0b 	call	0x17f8	; 0x17f8 <USART0_Write>
     258:	08 95       	ret

0000025a <RestartTikValues>:
		TIM2_BR.iFlags.BR9600 = 1;
	}
}

void RestartTikValues(){	
	if(auxbrConfig){
     25a:	80 91 07 01 	lds	r24, 0x0107	; 0x800107 <auxbrConfig>
     25e:	88 23       	and	r24, r24
     260:	f1 f0       	breq	.+60     	; 0x29e <RestartTikValues+0x44>
		if(auxParity){
     262:	80 91 06 01 	lds	r24, 0x0106	; 0x800106 <auxParity>
     266:	88 23       	and	r24, r24
     268:	69 f0       	breq	.+26     	; 0x284 <RestartTikValues+0x2a>
			t15Tik = T15_BR11;
     26a:	86 e5       	ldi	r24, 0x56	; 86
     26c:	90 e0       	ldi	r25, 0x00	; 0
     26e:	90 93 0b 01 	sts	0x010B, r25	; 0x80010b <t15Tik+0x1>
     272:	80 93 0a 01 	sts	0x010A, r24	; 0x80010a <t15Tik>
			t35Tik = T35_BR11;
     276:	89 ec       	ldi	r24, 0xC9	; 201
     278:	90 e0       	ldi	r25, 0x00	; 0
     27a:	90 93 09 01 	sts	0x0109, r25	; 0x800109 <t35Tik+0x1>
     27e:	80 93 08 01 	sts	0x0108, r24	; 0x800108 <t35Tik>
     282:	08 95       	ret
		}else{
			t15Tik = T15_BR10;
     284:	8f e4       	ldi	r24, 0x4F	; 79
     286:	90 e0       	ldi	r25, 0x00	; 0
     288:	90 93 0b 01 	sts	0x010B, r25	; 0x80010b <t15Tik+0x1>
     28c:	80 93 0a 01 	sts	0x010A, r24	; 0x80010a <t15Tik>
			t35Tik = T35_BR10;
     290:	87 eb       	ldi	r24, 0xB7	; 183
     292:	90 e0       	ldi	r25, 0x00	; 0
     294:	90 93 09 01 	sts	0x0109, r25	; 0x800109 <t35Tik+0x1>
     298:	80 93 08 01 	sts	0x0108, r24	; 0x800108 <t35Tik>
     29c:	08 95       	ret
		}
	}else{
		if(auxParity){
     29e:	80 91 06 01 	lds	r24, 0x0106	; 0x800106 <auxParity>
     2a2:	88 23       	and	r24, r24
     2a4:	69 f0       	breq	.+26     	; 0x2c0 <RestartTikValues+0x66>
			t15Tik = T15_BR01;
     2a6:	8c ea       	ldi	r24, 0xAC	; 172
     2a8:	90 e0       	ldi	r25, 0x00	; 0
     2aa:	90 93 0b 01 	sts	0x010B, r25	; 0x80010b <t15Tik+0x1>
     2ae:	80 93 0a 01 	sts	0x010A, r24	; 0x80010a <t15Tik>
			t35Tik = T35_BR01;
     2b2:	81 e9       	ldi	r24, 0x91	; 145
     2b4:	91 e0       	ldi	r25, 0x01	; 1
     2b6:	90 93 09 01 	sts	0x0109, r25	; 0x800109 <t35Tik+0x1>
     2ba:	80 93 08 01 	sts	0x0108, r24	; 0x800108 <t35Tik>
     2be:	08 95       	ret
		}else{
			t15Tik = T15_BR00;
     2c0:	8d e9       	ldi	r24, 0x9D	; 157
     2c2:	90 e0       	ldi	r25, 0x00	; 0
     2c4:	90 93 0b 01 	sts	0x010B, r25	; 0x80010b <t15Tik+0x1>
     2c8:	80 93 0a 01 	sts	0x010A, r24	; 0x80010a <t15Tik>
			t35Tik = T35_BR00;
     2cc:	8d e6       	ldi	r24, 0x6D	; 109
     2ce:	91 e0       	ldi	r25, 0x01	; 1
     2d0:	90 93 09 01 	sts	0x0109, r25	; 0x800109 <t35Tik+0x1>
     2d4:	80 93 08 01 	sts	0x0108, r24	; 0x800108 <t35Tik>
     2d8:	08 95       	ret

000002da <UpdateState>:
	    TIMSK0 |= (1 << OCIE0A);
	    commFlags.iFlags.isEvent1 = 0;
    }

 void UpdateState(uint8_t lect, uint8_t mask, uint8_t indice){
	  if(((~PINC) & mask) == (lect & mask)){
     2da:	26 b1       	in	r18, 0x06	; 6
     2dc:	30 e0       	ldi	r19, 0x00	; 0
     2de:	20 95       	com	r18
     2e0:	30 95       	com	r19
     2e2:	e6 2f       	mov	r30, r22
     2e4:	f0 e0       	ldi	r31, 0x00	; 0
     2e6:	2e 23       	and	r18, r30
     2e8:	3f 23       	and	r19, r31
     2ea:	86 23       	and	r24, r22
     2ec:	e8 2f       	mov	r30, r24
     2ee:	f0 e0       	ldi	r31, 0x00	; 0
     2f0:	2e 17       	cp	r18, r30
     2f2:	3f 07       	cpc	r19, r31
     2f4:	09 f0       	breq	.+2      	; 0x2f8 <UpdateState+0x1e>
     2f6:	3f c0       	rjmp	.+126    	; 0x376 <UpdateState+0x9c>
		  if(lect & mask){
     2f8:	88 23       	and	r24, r24
     2fa:	a9 f0       	breq	.+42     	; 0x326 <UpdateState+0x4c>
			  outValues |= mask; 
     2fc:	80 91 7b 03 	lds	r24, 0x037B	; 0x80037b <outValues>
     300:	68 2b       	or	r22, r24
     302:	60 93 7b 03 	sts	0x037B, r22	; 0x80037b <outValues>
			  myEvents[eventIndexW].stateLastEvent = 1;
     306:	80 91 66 02 	lds	r24, 0x0266	; 0x800266 <eventIndexW>
     30a:	90 91 67 02 	lds	r25, 0x0267	; 0x800267 <eventIndexW+0x1>
     30e:	fc 01       	movw	r30, r24
     310:	ee 0f       	add	r30, r30
     312:	ff 1f       	adc	r31, r31
     314:	e8 0f       	add	r30, r24
     316:	f9 1f       	adc	r31, r25
     318:	ee 0f       	add	r30, r30
     31a:	ff 1f       	adc	r31, r31
     31c:	ee 58       	subi	r30, 0x8E	; 142
     31e:	f8 4f       	sbci	r31, 0xF8	; 248
     320:	81 e0       	ldi	r24, 0x01	; 1
     322:	81 83       	std	Z+1, r24	; 0x01
     324:	28 c0       	rjmp	.+80     	; 0x376 <UpdateState+0x9c>
		   }else{
			  if(outValues & mask){
     326:	80 91 7b 03 	lds	r24, 0x037B	; 0x80037b <outValues>
     32a:	96 2f       	mov	r25, r22
     32c:	98 23       	and	r25, r24
     32e:	89 f0       	breq	.+34     	; 0x352 <UpdateState+0x78>
				  tikBetweenTime[indice] = modbusRegister.timeBtw[indice];
     330:	24 2f       	mov	r18, r20
     332:	30 e0       	ldi	r19, 0x00	; 0
     334:	f9 01       	movw	r30, r18
     336:	33 96       	adiw	r30, 0x03	; 3
     338:	ee 0f       	add	r30, r30
     33a:	ff 1f       	adc	r31, r31
     33c:	e0 50       	subi	r30, 0x00	; 0
     33e:	fc 4f       	sbci	r31, 0xFC	; 252
     340:	a0 81       	ld	r26, Z
     342:	b1 81       	ldd	r27, Z+1	; 0x01
     344:	22 0f       	add	r18, r18
     346:	33 1f       	adc	r19, r19
     348:	f9 01       	movw	r30, r18
     34a:	ed 58       	subi	r30, 0x8D	; 141
     34c:	fc 4f       	sbci	r31, 0xFC	; 252
     34e:	b1 83       	std	Z+1, r27	; 0x01
     350:	a0 83       	st	Z, r26
			  }
			 outValues &= ~mask;
     352:	60 95       	com	r22
     354:	68 23       	and	r22, r24
     356:	60 93 7b 03 	sts	0x037B, r22	; 0x80037b <outValues>
			 myEvents[eventIndexW].stateLastEvent = 0;
     35a:	80 91 66 02 	lds	r24, 0x0266	; 0x800266 <eventIndexW>
     35e:	90 91 67 02 	lds	r25, 0x0267	; 0x800267 <eventIndexW+0x1>
     362:	fc 01       	movw	r30, r24
     364:	ee 0f       	add	r30, r30
     366:	ff 1f       	adc	r31, r31
     368:	e8 0f       	add	r30, r24
     36a:	f9 1f       	adc	r31, r25
     36c:	ee 0f       	add	r30, r30
     36e:	ff 1f       	adc	r31, r31
     370:	ee 58       	subi	r30, 0x8E	; 142
     372:	f8 4f       	sbci	r31, 0xF8	; 248
     374:	11 82       	std	Z+1, r1	; 0x01
		    }
	    }
		myEvents[eventIndexW].ID = indice;
     376:	80 91 66 02 	lds	r24, 0x0266	; 0x800266 <eventIndexW>
     37a:	90 91 67 02 	lds	r25, 0x0267	; 0x800267 <eventIndexW+0x1>
     37e:	fc 01       	movw	r30, r24
     380:	ee 0f       	add	r30, r30
     382:	ff 1f       	adc	r31, r31
     384:	e8 0f       	add	r30, r24
     386:	f9 1f       	adc	r31, r25
     388:	ee 0f       	add	r30, r30
     38a:	ff 1f       	adc	r31, r31
     38c:	ee 58       	subi	r30, 0x8E	; 142
     38e:	f8 4f       	sbci	r31, 0xF8	; 248
     390:	40 83       	st	Z, r20
	    myEvents[eventIndexW].timeLastEvent = modbusRegister.unixTime;
     392:	a0 e0       	ldi	r26, 0x00	; 0
     394:	b4 e0       	ldi	r27, 0x04	; 4
     396:	4d 91       	ld	r20, X+
     398:	5d 91       	ld	r21, X+
     39a:	6d 91       	ld	r22, X+
     39c:	7c 91       	ld	r23, X
     39e:	13 97       	sbiw	r26, 0x03	; 3
     3a0:	42 83       	std	Z+2, r20	; 0x02
     3a2:	53 83       	std	Z+3, r21	; 0x03
     3a4:	64 83       	std	Z+4, r22	; 0x04
     3a6:	75 83       	std	Z+5, r23	; 0x05
		eventIndexW++;
     3a8:	01 96       	adiw	r24, 0x01	; 1
     3aa:	90 93 67 02 	sts	0x0267, r25	; 0x800267 <eventIndexW+0x1>
     3ae:	80 93 66 02 	sts	0x0266, r24	; 0x800266 <eventIndexW>
	    modbusRegister.newEventCounter++;
     3b2:	50 96       	adiw	r26, 0x10	; 16
     3b4:	2d 91       	ld	r18, X+
     3b6:	3c 91       	ld	r19, X
     3b8:	51 97       	sbiw	r26, 0x11	; 17
     3ba:	2f 5f       	subi	r18, 0xFF	; 255
     3bc:	3f 4f       	sbci	r19, 0xFF	; 255
     3be:	51 96       	adiw	r26, 0x11	; 17
     3c0:	3c 93       	st	X, r19
     3c2:	2e 93       	st	-X, r18
     3c4:	50 97       	sbiw	r26, 0x10	; 16
	    if(eventIndexW == MAXEVENTS){
     3c6:	c2 97       	sbiw	r24, 0x32	; 50
     3c8:	21 f4       	brne	.+8      	; 0x3d2 <UpdateState+0xf8>
		    eventIndexW = 0;
     3ca:	10 92 67 02 	sts	0x0267, r1	; 0x800267 <eventIndexW+0x1>
     3ce:	10 92 66 02 	sts	0x0266, r1	; 0x800266 <eventIndexW>
     3d2:	08 95       	ret

000003d4 <RegInput>:
	}
	commFlags.iFlags.isEvent1 = 1;
}

void RegInput(){
	    newValueA = ~(PINC & MASK_PORTC);
     3d4:	86 b1       	in	r24, 0x06	; 6
     3d6:	8f 70       	andi	r24, 0x0F	; 15
     3d8:	80 95       	com	r24
     3da:	80 93 71 02 	sts	0x0271, r24	; 0x800271 <newValueA>
	    inputFlags.aFlags_input = (newValueA ^ oldValueA);
     3de:	90 91 65 02 	lds	r25, 0x0265	; 0x800265 <oldValueA>
     3e2:	98 27       	eor	r25, r24
     3e4:	90 93 63 02 	sts	0x0263, r25	; 0x800263 <inputFlags>
	    
	    if(tikBetweenTime[0]){
     3e8:	20 91 73 03 	lds	r18, 0x0373	; 0x800373 <tikBetweenTime>
     3ec:	30 91 74 03 	lds	r19, 0x0374	; 0x800374 <tikBetweenTime+0x1>
     3f0:	21 15       	cp	r18, r1
     3f2:	31 05       	cpc	r19, r1
     3f4:	39 f0       	breq	.+14     	; 0x404 <__EEPROM_REGION_LENGTH__+0x4>
		    tikBetweenTime[0]--;
     3f6:	21 50       	subi	r18, 0x01	; 1
     3f8:	31 09       	sbc	r19, r1
     3fa:	30 93 74 03 	sts	0x0374, r19	; 0x800374 <tikBetweenTime+0x1>
     3fe:	20 93 73 03 	sts	0x0373, r18	; 0x800373 <tikBetweenTime>
     402:	1e c0       	rjmp	.+60     	; 0x440 <__EEPROM_REGION_LENGTH__+0x40>
		}else{
		    if(inputFlags.iFlags.isEvent1){
     404:	90 91 63 02 	lds	r25, 0x0263	; 0x800263 <inputFlags>
     408:	90 ff       	sbrs	r25, 0
     40a:	0b c0       	rjmp	.+22     	; 0x422 <__EEPROM_REGION_LENGTH__+0x22>
			    tikDebounce[0] = PERIOD100MS;
     40c:	9a e0       	ldi	r25, 0x0A	; 10
     40e:	90 93 53 01 	sts	0x0153, r25	; 0x800153 <tikDebounce>
			    lecture = (lecture & ~(MASK_IN1)) | (newValueA & MASK_IN1);
     412:	90 91 57 01 	lds	r25, 0x0157	; 0x800157 <lecture>
     416:	9e 7f       	andi	r25, 0xFE	; 254
     418:	81 70       	andi	r24, 0x01	; 1
     41a:	89 2b       	or	r24, r25
     41c:	80 93 57 01 	sts	0x0157, r24	; 0x800157 <lecture>
     420:	0f c0       	rjmp	.+30     	; 0x440 <__EEPROM_REGION_LENGTH__+0x40>
			    }else{
			    if(tikDebounce[0]){
     422:	80 91 53 01 	lds	r24, 0x0153	; 0x800153 <tikDebounce>
     426:	88 23       	and	r24, r24
     428:	59 f0       	breq	.+22     	; 0x440 <__EEPROM_REGION_LENGTH__+0x40>
				    tikDebounce[0]--;
     42a:	81 50       	subi	r24, 0x01	; 1
     42c:	80 93 53 01 	sts	0x0153, r24	; 0x800153 <tikDebounce>
				    if(tikDebounce[0] == 0){
     430:	81 11       	cpse	r24, r1
     432:	06 c0       	rjmp	.+12     	; 0x440 <__EEPROM_REGION_LENGTH__+0x40>
					    UpdateState(lecture, MASK_IN1, 0);
     434:	40 e0       	ldi	r20, 0x00	; 0
     436:	61 e0       	ldi	r22, 0x01	; 1
     438:	80 91 57 01 	lds	r24, 0x0157	; 0x800157 <lecture>
     43c:	0e 94 6d 01 	call	0x2da	; 0x2da <UpdateState>
				    }
			    }
		    }
	    }
	    
	    if(tikBetweenTime[1]){
     440:	80 91 75 03 	lds	r24, 0x0375	; 0x800375 <tikBetweenTime+0x2>
     444:	90 91 76 03 	lds	r25, 0x0376	; 0x800376 <tikBetweenTime+0x3>
     448:	00 97       	sbiw	r24, 0x00	; 0
     44a:	31 f0       	breq	.+12     	; 0x458 <__EEPROM_REGION_LENGTH__+0x58>
		    tikBetweenTime[1]--;
     44c:	01 97       	sbiw	r24, 0x01	; 1
     44e:	90 93 76 03 	sts	0x0376, r25	; 0x800376 <tikBetweenTime+0x3>
     452:	80 93 75 03 	sts	0x0375, r24	; 0x800375 <tikBetweenTime+0x2>
     456:	21 c0       	rjmp	.+66     	; 0x49a <__EEPROM_REGION_LENGTH__+0x9a>
		    }else{
		    if(inputFlags.iFlags.isEvent2){
     458:	80 91 63 02 	lds	r24, 0x0263	; 0x800263 <inputFlags>
     45c:	81 ff       	sbrs	r24, 1
     45e:	0e c0       	rjmp	.+28     	; 0x47c <__EEPROM_REGION_LENGTH__+0x7c>
			    tikDebounce[1] = PERIOD100MS;
     460:	8a e0       	ldi	r24, 0x0A	; 10
     462:	80 93 54 01 	sts	0x0154, r24	; 0x800154 <tikDebounce+0x1>
			    lecture = (lecture & ~(MASK_IN2)) | (newValueA & MASK_IN2);
     466:	80 91 57 01 	lds	r24, 0x0157	; 0x800157 <lecture>
     46a:	98 2f       	mov	r25, r24
     46c:	9d 7f       	andi	r25, 0xFD	; 253
     46e:	80 91 71 02 	lds	r24, 0x0271	; 0x800271 <newValueA>
     472:	82 70       	andi	r24, 0x02	; 2
     474:	89 2b       	or	r24, r25
     476:	80 93 57 01 	sts	0x0157, r24	; 0x800157 <lecture>
     47a:	0f c0       	rjmp	.+30     	; 0x49a <__EEPROM_REGION_LENGTH__+0x9a>
			    }else{
			    if(tikDebounce[1]){
     47c:	80 91 54 01 	lds	r24, 0x0154	; 0x800154 <tikDebounce+0x1>
     480:	88 23       	and	r24, r24
     482:	59 f0       	breq	.+22     	; 0x49a <__EEPROM_REGION_LENGTH__+0x9a>
				    tikDebounce[1]--;
     484:	81 50       	subi	r24, 0x01	; 1
     486:	80 93 54 01 	sts	0x0154, r24	; 0x800154 <tikDebounce+0x1>
				    if(tikDebounce[1] == 0){
     48a:	81 11       	cpse	r24, r1
     48c:	06 c0       	rjmp	.+12     	; 0x49a <__EEPROM_REGION_LENGTH__+0x9a>
					    UpdateState(lecture, MASK_IN2, 1);
     48e:	41 e0       	ldi	r20, 0x01	; 1
     490:	62 e0       	ldi	r22, 0x02	; 2
     492:	80 91 57 01 	lds	r24, 0x0157	; 0x800157 <lecture>
     496:	0e 94 6d 01 	call	0x2da	; 0x2da <UpdateState>
				    }
			    }
		    }
	    }
	    
	    if(tikBetweenTime[2]){
     49a:	80 91 77 03 	lds	r24, 0x0377	; 0x800377 <tikBetweenTime+0x4>
     49e:	90 91 78 03 	lds	r25, 0x0378	; 0x800378 <tikBetweenTime+0x5>
     4a2:	00 97       	sbiw	r24, 0x00	; 0
     4a4:	31 f0       	breq	.+12     	; 0x4b2 <__EEPROM_REGION_LENGTH__+0xb2>
		    tikBetweenTime[2]--;
     4a6:	01 97       	sbiw	r24, 0x01	; 1
     4a8:	90 93 78 03 	sts	0x0378, r25	; 0x800378 <tikBetweenTime+0x5>
     4ac:	80 93 77 03 	sts	0x0377, r24	; 0x800377 <tikBetweenTime+0x4>
     4b0:	21 c0       	rjmp	.+66     	; 0x4f4 <__EEPROM_REGION_LENGTH__+0xf4>
		    }else{
		    if(inputFlags.iFlags.isEvent3){
     4b2:	80 91 63 02 	lds	r24, 0x0263	; 0x800263 <inputFlags>
     4b6:	82 ff       	sbrs	r24, 2
     4b8:	0e c0       	rjmp	.+28     	; 0x4d6 <__EEPROM_REGION_LENGTH__+0xd6>
			    tikDebounce[2] = PERIOD100MS;
     4ba:	8a e0       	ldi	r24, 0x0A	; 10
     4bc:	80 93 55 01 	sts	0x0155, r24	; 0x800155 <tikDebounce+0x2>
			    lecture = (lecture & ~(MASK_IN3)) | (newValueA & MASK_IN3);
     4c0:	80 91 57 01 	lds	r24, 0x0157	; 0x800157 <lecture>
     4c4:	98 2f       	mov	r25, r24
     4c6:	9b 7f       	andi	r25, 0xFB	; 251
     4c8:	80 91 71 02 	lds	r24, 0x0271	; 0x800271 <newValueA>
     4cc:	84 70       	andi	r24, 0x04	; 4
     4ce:	89 2b       	or	r24, r25
     4d0:	80 93 57 01 	sts	0x0157, r24	; 0x800157 <lecture>
     4d4:	0f c0       	rjmp	.+30     	; 0x4f4 <__EEPROM_REGION_LENGTH__+0xf4>
			}else{
			    if(tikDebounce[2]){
     4d6:	80 91 55 01 	lds	r24, 0x0155	; 0x800155 <tikDebounce+0x2>
     4da:	88 23       	and	r24, r24
     4dc:	59 f0       	breq	.+22     	; 0x4f4 <__EEPROM_REGION_LENGTH__+0xf4>
				    tikDebounce[2]--;
     4de:	81 50       	subi	r24, 0x01	; 1
     4e0:	80 93 55 01 	sts	0x0155, r24	; 0x800155 <tikDebounce+0x2>
				    if(tikDebounce[2] == 0){
     4e4:	81 11       	cpse	r24, r1
     4e6:	06 c0       	rjmp	.+12     	; 0x4f4 <__EEPROM_REGION_LENGTH__+0xf4>
					    UpdateState(lecture, MASK_IN3, 2);
     4e8:	42 e0       	ldi	r20, 0x02	; 2
     4ea:	64 e0       	ldi	r22, 0x04	; 4
     4ec:	80 91 57 01 	lds	r24, 0x0157	; 0x800157 <lecture>
     4f0:	0e 94 6d 01 	call	0x2da	; 0x2da <UpdateState>
				    }
			    }
		    }
	    }
	    
	    if(tikBetweenTime[3]){
     4f4:	80 91 79 03 	lds	r24, 0x0379	; 0x800379 <tikBetweenTime+0x6>
     4f8:	90 91 7a 03 	lds	r25, 0x037A	; 0x80037a <tikBetweenTime+0x7>
     4fc:	00 97       	sbiw	r24, 0x00	; 0
     4fe:	31 f0       	breq	.+12     	; 0x50c <__EEPROM_REGION_LENGTH__+0x10c>
		    tikBetweenTime[3]--;
     500:	01 97       	sbiw	r24, 0x01	; 1
     502:	90 93 7a 03 	sts	0x037A, r25	; 0x80037a <tikBetweenTime+0x7>
     506:	80 93 79 03 	sts	0x0379, r24	; 0x800379 <tikBetweenTime+0x6>
     50a:	21 c0       	rjmp	.+66     	; 0x54e <__EEPROM_REGION_LENGTH__+0x14e>
		    }else{
		    if(inputFlags.iFlags.isEvent4){
     50c:	80 91 63 02 	lds	r24, 0x0263	; 0x800263 <inputFlags>
     510:	83 ff       	sbrs	r24, 3
     512:	0e c0       	rjmp	.+28     	; 0x530 <__EEPROM_REGION_LENGTH__+0x130>
			    tikDebounce[3] = PERIOD100MS;
     514:	8a e0       	ldi	r24, 0x0A	; 10
     516:	80 93 56 01 	sts	0x0156, r24	; 0x800156 <tikDebounce+0x3>
			    lecture = (lecture & ~(MASK_IN4)) | (newValueA & MASK_IN4);
     51a:	80 91 57 01 	lds	r24, 0x0157	; 0x800157 <lecture>
     51e:	98 2f       	mov	r25, r24
     520:	97 7f       	andi	r25, 0xF7	; 247
     522:	80 91 71 02 	lds	r24, 0x0271	; 0x800271 <newValueA>
     526:	88 70       	andi	r24, 0x08	; 8
     528:	89 2b       	or	r24, r25
     52a:	80 93 57 01 	sts	0x0157, r24	; 0x800157 <lecture>
     52e:	0f c0       	rjmp	.+30     	; 0x54e <__EEPROM_REGION_LENGTH__+0x14e>
			    }else{
			    if(tikDebounce[3]){
     530:	80 91 56 01 	lds	r24, 0x0156	; 0x800156 <tikDebounce+0x3>
     534:	88 23       	and	r24, r24
     536:	59 f0       	breq	.+22     	; 0x54e <__EEPROM_REGION_LENGTH__+0x14e>
				    tikDebounce[3]--;
     538:	81 50       	subi	r24, 0x01	; 1
     53a:	80 93 56 01 	sts	0x0156, r24	; 0x800156 <tikDebounce+0x3>
				    if(tikDebounce[3] == 0){
     53e:	81 11       	cpse	r24, r1
     540:	06 c0       	rjmp	.+12     	; 0x54e <__EEPROM_REGION_LENGTH__+0x14e>
					    UpdateState(lecture, MASK_IN4, 3);
     542:	43 e0       	ldi	r20, 0x03	; 3
     544:	68 e0       	ldi	r22, 0x08	; 8
     546:	80 91 57 01 	lds	r24, 0x0157	; 0x800157 <lecture>
     54a:	0e 94 6d 01 	call	0x2da	; 0x2da <UpdateState>
				    }
			    }
		    }
	    }
	    
	    oldValueA = newValueA;
     54e:	80 91 71 02 	lds	r24, 0x0271	; 0x800271 <newValueA>
     552:	80 93 65 02 	sts	0x0265, r24	; 0x800265 <oldValueA>
	    TIMSK0 |= (1 << OCIE0A);
     556:	ee e6       	ldi	r30, 0x6E	; 110
     558:	f0 e0       	ldi	r31, 0x00	; 0
     55a:	80 81       	ld	r24, Z
     55c:	82 60       	ori	r24, 0x02	; 2
     55e:	80 83       	st	Z, r24
	    commFlags.iFlags.isEvent1 = 0;
     560:	80 91 59 02 	lds	r24, 0x0259	; 0x800259 <commFlags>
     564:	8e 7f       	andi	r24, 0xFE	; 254
     566:	80 93 59 02 	sts	0x0259, r24	; 0x800259 <commFlags>
     56a:	08 95       	ret

0000056c <InitializeEvents>:
		    eventIndexW = 0;
	    }
}

void InitializeEvents(){
	for(uint8_t i = 0; i < MAXEVENTS; i++) {
     56c:	20 e0       	ldi	r18, 0x00	; 0
     56e:	16 c0       	rjmp	.+44     	; 0x59c <InitializeEvents+0x30>
		myEvents[i].ID = 0;
     570:	82 2f       	mov	r24, r18
     572:	90 e0       	ldi	r25, 0x00	; 0
     574:	fc 01       	movw	r30, r24
     576:	ee 0f       	add	r30, r30
     578:	ff 1f       	adc	r31, r31
     57a:	df 01       	movw	r26, r30
     57c:	a8 0f       	add	r26, r24
     57e:	b9 1f       	adc	r27, r25
     580:	aa 0f       	add	r26, r26
     582:	bb 1f       	adc	r27, r27
     584:	ae 58       	subi	r26, 0x8E	; 142
     586:	b8 4f       	sbci	r27, 0xF8	; 248
     588:	1c 92       	st	X, r1
		myEvents[i].stateLastEvent = 0;
     58a:	11 96       	adiw	r26, 0x01	; 1
     58c:	1c 92       	st	X, r1
     58e:	11 97       	sbiw	r26, 0x01	; 1
		myEvents[i].timeLastEvent = 0;
     590:	fd 01       	movw	r30, r26
     592:	12 82       	std	Z+2, r1	; 0x02
     594:	13 82       	std	Z+3, r1	; 0x03
     596:	14 82       	std	Z+4, r1	; 0x04
     598:	15 82       	std	Z+5, r1	; 0x05
		    eventIndexW = 0;
	    }
}

void InitializeEvents(){
	for(uint8_t i = 0; i < MAXEVENTS; i++) {
     59a:	2f 5f       	subi	r18, 0xFF	; 255
     59c:	22 33       	cpi	r18, 0x32	; 50
     59e:	40 f3       	brcs	.-48     	; 0x570 <InitializeEvents+0x4>
		myEvents[i].ID = 0;
		myEvents[i].stateLastEvent = 0;
		myEvents[i].timeLastEvent = 0;
	}
}
     5a0:	08 95       	ret

000005a2 <LoadEvents>:

void LoadEvents(uint16_t count){
     5a2:	0f 93       	push	r16
     5a4:	1f 93       	push	r17
     5a6:	cf 93       	push	r28
     5a8:	df 93       	push	r29
	for (uint8_t i = 0; i<count; i++ ){
     5aa:	60 e0       	ldi	r22, 0x00	; 0
     5ac:	61 c0       	rjmp	.+194    	; 0x670 <LoadEvents+0xce>
		if(modbusRegister.eventIndexR == MAXEVENTS){
     5ae:	20 91 12 04 	lds	r18, 0x0412	; 0x800412 <modbusRegister+0x12>
     5b2:	30 91 13 04 	lds	r19, 0x0413	; 0x800413 <modbusRegister+0x13>
     5b6:	22 33       	cpi	r18, 0x32	; 50
     5b8:	31 05       	cpc	r19, r1
     5ba:	21 f4       	brne	.+8      	; 0x5c4 <LoadEvents+0x22>
			modbusRegister.eventIndexR=0;
     5bc:	10 92 13 04 	sts	0x0413, r1	; 0x800413 <modbusRegister+0x13>
     5c0:	10 92 12 04 	sts	0x0412, r1	; 0x800412 <modbusRegister+0x12>
		}
		bufferTx[indexTxW++] = myEvents[modbusRegister.eventIndexR].ID;
     5c4:	a0 91 52 01 	lds	r26, 0x0152	; 0x800152 <indexTxW>
     5c8:	41 e0       	ldi	r20, 0x01	; 1
     5ca:	4a 0f       	add	r20, r26
     5cc:	b0 e0       	ldi	r27, 0x00	; 0
     5ce:	c0 e0       	ldi	r28, 0x00	; 0
     5d0:	d4 e0       	ldi	r29, 0x04	; 4
     5d2:	2a 89       	ldd	r18, Y+18	; 0x12
     5d4:	3b 89       	ldd	r19, Y+19	; 0x13
     5d6:	f9 01       	movw	r30, r18
     5d8:	ee 0f       	add	r30, r30
     5da:	ff 1f       	adc	r31, r31
     5dc:	e2 0f       	add	r30, r18
     5de:	f3 1f       	adc	r31, r19
     5e0:	ee 0f       	add	r30, r30
     5e2:	ff 1f       	adc	r31, r31
     5e4:	ee 58       	subi	r30, 0x8E	; 142
     5e6:	f8 4f       	sbci	r31, 0xF8	; 248
     5e8:	50 81       	ld	r21, Z
     5ea:	ae 58       	subi	r26, 0x8E	; 142
     5ec:	bd 4f       	sbci	r27, 0xFD	; 253
     5ee:	5c 93       	st	X, r21
		bufferTx[indexTxW++] = myEvents[modbusRegister.eventIndexR].stateLastEvent;
     5f0:	11 e0       	ldi	r17, 0x01	; 1
     5f2:	14 0f       	add	r17, r20
     5f4:	50 e0       	ldi	r21, 0x00	; 0
     5f6:	71 81       	ldd	r23, Z+1	; 0x01
     5f8:	4e 58       	subi	r20, 0x8E	; 142
     5fa:	5d 4f       	sbci	r21, 0xFD	; 253
     5fc:	da 01       	movw	r26, r20
     5fe:	7c 93       	st	X, r23
		myWord.u32 = myEvents[modbusRegister.eventIndexR].timeLastEvent;
     600:	72 81       	ldd	r23, Z+2	; 0x02
     602:	b3 81       	ldd	r27, Z+3	; 0x03
     604:	54 81       	ldd	r21, Z+4	; 0x04
     606:	45 81       	ldd	r20, Z+5	; 0x05
     608:	70 93 5f 02 	sts	0x025F, r23	; 0x80025f <myWord>
     60c:	b0 93 60 02 	sts	0x0260, r27	; 0x800260 <myWord+0x1>
     610:	50 93 61 02 	sts	0x0261, r21	; 0x800261 <myWord+0x2>
     614:	40 93 62 02 	sts	0x0262, r20	; 0x800262 <myWord+0x3>
		bufferTx[indexTxW++] = myWord.ui8[0];
     618:	e1 e0       	ldi	r30, 0x01	; 1
     61a:	e1 0f       	add	r30, r17
     61c:	a1 2f       	mov	r26, r17
     61e:	b0 e0       	ldi	r27, 0x00	; 0
     620:	4f e5       	ldi	r20, 0x5F	; 95
     622:	52 e0       	ldi	r21, 0x02	; 2
     624:	ae 58       	subi	r26, 0x8E	; 142
     626:	bd 4f       	sbci	r27, 0xFD	; 253
     628:	7c 93       	st	X, r23
		bufferTx[indexTxW++] = myWord.ui8[1];
     62a:	11 e0       	ldi	r17, 0x01	; 1
     62c:	1e 0f       	add	r17, r30
     62e:	f0 e0       	ldi	r31, 0x00	; 0
     630:	da 01       	movw	r26, r20
     632:	11 96       	adiw	r26, 0x01	; 1
     634:	7c 91       	ld	r23, X
     636:	ee 58       	subi	r30, 0x8E	; 142
     638:	fd 4f       	sbci	r31, 0xFD	; 253
     63a:	70 83       	st	Z, r23
		bufferTx[indexTxW++] = myWord.ui8[2];
     63c:	01 e0       	ldi	r16, 0x01	; 1
     63e:	01 0f       	add	r16, r17
     640:	a1 2f       	mov	r26, r17
     642:	b0 e0       	ldi	r27, 0x00	; 0
     644:	fa 01       	movw	r30, r20
     646:	72 81       	ldd	r23, Z+2	; 0x02
     648:	ae 58       	subi	r26, 0x8E	; 142
     64a:	bd 4f       	sbci	r27, 0xFD	; 253
     64c:	7c 93       	st	X, r23
		bufferTx[indexTxW++] = myWord.ui8[3];	
     64e:	71 e0       	ldi	r23, 0x01	; 1
     650:	70 0f       	add	r23, r16
     652:	70 93 52 01 	sts	0x0152, r23	; 0x800152 <indexTxW>
     656:	e0 2f       	mov	r30, r16
     658:	f0 e0       	ldi	r31, 0x00	; 0
     65a:	da 01       	movw	r26, r20
     65c:	13 96       	adiw	r26, 0x03	; 3
     65e:	4c 91       	ld	r20, X
     660:	ee 58       	subi	r30, 0x8E	; 142
     662:	fd 4f       	sbci	r31, 0xFD	; 253
     664:	40 83       	st	Z, r20
		modbusRegister.eventIndexR++;
     666:	2f 5f       	subi	r18, 0xFF	; 255
     668:	3f 4f       	sbci	r19, 0xFF	; 255
     66a:	3b 8b       	std	Y+19, r19	; 0x13
     66c:	2a 8b       	std	Y+18, r18	; 0x12
		myEvents[i].timeLastEvent = 0;
	}
}

void LoadEvents(uint16_t count){
	for (uint8_t i = 0; i<count; i++ ){
     66e:	6f 5f       	subi	r22, 0xFF	; 255
     670:	26 2f       	mov	r18, r22
     672:	30 e0       	ldi	r19, 0x00	; 0
     674:	28 17       	cp	r18, r24
     676:	39 07       	cpc	r19, r25
     678:	08 f4       	brcc	.+2      	; 0x67c <LoadEvents+0xda>
     67a:	99 cf       	rjmp	.-206    	; 0x5ae <LoadEvents+0xc>
		bufferTx[indexTxW++] = myWord.ui8[1];
		bufferTx[indexTxW++] = myWord.ui8[2];
		bufferTx[indexTxW++] = myWord.ui8[3];	
		modbusRegister.eventIndexR++;
	}
}
     67c:	df 91       	pop	r29
     67e:	cf 91       	pop	r28
     680:	1f 91       	pop	r17
     682:	0f 91       	pop	r16
     684:	08 95       	ret

00000686 <MODBUS_CalculateCRC>:

void MODBUS_CalculateCRC(uint8_t data){
	myModbusFrame.crcSlave ^= (uint16_t)data;
     686:	e9 e6       	ldi	r30, 0x69	; 105
     688:	f2 e0       	ldi	r31, 0x02	; 2
     68a:	24 81       	ldd	r18, Z+4	; 0x04
     68c:	35 81       	ldd	r19, Z+5	; 0x05
     68e:	28 27       	eor	r18, r24
     690:	35 83       	std	Z+5, r19	; 0x05
     692:	24 83       	std	Z+4, r18	; 0x04
	for (uint8_t i = 0; i < 8; i++){
     694:	20 e0       	ldi	r18, 0x00	; 0
     696:	18 c0       	rjmp	.+48     	; 0x6c8 <MODBUS_CalculateCRC+0x42>
		if (myModbusFrame.crcSlave & 0x0001)
     698:	80 91 6d 02 	lds	r24, 0x026D	; 0x80026d <myModbusFrame+0x4>
     69c:	90 91 6e 02 	lds	r25, 0x026E	; 0x80026e <myModbusFrame+0x5>
     6a0:	80 ff       	sbrs	r24, 0
     6a2:	0b c0       	rjmp	.+22     	; 0x6ba <MODBUS_CalculateCRC+0x34>
			myModbusFrame.crcSlave = (myModbusFrame.crcSlave >> 1) ^ 0xA001;
     6a4:	96 95       	lsr	r25
     6a6:	87 95       	ror	r24
     6a8:	31 e0       	ldi	r19, 0x01	; 1
     6aa:	83 27       	eor	r24, r19
     6ac:	30 ea       	ldi	r19, 0xA0	; 160
     6ae:	93 27       	eor	r25, r19
     6b0:	90 93 6e 02 	sts	0x026E, r25	; 0x80026e <myModbusFrame+0x5>
     6b4:	80 93 6d 02 	sts	0x026D, r24	; 0x80026d <myModbusFrame+0x4>
     6b8:	06 c0       	rjmp	.+12     	; 0x6c6 <MODBUS_CalculateCRC+0x40>
		else
			myModbusFrame.crcSlave >>= 1;
     6ba:	96 95       	lsr	r25
     6bc:	87 95       	ror	r24
     6be:	90 93 6e 02 	sts	0x026E, r25	; 0x80026e <myModbusFrame+0x5>
     6c2:	80 93 6d 02 	sts	0x026D, r24	; 0x80026d <myModbusFrame+0x4>
	}
}

void MODBUS_CalculateCRC(uint8_t data){
	myModbusFrame.crcSlave ^= (uint16_t)data;
	for (uint8_t i = 0; i < 8; i++){
     6c6:	2f 5f       	subi	r18, 0xFF	; 255
     6c8:	28 30       	cpi	r18, 0x08	; 8
     6ca:	30 f3       	brcs	.-52     	; 0x698 <MODBUS_CalculateCRC+0x12>
		if (myModbusFrame.crcSlave & 0x0001)
			myModbusFrame.crcSlave = (myModbusFrame.crcSlave >> 1) ^ 0xA001;
		else
			myModbusFrame.crcSlave >>= 1;
	}
}
     6cc:	08 95       	ret

000006ce <MODBUS_DecodeFrame>:

void MODBUS_DecodeFrame(uint8_t data){
     6ce:	0f 93       	push	r16
     6d0:	1f 93       	push	r17
     6d2:	cf 93       	push	r28
     6d4:	df 93       	push	r29
	switch(decodeState){
     6d6:	e0 91 58 01 	lds	r30, 0x0158	; 0x800158 <decodeState>
     6da:	4e 2f       	mov	r20, r30
     6dc:	50 e0       	ldi	r21, 0x00	; 0
     6de:	47 30       	cpi	r20, 0x07	; 7
     6e0:	51 05       	cpc	r21, r1
     6e2:	08 f0       	brcs	.+2      	; 0x6e6 <MODBUS_DecodeFrame+0x18>
     6e4:	a1 c0       	rjmp	.+322    	; 0x828 <__DATA_REGION_LENGTH__+0x28>
     6e6:	c8 2f       	mov	r28, r24
     6e8:	fa 01       	movw	r30, r20
     6ea:	ec 5c       	subi	r30, 0xCC	; 204
     6ec:	ff 4f       	sbci	r31, 0xFF	; 255
     6ee:	0c 94 5f 0d 	jmp	0x1abe	; 0x1abe <__tablejump2__>
		case IDLE:
			commFlags.iFlags.isBroadcast = 0;
     6f2:	80 91 59 02 	lds	r24, 0x0259	; 0x800259 <commFlags>
     6f6:	8f 7e       	andi	r24, 0xEF	; 239
     6f8:	80 93 59 02 	sts	0x0259, r24	; 0x800259 <commFlags>
			if(data == MODBUS_BROADCAST_ADDRESS || data == MODBUS_SLAVE_ADDRESS){
     6fc:	cc 23       	and	r28, r28
     6fe:	21 f0       	breq	.+8      	; 0x708 <MODBUS_DecodeFrame+0x3a>
     700:	80 91 ff 03 	lds	r24, 0x03FF	; 0x8003ff <slaveAddress>
     704:	c8 13       	cpse	r28, r24
     706:	16 c0       	rjmp	.+44     	; 0x734 <MODBUS_DecodeFrame+0x66>
				if(data == MODBUS_BROADCAST_ADDRESS) commFlags.iFlags.isBroadcast = 1;
     708:	c1 11       	cpse	r28, r1
     70a:	05 c0       	rjmp	.+10     	; 0x716 <MODBUS_DecodeFrame+0x48>
     70c:	80 91 59 02 	lds	r24, 0x0259	; 0x800259 <commFlags>
     710:	80 61       	ori	r24, 0x10	; 16
     712:	80 93 59 02 	sts	0x0259, r24	; 0x800259 <commFlags>
				myModbusFrame.nBytes = 5;
     716:	e9 e6       	ldi	r30, 0x69	; 105
     718:	f2 e0       	ldi	r31, 0x02	; 2
     71a:	85 e0       	ldi	r24, 0x05	; 5
     71c:	81 83       	std	Z+1, r24	; 0x01
				myModbusFrame.crcSlave = 0xFFFF;
     71e:	8f ef       	ldi	r24, 0xFF	; 255
     720:	9f ef       	ldi	r25, 0xFF	; 255
     722:	95 83       	std	Z+5, r25	; 0x05
     724:	84 83       	std	Z+4, r24	; 0x04
				MODBUS_CalculateCRC(data);
     726:	8c 2f       	mov	r24, r28
     728:	0e 94 43 03 	call	0x686	; 0x686 <MODBUS_CalculateCRC>
				decodeState = FUNCTION;			
     72c:	81 e0       	ldi	r24, 0x01	; 1
     72e:	80 93 58 01 	sts	0x0158, r24	; 0x800158 <decodeState>
     732:	80 c0       	rjmp	.+256    	; 0x834 <__DATA_REGION_LENGTH__+0x34>
			}else{
				decodeState = DISCARD;
     734:	86 e0       	ldi	r24, 0x06	; 6
     736:	80 93 58 01 	sts	0x0158, r24	; 0x800158 <decodeState>
     73a:	7c c0       	rjmp	.+248    	; 0x834 <__DATA_REGION_LENGTH__+0x34>
			}
		break;
		case FUNCTION:
			myModbusFrame.function = data;
     73c:	09 e6       	ldi	r16, 0x69	; 105
     73e:	12 e0       	ldi	r17, 0x02	; 2
     740:	f8 01       	movw	r30, r16
     742:	80 83       	st	Z, r24
			MODBUS_CalculateCRC(data);
     744:	0e 94 43 03 	call	0x686	; 0x686 <MODBUS_CalculateCRC>
			myModbusFrame.nBytes--;
     748:	f8 01       	movw	r30, r16
     74a:	81 81       	ldd	r24, Z+1	; 0x01
     74c:	9f ef       	ldi	r25, 0xFF	; 255
     74e:	98 0f       	add	r25, r24
     750:	91 83       	std	Z+1, r25	; 0x01
			if(data == WRITE_MULTIPLE_REGISTERS) myModbusFrame.nBytes++; 
     752:	c0 31       	cpi	r28, 0x10	; 16
     754:	11 f4       	brne	.+4      	; 0x75a <MODBUS_DecodeFrame+0x8c>
     756:	80 93 6a 02 	sts	0x026A, r24	; 0x80026a <myModbusFrame+0x1>
			decodeState = DATA;
     75a:	82 e0       	ldi	r24, 0x02	; 2
     75c:	80 93 58 01 	sts	0x0158, r24	; 0x800158 <decodeState>
		break;
     760:	69 c0       	rjmp	.+210    	; 0x834 <__DATA_REGION_LENGTH__+0x34>
		case DATA:
			bufferRx[indexRxW++] = data;
     762:	e0 91 68 02 	lds	r30, 0x0268	; 0x800268 <indexRxW>
     766:	81 e0       	ldi	r24, 0x01	; 1
     768:	8e 0f       	add	r24, r30
     76a:	80 93 68 02 	sts	0x0268, r24	; 0x800268 <indexRxW>
     76e:	f0 e0       	ldi	r31, 0x00	; 0
     770:	e7 5a       	subi	r30, 0xA7	; 167
     772:	fe 4f       	sbci	r31, 0xFE	; 254
     774:	c0 83       	st	Z, r28
			MODBUS_CalculateCRC(data);
     776:	8c 2f       	mov	r24, r28
     778:	0e 94 43 03 	call	0x686	; 0x686 <MODBUS_CalculateCRC>
			myModbusFrame.nBytes--;
     77c:	e9 e6       	ldi	r30, 0x69	; 105
     77e:	f2 e0       	ldi	r31, 0x02	; 2
     780:	81 81       	ldd	r24, Z+1	; 0x01
     782:	81 50       	subi	r24, 0x01	; 1
     784:	81 83       	std	Z+1, r24	; 0x01
			if(myModbusFrame.nBytes == 0){
     786:	81 11       	cpse	r24, r1
     788:	55 c0       	rjmp	.+170    	; 0x834 <__DATA_REGION_LENGTH__+0x34>
				if(myModbusFrame.function == WRITE_MULTIPLE_REGISTERS){
     78a:	80 91 69 02 	lds	r24, 0x0269	; 0x800269 <myModbusFrame>
     78e:	80 31       	cpi	r24, 0x10	; 16
     790:	31 f4       	brne	.+12     	; 0x79e <MODBUS_DecodeFrame+0xd0>
					myModbusFrame.nBytes = data;
     792:	c0 93 6a 02 	sts	0x026A, r28	; 0x80026a <myModbusFrame+0x1>
					decodeState = EXTRADATA;
     796:	83 e0       	ldi	r24, 0x03	; 3
     798:	80 93 58 01 	sts	0x0158, r24	; 0x800158 <decodeState>
     79c:	4b c0       	rjmp	.+150    	; 0x834 <__DATA_REGION_LENGTH__+0x34>
				}else{
					decodeState = CRCL;
     79e:	85 e0       	ldi	r24, 0x05	; 5
     7a0:	80 93 58 01 	sts	0x0158, r24	; 0x800158 <decodeState>
     7a4:	47 c0       	rjmp	.+142    	; 0x834 <__DATA_REGION_LENGTH__+0x34>
				}
			}
		break;
		case EXTRADATA:
			bufferRx[indexRxW++] = data;
     7a6:	e0 91 68 02 	lds	r30, 0x0268	; 0x800268 <indexRxW>
     7aa:	81 e0       	ldi	r24, 0x01	; 1
     7ac:	8e 0f       	add	r24, r30
     7ae:	80 93 68 02 	sts	0x0268, r24	; 0x800268 <indexRxW>
     7b2:	f0 e0       	ldi	r31, 0x00	; 0
     7b4:	e7 5a       	subi	r30, 0xA7	; 167
     7b6:	fe 4f       	sbci	r31, 0xFE	; 254
     7b8:	c0 83       	st	Z, r28
			MODBUS_CalculateCRC(data);
     7ba:	8c 2f       	mov	r24, r28
     7bc:	0e 94 43 03 	call	0x686	; 0x686 <MODBUS_CalculateCRC>
			myModbusFrame.nBytes--;
     7c0:	e9 e6       	ldi	r30, 0x69	; 105
     7c2:	f2 e0       	ldi	r31, 0x02	; 2
     7c4:	81 81       	ldd	r24, Z+1	; 0x01
     7c6:	81 50       	subi	r24, 0x01	; 1
     7c8:	81 83       	std	Z+1, r24	; 0x01
			if(myModbusFrame.nBytes == 0){
     7ca:	81 11       	cpse	r24, r1
     7cc:	33 c0       	rjmp	.+102    	; 0x834 <__DATA_REGION_LENGTH__+0x34>
				decodeState = CRCL;
     7ce:	85 e0       	ldi	r24, 0x05	; 5
     7d0:	80 93 58 01 	sts	0x0158, r24	; 0x800158 <decodeState>
     7d4:	2f c0       	rjmp	.+94     	; 0x834 <__DATA_REGION_LENGTH__+0x34>
			}
		break;
		case CRCL:
			myModbusFrame.crcMaster = data;
     7d6:	c8 2f       	mov	r28, r24
     7d8:	d0 e0       	ldi	r29, 0x00	; 0
     7da:	d0 93 70 02 	sts	0x0270, r29	; 0x800270 <myModbusFrame+0x7>
     7de:	c0 93 6f 02 	sts	0x026F, r28	; 0x80026f <myModbusFrame+0x6>
			decodeState = CRCH;
     7e2:	84 e0       	ldi	r24, 0x04	; 4
     7e4:	80 93 58 01 	sts	0x0158, r24	; 0x800158 <decodeState>
		break;
     7e8:	25 c0       	rjmp	.+74     	; 0x834 <__DATA_REGION_LENGTH__+0x34>
		case CRCH:
			myModbusFrame.crcMaster |= (uint16_t)(data << 8);
     7ea:	20 e0       	ldi	r18, 0x00	; 0
     7ec:	38 2f       	mov	r19, r24
     7ee:	e9 e6       	ldi	r30, 0x69	; 105
     7f0:	f2 e0       	ldi	r31, 0x02	; 2
     7f2:	86 81       	ldd	r24, Z+6	; 0x06
     7f4:	97 81       	ldd	r25, Z+7	; 0x07
     7f6:	82 2b       	or	r24, r18
     7f8:	93 2b       	or	r25, r19
     7fa:	97 83       	std	Z+7, r25	; 0x07
     7fc:	86 83       	std	Z+6, r24	; 0x06
			if(myModbusFrame.crcSlave == myModbusFrame.crcMaster){
     7fe:	24 81       	ldd	r18, Z+4	; 0x04
     800:	35 81       	ldd	r19, Z+5	; 0x05
     802:	82 17       	cp	r24, r18
     804:	93 07       	cpc	r25, r19
     806:	31 f4       	brne	.+12     	; 0x814 <__DATA_REGION_LENGTH__+0x14>
				commFlags.iFlags.dataReady = 1;
     808:	80 91 59 02 	lds	r24, 0x0259	; 0x800259 <commFlags>
     80c:	82 60       	ori	r24, 0x02	; 2
     80e:	80 93 59 02 	sts	0x0259, r24	; 0x800259 <commFlags>
     812:	04 c0       	rjmp	.+8      	; 0x81c <__DATA_REGION_LENGTH__+0x1c>
			}else{
				indexRxR = indexRxW;
     814:	80 91 68 02 	lds	r24, 0x0268	; 0x800268 <indexRxW>
     818:	80 93 64 02 	sts	0x0264, r24	; 0x800264 <indexRxR>
			}
			decodeState = IDLE;
     81c:	10 92 58 01 	sts	0x0158, r1	; 0x800158 <decodeState>
		break;
     820:	09 c0       	rjmp	.+18     	; 0x834 <__DATA_REGION_LENGTH__+0x34>
		case DISCARD: 
			trashByte = data;
     822:	80 93 5d 02 	sts	0x025D, r24	; 0x80025d <trashByte>
		break;
     826:	06 c0       	rjmp	.+12     	; 0x834 <__DATA_REGION_LENGTH__+0x34>
		default:
			decodeState = IDLE;
     828:	10 92 58 01 	sts	0x0158, r1	; 0x800158 <decodeState>
			indexRxR = indexRxW;
     82c:	80 91 68 02 	lds	r24, 0x0268	; 0x800268 <indexRxW>
     830:	80 93 64 02 	sts	0x0264, r24	; 0x800264 <indexRxR>
		break;
	}
}
     834:	df 91       	pop	r29
     836:	cf 91       	pop	r28
     838:	1f 91       	pop	r17
     83a:	0f 91       	pop	r16
     83c:	08 95       	ret

0000083e <__vector_18>:
*/
_sEvent myEvents[MAXEVENTS] __attribute__((section(".fixed_events")));
/* END Global variables ------------------------------------------------------*/

/* Function prototypes user code ---------------------------------------------*/
ISR(USART_RX_vect){
     83e:	1f 92       	push	r1
     840:	0f 92       	push	r0
     842:	0f b6       	in	r0, 0x3f	; 63
     844:	0f 92       	push	r0
     846:	11 24       	eor	r1, r1
     848:	2f 93       	push	r18
     84a:	3f 93       	push	r19
     84c:	4f 93       	push	r20
     84e:	5f 93       	push	r21
     850:	6f 93       	push	r22
     852:	7f 93       	push	r23
     854:	8f 93       	push	r24
     856:	9f 93       	push	r25
     858:	af 93       	push	r26
     85a:	bf 93       	push	r27
     85c:	ef 93       	push	r30
     85e:	ff 93       	push	r31
	RestartTikValues(); 
     860:	0e 94 2d 01 	call	0x25a	; 0x25a <RestartTikValues>
	MODBUS_DecodeFrame(UDR0);
     864:	80 91 c6 00 	lds	r24, 0x00C6	; 0x8000c6 <__TEXT_REGION_LENGTH__+0x7f80c6>
     868:	0e 94 67 03 	call	0x6ce	; 0x6ce <MODBUS_DecodeFrame>
}
     86c:	ff 91       	pop	r31
     86e:	ef 91       	pop	r30
     870:	bf 91       	pop	r27
     872:	af 91       	pop	r26
     874:	9f 91       	pop	r25
     876:	8f 91       	pop	r24
     878:	7f 91       	pop	r23
     87a:	6f 91       	pop	r22
     87c:	5f 91       	pop	r21
     87e:	4f 91       	pop	r20
     880:	3f 91       	pop	r19
     882:	2f 91       	pop	r18
     884:	0f 90       	pop	r0
     886:	0f be       	out	0x3f, r0	; 63
     888:	0f 90       	pop	r0
     88a:	1f 90       	pop	r1
     88c:	18 95       	reti

0000088e <MODBUS_ProcessFunction>:
			indexRxR = indexRxW;
		break;
	}
}

void MODBUS_ProcessFunction(){
     88e:	ef 92       	push	r14
     890:	ff 92       	push	r15
     892:	0f 93       	push	r16
     894:	1f 93       	push	r17
     896:	cf 93       	push	r28
     898:	df 93       	push	r29
	uint8_t auxIndex, countIndex, byteCount = 0;
	uint16_t regAddress, regValue, regCant, subfunction;
	myModbusFrame.crcSlave = 0xFFFF;
     89a:	e9 e6       	ldi	r30, 0x69	; 105
     89c:	f2 e0       	ldi	r31, 0x02	; 2
     89e:	8f ef       	ldi	r24, 0xFF	; 255
     8a0:	9f ef       	ldi	r25, 0xFF	; 255
     8a2:	95 83       	std	Z+5, r25	; 0x05
     8a4:	84 83       	std	Z+4, r24	; 0x04
	switch(myModbusFrame.function){
     8a6:	80 81       	ld	r24, Z
     8a8:	86 30       	cpi	r24, 0x06	; 6
     8aa:	09 f4       	brne	.+2      	; 0x8ae <MODBUS_ProcessFunction+0x20>
     8ac:	26 c1       	rjmp	.+588    	; 0xafa <__stack+0x1fb>
     8ae:	18 f4       	brcc	.+6      	; 0x8b6 <MODBUS_ProcessFunction+0x28>
     8b0:	83 30       	cpi	r24, 0x03	; 3
     8b2:	41 f0       	breq	.+16     	; 0x8c4 <MODBUS_ProcessFunction+0x36>
     8b4:	a6 c3       	rjmp	.+1868   	; 0x1002 <__stack+0x703>
     8b6:	88 30       	cpi	r24, 0x08	; 8
     8b8:	09 f4       	brne	.+2      	; 0x8bc <MODBUS_ProcessFunction+0x2e>
     8ba:	d8 c1       	rjmp	.+944    	; 0xc6c <__stack+0x36d>
     8bc:	80 31       	cpi	r24, 0x10	; 16
     8be:	09 f4       	brne	.+2      	; 0x8c2 <MODBUS_ProcessFunction+0x34>
     8c0:	ab c2       	rjmp	.+1366   	; 0xe18 <__stack+0x519>
     8c2:	9f c3       	rjmp	.+1854   	; 0x1002 <__stack+0x703>
		case READ_HOLDING_REGISTERS:
			myModbusFrame.errorCode = 0x83;
     8c4:	83 e8       	ldi	r24, 0x83	; 131
     8c6:	80 93 6b 02 	sts	0x026B, r24	; 0x80026b <myModbusFrame+0x2>
			if(commFlags.iFlags.isBroadcast){
     8ca:	80 91 59 02 	lds	r24, 0x0259	; 0x800259 <commFlags>
     8ce:	84 ff       	sbrs	r24, 4
     8d0:	04 c0       	rjmp	.+8      	; 0x8da <MODBUS_ProcessFunction+0x4c>
				commFlags.iFlags.isBroadcast = 0;
     8d2:	8f 7e       	andi	r24, 0xEF	; 239
     8d4:	80 93 59 02 	sts	0x0259, r24	; 0x800259 <commFlags>
				return;
     8d8:	a4 c3       	rjmp	.+1864   	; 0x1022 <__stack+0x723>
			}
			//Direccion inicial
			myWord.ui8[1] = bufferRx[indexRxR++];
     8da:	a0 91 64 02 	lds	r26, 0x0264	; 0x800264 <indexRxR>
     8de:	e1 e0       	ldi	r30, 0x01	; 1
     8e0:	ea 0f       	add	r30, r26
     8e2:	e0 93 64 02 	sts	0x0264, r30	; 0x800264 <indexRxR>
     8e6:	b0 e0       	ldi	r27, 0x00	; 0
     8e8:	a7 5a       	subi	r26, 0xA7	; 167
     8ea:	be 4f       	sbci	r27, 0xFE	; 254
     8ec:	8c 91       	ld	r24, X
     8ee:	cf e5       	ldi	r28, 0x5F	; 95
     8f0:	d2 e0       	ldi	r29, 0x02	; 2
     8f2:	89 83       	std	Y+1, r24	; 0x01
			myWord.ui8[0] = bufferRx[indexRxR++];
     8f4:	a1 e0       	ldi	r26, 0x01	; 1
     8f6:	ae 0f       	add	r26, r30
     8f8:	a0 93 64 02 	sts	0x0264, r26	; 0x800264 <indexRxR>
     8fc:	f0 e0       	ldi	r31, 0x00	; 0
     8fe:	e7 5a       	subi	r30, 0xA7	; 167
     900:	fe 4f       	sbci	r31, 0xFE	; 254
     902:	80 81       	ld	r24, Z
     904:	88 83       	st	Y, r24
			regAddress = myWord.ui16[0];
     906:	88 81       	ld	r24, Y
     908:	99 81       	ldd	r25, Y+1	; 0x01
			//Cantidad de registros
			myWord.ui8[1] = bufferRx[indexRxR++];
     90a:	e1 e0       	ldi	r30, 0x01	; 1
     90c:	ea 0f       	add	r30, r26
     90e:	e0 93 64 02 	sts	0x0264, r30	; 0x800264 <indexRxR>
     912:	b0 e0       	ldi	r27, 0x00	; 0
     914:	a7 5a       	subi	r26, 0xA7	; 167
     916:	be 4f       	sbci	r27, 0xFE	; 254
     918:	2c 91       	ld	r18, X
     91a:	29 83       	std	Y+1, r18	; 0x01
			myWord.ui8[0] = bufferRx[indexRxR++];
     91c:	21 e0       	ldi	r18, 0x01	; 1
     91e:	2e 0f       	add	r18, r30
     920:	20 93 64 02 	sts	0x0264, r18	; 0x800264 <indexRxR>
     924:	f0 e0       	ldi	r31, 0x00	; 0
     926:	e7 5a       	subi	r30, 0xA7	; 167
     928:	fe 4f       	sbci	r31, 0xFE	; 254
     92a:	20 81       	ld	r18, Z
     92c:	28 83       	st	Y, r18
			regCant = myWord.ui16[0];
     92e:	09 90       	ld	r0, Y+
     930:	d8 81       	ld	r29, Y
     932:	c0 2d       	mov	r28, r0
			//Controlar cantidad 
			if(regCant<1 || regCant > 0x07B){ //error cantidad
     934:	9e 01       	movw	r18, r28
     936:	21 50       	subi	r18, 0x01	; 1
     938:	31 09       	sbc	r19, r1
     93a:	2b 37       	cpi	r18, 0x7B	; 123
     93c:	31 05       	cpc	r19, r1
     93e:	48 f0       	brcs	.+18     	; 0x952 <__stack+0x53>
				myModbusFrame.excepCode = INVALID_DATA_VALUE;
     940:	83 e0       	ldi	r24, 0x03	; 3
     942:	80 93 6c 02 	sts	0x026C, r24	; 0x80026c <myModbusFrame+0x3>
			    commFlags.iFlags.isExceptionCode = 1;
     946:	80 91 59 02 	lds	r24, 0x0259	; 0x800259 <commFlags>
     94a:	88 60       	ori	r24, 0x08	; 8
     94c:	80 93 59 02 	sts	0x0259, r24	; 0x800259 <commFlags>
				return;
     950:	68 c3       	rjmp	.+1744   	; 0x1022 <__stack+0x723>
			}
			//Controlar validez direcciones
			if((regAddress <= 0) || ((regAddress > MAXEVENTS) && (regAddress < START_CONFIG_ADDRESS)) || (regAddress>END_CONFIG_ADDRESS_R && regAddress <START_EVENT_ADDRESS) || regAddress > END_EVENT_ADDRESS){
     952:	00 97       	sbiw	r24, 0x00	; 0
     954:	81 f0       	breq	.+32     	; 0x976 <__stack+0x77>
     956:	9c 01       	movw	r18, r24
     958:	23 53       	subi	r18, 0x33	; 51
     95a:	31 09       	sbc	r19, r1
     95c:	2d 3c       	cpi	r18, 0xCD	; 205
     95e:	43 e0       	ldi	r20, 0x03	; 3
     960:	34 07       	cpc	r19, r20
     962:	48 f0       	brcs	.+18     	; 0x976 <__stack+0x77>
     964:	21 5e       	subi	r18, 0xE1	; 225
     966:	33 40       	sbci	r19, 0x03	; 3
     968:	2e 35       	cpi	r18, 0x5E	; 94
     96a:	33 40       	sbci	r19, 0x03	; 3
     96c:	20 f0       	brcs	.+8      	; 0x976 <__stack+0x77>
     96e:	8f 39       	cpi	r24, 0x9F	; 159
     970:	a8 e0       	ldi	r26, 0x08	; 8
     972:	9a 07       	cpc	r25, r26
     974:	48 f0       	brcs	.+18     	; 0x988 <__stack+0x89>
				myModbusFrame.excepCode = INVALID_DATA_ADDRESS;
     976:	82 e0       	ldi	r24, 0x02	; 2
     978:	80 93 6c 02 	sts	0x026C, r24	; 0x80026c <myModbusFrame+0x3>
				commFlags.iFlags.isExceptionCode = 1;
     97c:	80 91 59 02 	lds	r24, 0x0259	; 0x800259 <commFlags>
     980:	88 60       	ori	r24, 0x08	; 8
     982:	80 93 59 02 	sts	0x0259, r24	; 0x800259 <commFlags>
				return;
     986:	4d c3       	rjmp	.+1690   	; 0x1022 <__stack+0x723>
			}			
			if(regAddress>=START_CONFIG_ADDRESS && regAddress <= END_CONFIG_ADDRESS_R){
     988:	9c 01       	movw	r18, r24
     98a:	34 50       	subi	r19, 0x04	; 4
     98c:	24 31       	cpi	r18, 0x14	; 20
     98e:	31 05       	cpc	r19, r1
     990:	98 f4       	brcc	.+38     	; 0x9b8 <__stack+0xb9>
				if((regAddress+((regCant -1)*2) > END_CONFIG_ADDRESS_R)){
     992:	9e 01       	movw	r18, r28
     994:	21 50       	subi	r18, 0x01	; 1
     996:	30 48       	sbci	r19, 0x80	; 128
     998:	22 0f       	add	r18, r18
     99a:	33 1f       	adc	r19, r19
     99c:	28 0f       	add	r18, r24
     99e:	39 1f       	adc	r19, r25
     9a0:	24 31       	cpi	r18, 0x14	; 20
     9a2:	34 40       	sbci	r19, 0x04	; 4
     9a4:	48 f0       	brcs	.+18     	; 0x9b8 <__stack+0xb9>
					//error address
					myModbusFrame.excepCode = INVALID_DATA_ADDRESS;
     9a6:	82 e0       	ldi	r24, 0x02	; 2
     9a8:	80 93 6c 02 	sts	0x026C, r24	; 0x80026c <myModbusFrame+0x3>
					commFlags.iFlags.isExceptionCode = 1;
     9ac:	80 91 59 02 	lds	r24, 0x0259	; 0x800259 <commFlags>
     9b0:	88 60       	ori	r24, 0x08	; 8
     9b2:	80 93 59 02 	sts	0x0259, r24	; 0x800259 <commFlags>
					return;
     9b6:	35 c3       	rjmp	.+1642   	; 0x1022 <__stack+0x723>
				}

			}
			if(regAddress>=START_EVENT_ADDRESS && regAddress <= END_EVENT_ADDRESS){
     9b8:	9c 01       	movw	r18, r24
     9ba:	22 57       	subi	r18, 0x72	; 114
     9bc:	37 40       	sbci	r19, 0x07	; 7
     9be:	2d 32       	cpi	r18, 0x2D	; 45
     9c0:	31 40       	sbci	r19, 0x01	; 1
     9c2:	98 f4       	brcc	.+38     	; 0x9ea <__stack+0xeb>
				if((regAddress + (regCant -1)*2) > END_EVENT_ADDRESS){
     9c4:	9e 01       	movw	r18, r28
     9c6:	21 50       	subi	r18, 0x01	; 1
     9c8:	30 48       	sbci	r19, 0x80	; 128
     9ca:	22 0f       	add	r18, r18
     9cc:	33 1f       	adc	r19, r19
     9ce:	28 0f       	add	r18, r24
     9d0:	39 1f       	adc	r19, r25
     9d2:	2f 39       	cpi	r18, 0x9F	; 159
     9d4:	38 40       	sbci	r19, 0x08	; 8
     9d6:	48 f0       	brcs	.+18     	; 0x9ea <__stack+0xeb>
					myModbusFrame.excepCode = INVALID_DATA_ADDRESS;
     9d8:	82 e0       	ldi	r24, 0x02	; 2
     9da:	80 93 6c 02 	sts	0x026C, r24	; 0x80026c <myModbusFrame+0x3>
					commFlags.iFlags.isExceptionCode = 1;
     9de:	80 91 59 02 	lds	r24, 0x0259	; 0x800259 <commFlags>
     9e2:	88 60       	ori	r24, 0x08	; 8
     9e4:	80 93 59 02 	sts	0x0259, r24	; 0x800259 <commFlags>
					return;
     9e8:	1c c3       	rjmp	.+1592   	; 0x1022 <__stack+0x723>
				}
			}
			// Cargar mensaje de respuesta
			bufferTx[indexTxW++] = slaveAddress;
     9ea:	a0 91 52 01 	lds	r26, 0x0152	; 0x800152 <indexTxW>
     9ee:	e1 e0       	ldi	r30, 0x01	; 1
     9f0:	ea 0f       	add	r30, r26
     9f2:	b0 e0       	ldi	r27, 0x00	; 0
     9f4:	ae 58       	subi	r26, 0x8E	; 142
     9f6:	bd 4f       	sbci	r27, 0xFD	; 253
     9f8:	20 91 ff 03 	lds	r18, 0x03FF	; 0x8003ff <slaveAddress>
     9fc:	2c 93       	st	X, r18
			bufferTx[indexTxW++] = READ_HOLDING_REGISTERS;
     9fe:	01 e0       	ldi	r16, 0x01	; 1
     a00:	0e 0f       	add	r16, r30
     a02:	f0 e0       	ldi	r31, 0x00	; 0
     a04:	ee 58       	subi	r30, 0x8E	; 142
     a06:	fd 4f       	sbci	r31, 0xFD	; 253
     a08:	23 e0       	ldi	r18, 0x03	; 3
     a0a:	20 83       	st	Z, r18
			countIndex = indexTxW;
			bufferTx[indexTxW++] = 0x00; 
     a0c:	21 e0       	ldi	r18, 0x01	; 1
     a0e:	20 0f       	add	r18, r16
     a10:	20 93 52 01 	sts	0x0152, r18	; 0x800152 <indexTxW>
     a14:	10 e0       	ldi	r17, 0x00	; 0
     a16:	f8 01       	movw	r30, r16
     a18:	ee 58       	subi	r30, 0x8E	; 142
     a1a:	fd 4f       	sbci	r31, 0xFD	; 253
     a1c:	10 82       	st	Z, r1
			if(regAddress > 0 && regAddress < MAXEVENTS){
     a1e:	9c 01       	movw	r18, r24
     a20:	21 50       	subi	r18, 0x01	; 1
     a22:	31 09       	sbc	r19, r1
     a24:	21 33       	cpi	r18, 0x31	; 49
     a26:	31 05       	cpc	r19, r1
     a28:	38 f5       	brcc	.+78     	; 0xa78 <__stack+0x179>
				LoadEvents((regCant/3));
     a2a:	9e 01       	movw	r18, r28
     a2c:	ab ea       	ldi	r26, 0xAB	; 171
     a2e:	ba ea       	ldi	r27, 0xAA	; 170
     a30:	0e 94 65 0d 	call	0x1aca	; 0x1aca <__umulhisi3>
     a34:	7c 01       	movw	r14, r24
     a36:	f6 94       	lsr	r15
     a38:	e7 94       	ror	r14
     a3a:	c7 01       	movw	r24, r14
     a3c:	0e 94 d1 02 	call	0x5a2	; 0x5a2 <LoadEvents>
				modbusRegister.newEventCounter -= (regCant/3); 				
     a40:	e0 e0       	ldi	r30, 0x00	; 0
     a42:	f4 e0       	ldi	r31, 0x04	; 4
     a44:	80 89       	ldd	r24, Z+16	; 0x10
     a46:	91 89       	ldd	r25, Z+17	; 0x11
     a48:	8e 19       	sub	r24, r14
     a4a:	9f 09       	sbc	r25, r15
     a4c:	91 8b       	std	Z+17, r25	; 0x11
     a4e:	80 8b       	std	Z+16, r24	; 0x10
				byteCount = regCant * 2;
     a50:	5c 2f       	mov	r21, r28
     a52:	55 0f       	add	r21, r21
     a54:	1b c0       	rjmp	.+54     	; 0xa8c <__stack+0x18d>
			}else{
				for(uint8_t i=0 ; i<(regCant*2) ; i++){
					bufferTx[indexTxW++] = *((uint8_t *)(regAddress + i)); 
     a56:	e0 91 52 01 	lds	r30, 0x0152	; 0x800152 <indexTxW>
     a5a:	61 e0       	ldi	r22, 0x01	; 1
     a5c:	6e 0f       	add	r22, r30
     a5e:	60 93 52 01 	sts	0x0152, r22	; 0x800152 <indexTxW>
     a62:	f0 e0       	ldi	r31, 0x00	; 0
     a64:	dc 01       	movw	r26, r24
     a66:	a2 0f       	add	r26, r18
     a68:	b3 1f       	adc	r27, r19
     a6a:	2c 91       	ld	r18, X
     a6c:	ee 58       	subi	r30, 0x8E	; 142
     a6e:	fd 4f       	sbci	r31, 0xFD	; 253
     a70:	20 83       	st	Z, r18
					byteCount++;
     a72:	5f 5f       	subi	r21, 0xFF	; 255
			if(regAddress > 0 && regAddress < MAXEVENTS){
				LoadEvents((regCant/3));
				modbusRegister.newEventCounter -= (regCant/3); 				
				byteCount = regCant * 2;
			}else{
				for(uint8_t i=0 ; i<(regCant*2) ; i++){
     a74:	4f 5f       	subi	r20, 0xFF	; 255
     a76:	02 c0       	rjmp	.+4      	; 0xa7c <__stack+0x17d>
     a78:	40 e0       	ldi	r20, 0x00	; 0
     a7a:	50 e0       	ldi	r21, 0x00	; 0
     a7c:	24 2f       	mov	r18, r20
     a7e:	30 e0       	ldi	r19, 0x00	; 0
     a80:	be 01       	movw	r22, r28
     a82:	66 0f       	add	r22, r22
     a84:	77 1f       	adc	r23, r23
     a86:	26 17       	cp	r18, r22
     a88:	37 07       	cpc	r19, r23
     a8a:	28 f3       	brcs	.-54     	; 0xa56 <__stack+0x157>
					bufferTx[indexTxW++] = *((uint8_t *)(regAddress + i)); 
					byteCount++;
				}
			}
			bufferTx[countIndex] = byteCount;
     a8c:	f8 01       	movw	r30, r16
     a8e:	ee 58       	subi	r30, 0x8E	; 142
     a90:	fd 4f       	sbci	r31, 0xFD	; 253
     a92:	50 83       	st	Z, r21
			
			auxIndex = indexTxR;
     a94:	e0 91 5c 02 	lds	r30, 0x025C	; 0x80025c <indexTxR>
			while(auxIndex != indexTxW){
     a98:	09 c0       	rjmp	.+18     	; 0xaac <__stack+0x1ad>
				MODBUS_CalculateCRC(bufferTx[auxIndex++]);
     a9a:	c1 e0       	ldi	r28, 0x01	; 1
     a9c:	ce 0f       	add	r28, r30
     a9e:	f0 e0       	ldi	r31, 0x00	; 0
     aa0:	ee 58       	subi	r30, 0x8E	; 142
     aa2:	fd 4f       	sbci	r31, 0xFD	; 253
     aa4:	80 81       	ld	r24, Z
     aa6:	0e 94 43 03 	call	0x686	; 0x686 <MODBUS_CalculateCRC>
     aaa:	ec 2f       	mov	r30, r28
				}
			}
			bufferTx[countIndex] = byteCount;
			
			auxIndex = indexTxR;
			while(auxIndex != indexTxW){
     aac:	80 91 52 01 	lds	r24, 0x0152	; 0x800152 <indexTxW>
     ab0:	e8 13       	cpse	r30, r24
     ab2:	f3 cf       	rjmp	.-26     	; 0xa9a <__stack+0x19b>
				MODBUS_CalculateCRC(bufferTx[auxIndex++]);
			}
			
			myWord.ui16[0] = myModbusFrame.crcSlave;
     ab4:	20 91 6d 02 	lds	r18, 0x026D	; 0x80026d <myModbusFrame+0x4>
     ab8:	90 91 6e 02 	lds	r25, 0x026E	; 0x80026e <myModbusFrame+0x5>
     abc:	af e5       	ldi	r26, 0x5F	; 95
     abe:	b2 e0       	ldi	r27, 0x02	; 2
     ac0:	2c 93       	st	X, r18
     ac2:	11 96       	adiw	r26, 0x01	; 1
     ac4:	9c 93       	st	X, r25
     ac6:	11 97       	sbiw	r26, 0x01	; 1
			bufferTx[indexTxW++] = myWord.ui8[0];
     ac8:	91 e0       	ldi	r25, 0x01	; 1
     aca:	98 0f       	add	r25, r24
     acc:	e8 2f       	mov	r30, r24
     ace:	f0 e0       	ldi	r31, 0x00	; 0
     ad0:	ee 58       	subi	r30, 0x8E	; 142
     ad2:	fd 4f       	sbci	r31, 0xFD	; 253
     ad4:	20 83       	st	Z, r18
			bufferTx[indexTxW++] = myWord.ui8[1];
     ad6:	81 e0       	ldi	r24, 0x01	; 1
     ad8:	89 0f       	add	r24, r25
     ada:	80 93 52 01 	sts	0x0152, r24	; 0x800152 <indexTxW>
     ade:	e9 2f       	mov	r30, r25
     ae0:	f0 e0       	ldi	r31, 0x00	; 0
     ae2:	11 96       	adiw	r26, 0x01	; 1
     ae4:	8c 91       	ld	r24, X
     ae6:	ee 58       	subi	r30, 0x8E	; 142
     ae8:	fd 4f       	sbci	r31, 0xFD	; 253
     aea:	80 83       	st	Z, r24
			
			tikResponse = PERIOD5MS;		
     aec:	84 ef       	ldi	r24, 0xF4	; 244
     aee:	91 e0       	ldi	r25, 0x01	; 1
     af0:	90 93 5b 02 	sts	0x025B, r25	; 0x80025b <tikResponse+0x1>
     af4:	80 93 5a 02 	sts	0x025A, r24	; 0x80025a <tikResponse>
		break;
     af8:	94 c2       	rjmp	.+1320   	; 0x1022 <__stack+0x723>
		case WRITE_SINGLE_REGISTER:
			myModbusFrame.errorCode = 0x86;
     afa:	86 e8       	ldi	r24, 0x86	; 134
     afc:	80 93 6b 02 	sts	0x026B, r24	; 0x80026b <myModbusFrame+0x2>
			
			//Direccion inicial
			myWord.ui8[1] = bufferRx[indexRxR++];
     b00:	a0 91 64 02 	lds	r26, 0x0264	; 0x800264 <indexRxR>
     b04:	e1 e0       	ldi	r30, 0x01	; 1
     b06:	ea 0f       	add	r30, r26
     b08:	e0 93 64 02 	sts	0x0264, r30	; 0x800264 <indexRxR>
     b0c:	b0 e0       	ldi	r27, 0x00	; 0
     b0e:	a7 5a       	subi	r26, 0xA7	; 167
     b10:	be 4f       	sbci	r27, 0xFE	; 254
     b12:	8c 91       	ld	r24, X
     b14:	cf e5       	ldi	r28, 0x5F	; 95
     b16:	d2 e0       	ldi	r29, 0x02	; 2
     b18:	89 83       	std	Y+1, r24	; 0x01
			myWord.ui8[0] = bufferRx[indexRxR++];
     b1a:	a1 e0       	ldi	r26, 0x01	; 1
     b1c:	ae 0f       	add	r26, r30
     b1e:	a0 93 64 02 	sts	0x0264, r26	; 0x800264 <indexRxR>
     b22:	f0 e0       	ldi	r31, 0x00	; 0
     b24:	e7 5a       	subi	r30, 0xA7	; 167
     b26:	fe 4f       	sbci	r31, 0xFE	; 254
     b28:	80 81       	ld	r24, Z
     b2a:	88 83       	st	Y, r24
			regAddress = myWord.ui16[0];
     b2c:	88 81       	ld	r24, Y
     b2e:	99 81       	ldd	r25, Y+1	; 0x01
			//Cantidad de registros
			myWord.ui8[1] = bufferRx[indexRxR++];
     b30:	e1 e0       	ldi	r30, 0x01	; 1
     b32:	ea 0f       	add	r30, r26
     b34:	e0 93 64 02 	sts	0x0264, r30	; 0x800264 <indexRxR>
     b38:	b0 e0       	ldi	r27, 0x00	; 0
     b3a:	a7 5a       	subi	r26, 0xA7	; 167
     b3c:	be 4f       	sbci	r27, 0xFE	; 254
     b3e:	2c 91       	ld	r18, X
     b40:	29 83       	std	Y+1, r18	; 0x01
			myWord.ui8[0] = bufferRx[indexRxR++];
     b42:	31 e0       	ldi	r19, 0x01	; 1
     b44:	3e 0f       	add	r19, r30
     b46:	30 93 64 02 	sts	0x0264, r19	; 0x800264 <indexRxR>
     b4a:	f0 e0       	ldi	r31, 0x00	; 0
     b4c:	e7 5a       	subi	r30, 0xA7	; 167
     b4e:	fe 4f       	sbci	r31, 0xFE	; 254
     b50:	30 81       	ld	r19, Z
     b52:	38 83       	st	Y, r19
			regValue = myWord.ui16[0];
			
			//controlar direccion
			if((regAddress < START_SLAVE_ADDRESS) || (regAddress == SLAVE_ADDRESS) || (regAddress>END_CONFIG_ADDRESS_W && regAddress <START_EVENT_ADDRESS) || regAddress > END_EVENT_ADDRESS){
     b54:	8e 3f       	cpi	r24, 0xFE	; 254
     b56:	33 e0       	ldi	r19, 0x03	; 3
     b58:	93 07       	cpc	r25, r19
     b5a:	70 f0       	brcs	.+28     	; 0xb78 <__stack+0x279>
     b5c:	8f 3f       	cpi	r24, 0xFF	; 255
     b5e:	43 e0       	ldi	r20, 0x03	; 3
     b60:	94 07       	cpc	r25, r20
     b62:	51 f0       	breq	.+20     	; 0xb78 <__stack+0x279>
     b64:	ac 01       	movw	r20, r24
     b66:	4e 50       	subi	r20, 0x0E	; 14
     b68:	54 40       	sbci	r21, 0x04	; 4
     b6a:	44 36       	cpi	r20, 0x64	; 100
     b6c:	53 40       	sbci	r21, 0x03	; 3
     b6e:	20 f0       	brcs	.+8      	; 0xb78 <__stack+0x279>
     b70:	8f 39       	cpi	r24, 0x9F	; 159
     b72:	a8 e0       	ldi	r26, 0x08	; 8
     b74:	9a 07       	cpc	r25, r26
     b76:	48 f0       	brcs	.+18     	; 0xb8a <__stack+0x28b>
				myModbusFrame.excepCode = INVALID_DATA_ADDRESS;
     b78:	82 e0       	ldi	r24, 0x02	; 2
     b7a:	80 93 6c 02 	sts	0x026C, r24	; 0x80026c <myModbusFrame+0x3>
				commFlags.iFlags.isExceptionCode = 1;
     b7e:	80 91 59 02 	lds	r24, 0x0259	; 0x800259 <commFlags>
     b82:	88 60       	ori	r24, 0x08	; 8
     b84:	80 93 59 02 	sts	0x0259, r24	; 0x800259 <commFlags>
				return;
     b88:	4c c2       	rjmp	.+1176   	; 0x1022 <__stack+0x723>
			}
			
			*((uint8_t *)(regAddress)) = myWord.ui8[1];
     b8a:	ec 01       	movw	r28, r24
     b8c:	28 83       	st	Y, r18
			*((uint8_t *)(regAddress+1)) = myWord.ui8[0];
     b8e:	20 91 5f 02 	lds	r18, 0x025F	; 0x80025f <myWord>
     b92:	29 83       	std	Y+1, r18	; 0x01
		
			if(commFlags.iFlags.isBroadcast){
     b94:	20 91 59 02 	lds	r18, 0x0259	; 0x800259 <commFlags>
     b98:	24 ff       	sbrs	r18, 4
     b9a:	05 c0       	rjmp	.+10     	; 0xba6 <__stack+0x2a7>
				commFlags.iFlags.isBroadcast = 0;
     b9c:	82 2f       	mov	r24, r18
     b9e:	8f 7e       	andi	r24, 0xEF	; 239
     ba0:	80 93 59 02 	sts	0x0259, r24	; 0x800259 <commFlags>
				return;
     ba4:	3e c2       	rjmp	.+1148   	; 0x1022 <__stack+0x723>
			}
		
			bufferTx[indexTxW++] = (uint8_t)MODBUS_SLAVE_ADDRESS;
     ba6:	a0 91 52 01 	lds	r26, 0x0152	; 0x800152 <indexTxW>
     baa:	e1 e0       	ldi	r30, 0x01	; 1
     bac:	ea 0f       	add	r30, r26
     bae:	b0 e0       	ldi	r27, 0x00	; 0
     bb0:	20 91 ff 03 	lds	r18, 0x03FF	; 0x8003ff <slaveAddress>
     bb4:	ae 58       	subi	r26, 0x8E	; 142
     bb6:	bd 4f       	sbci	r27, 0xFD	; 253
     bb8:	2c 93       	st	X, r18
			bufferTx[indexTxW++] = WRITE_SINGLE_REGISTER;
     bba:	a1 e0       	ldi	r26, 0x01	; 1
     bbc:	ae 0f       	add	r26, r30
     bbe:	f0 e0       	ldi	r31, 0x00	; 0
     bc0:	ee 58       	subi	r30, 0x8E	; 142
     bc2:	fd 4f       	sbci	r31, 0xFD	; 253
     bc4:	26 e0       	ldi	r18, 0x06	; 6
     bc6:	20 83       	st	Z, r18
			myWord.ui16[0] = regAddress;
     bc8:	cf e5       	ldi	r28, 0x5F	; 95
     bca:	d2 e0       	ldi	r29, 0x02	; 2
     bcc:	99 83       	std	Y+1, r25	; 0x01
     bce:	88 83       	st	Y, r24
			bufferTx[indexTxW++] = myWord.ui8[1];
     bd0:	e1 e0       	ldi	r30, 0x01	; 1
     bd2:	ea 0f       	add	r30, r26
     bd4:	b0 e0       	ldi	r27, 0x00	; 0
     bd6:	29 81       	ldd	r18, Y+1	; 0x01
     bd8:	ae 58       	subi	r26, 0x8E	; 142
     bda:	bd 4f       	sbci	r27, 0xFD	; 253
     bdc:	2c 93       	st	X, r18
			bufferTx[indexTxW++] = myWord.ui8[0];
     bde:	a1 e0       	ldi	r26, 0x01	; 1
     be0:	ae 0f       	add	r26, r30
     be2:	f0 e0       	ldi	r31, 0x00	; 0
     be4:	28 81       	ld	r18, Y
     be6:	ee 58       	subi	r30, 0x8E	; 142
     be8:	fd 4f       	sbci	r31, 0xFD	; 253
     bea:	20 83       	st	Z, r18
			bufferTx[indexTxW++] = *((uint8_t *)(regAddress));
     bec:	e1 e0       	ldi	r30, 0x01	; 1
     bee:	ea 0f       	add	r30, r26
     bf0:	e0 93 52 01 	sts	0x0152, r30	; 0x800152 <indexTxW>
     bf4:	b0 e0       	ldi	r27, 0x00	; 0
     bf6:	ec 01       	movw	r28, r24
     bf8:	28 81       	ld	r18, Y
     bfa:	ae 58       	subi	r26, 0x8E	; 142
     bfc:	bd 4f       	sbci	r27, 0xFD	; 253
     bfe:	2c 93       	st	X, r18
			bufferTx[indexTxW++] = *((uint8_t *)(regAddress+1));
     c00:	21 e0       	ldi	r18, 0x01	; 1
     c02:	2e 0f       	add	r18, r30
     c04:	20 93 52 01 	sts	0x0152, r18	; 0x800152 <indexTxW>
     c08:	f0 e0       	ldi	r31, 0x00	; 0
     c0a:	89 81       	ldd	r24, Y+1	; 0x01
     c0c:	ee 58       	subi	r30, 0x8E	; 142
     c0e:	fd 4f       	sbci	r31, 0xFD	; 253
     c10:	80 83       	st	Z, r24
		
			auxIndex = indexTxR;
     c12:	e0 91 5c 02 	lds	r30, 0x025C	; 0x80025c <indexTxR>
			while(auxIndex != indexTxW){
     c16:	09 c0       	rjmp	.+18     	; 0xc2a <__stack+0x32b>
				MODBUS_CalculateCRC(bufferTx[auxIndex++]);
     c18:	c1 e0       	ldi	r28, 0x01	; 1
     c1a:	ce 0f       	add	r28, r30
     c1c:	f0 e0       	ldi	r31, 0x00	; 0
     c1e:	ee 58       	subi	r30, 0x8E	; 142
     c20:	fd 4f       	sbci	r31, 0xFD	; 253
     c22:	80 81       	ld	r24, Z
     c24:	0e 94 43 03 	call	0x686	; 0x686 <MODBUS_CalculateCRC>
     c28:	ec 2f       	mov	r30, r28
			bufferTx[indexTxW++] = myWord.ui8[0];
			bufferTx[indexTxW++] = *((uint8_t *)(regAddress));
			bufferTx[indexTxW++] = *((uint8_t *)(regAddress+1));
		
			auxIndex = indexTxR;
			while(auxIndex != indexTxW){
     c2a:	80 91 52 01 	lds	r24, 0x0152	; 0x800152 <indexTxW>
     c2e:	e8 13       	cpse	r30, r24
     c30:	f3 cf       	rjmp	.-26     	; 0xc18 <__stack+0x319>
				MODBUS_CalculateCRC(bufferTx[auxIndex++]);
			}
			myWord.ui16[0] = myModbusFrame.crcSlave;
     c32:	20 91 6d 02 	lds	r18, 0x026D	; 0x80026d <myModbusFrame+0x4>
     c36:	90 91 6e 02 	lds	r25, 0x026E	; 0x80026e <myModbusFrame+0x5>
     c3a:	af e5       	ldi	r26, 0x5F	; 95
     c3c:	b2 e0       	ldi	r27, 0x02	; 2
     c3e:	2c 93       	st	X, r18
     c40:	11 96       	adiw	r26, 0x01	; 1
     c42:	9c 93       	st	X, r25
     c44:	11 97       	sbiw	r26, 0x01	; 1
			bufferTx[indexTxW++] = myWord.ui8[0];
     c46:	91 e0       	ldi	r25, 0x01	; 1
     c48:	98 0f       	add	r25, r24
     c4a:	e8 2f       	mov	r30, r24
     c4c:	f0 e0       	ldi	r31, 0x00	; 0
     c4e:	ee 58       	subi	r30, 0x8E	; 142
     c50:	fd 4f       	sbci	r31, 0xFD	; 253
     c52:	20 83       	st	Z, r18
			bufferTx[indexTxW++] = myWord.ui8[1];
     c54:	81 e0       	ldi	r24, 0x01	; 1
     c56:	89 0f       	add	r24, r25
     c58:	80 93 52 01 	sts	0x0152, r24	; 0x800152 <indexTxW>
     c5c:	e9 2f       	mov	r30, r25
     c5e:	f0 e0       	ldi	r31, 0x00	; 0
     c60:	11 96       	adiw	r26, 0x01	; 1
     c62:	8c 91       	ld	r24, X
     c64:	ee 58       	subi	r30, 0x8E	; 142
     c66:	fd 4f       	sbci	r31, 0xFD	; 253
     c68:	80 83       	st	Z, r24
		break;
     c6a:	db c1       	rjmp	.+950    	; 0x1022 <__stack+0x723>
		case DIAGNOSTICS:
			myModbusFrame.errorCode = 0x88;
     c6c:	88 e8       	ldi	r24, 0x88	; 136
     c6e:	80 93 6b 02 	sts	0x026B, r24	; 0x80026b <myModbusFrame+0x2>
			if(commFlags.iFlags.isBroadcast){
     c72:	80 91 59 02 	lds	r24, 0x0259	; 0x800259 <commFlags>
     c76:	84 ff       	sbrs	r24, 4
     c78:	04 c0       	rjmp	.+8      	; 0xc82 <__stack+0x383>
				commFlags.iFlags.isBroadcast = 0;
     c7a:	8f 7e       	andi	r24, 0xEF	; 239
     c7c:	80 93 59 02 	sts	0x0259, r24	; 0x800259 <commFlags>
				return;
     c80:	d0 c1       	rjmp	.+928    	; 0x1022 <__stack+0x723>
			}
			//Subfuncion
			myWord.ui8[1] = bufferRx[indexRxR++];
     c82:	a0 91 64 02 	lds	r26, 0x0264	; 0x800264 <indexRxR>
     c86:	e1 e0       	ldi	r30, 0x01	; 1
     c88:	ea 0f       	add	r30, r26
     c8a:	e0 93 64 02 	sts	0x0264, r30	; 0x800264 <indexRxR>
     c8e:	b0 e0       	ldi	r27, 0x00	; 0
     c90:	a7 5a       	subi	r26, 0xA7	; 167
     c92:	be 4f       	sbci	r27, 0xFE	; 254
     c94:	8c 91       	ld	r24, X
     c96:	cf e5       	ldi	r28, 0x5F	; 95
     c98:	d2 e0       	ldi	r29, 0x02	; 2
     c9a:	89 83       	std	Y+1, r24	; 0x01
			myWord.ui8[0] = bufferRx[indexRxR++];
     c9c:	a1 e0       	ldi	r26, 0x01	; 1
     c9e:	ae 0f       	add	r26, r30
     ca0:	a0 93 64 02 	sts	0x0264, r26	; 0x800264 <indexRxR>
     ca4:	f0 e0       	ldi	r31, 0x00	; 0
     ca6:	e7 5a       	subi	r30, 0xA7	; 167
     ca8:	fe 4f       	sbci	r31, 0xFE	; 254
     caa:	80 81       	ld	r24, Z
     cac:	88 83       	st	Y, r24
			subfunction = myWord.ui16[0];
     cae:	88 81       	ld	r24, Y
     cb0:	99 81       	ldd	r25, Y+1	; 0x01
			myWord.ui8[1] = bufferRx[indexRxR++];
     cb2:	e1 e0       	ldi	r30, 0x01	; 1
     cb4:	ea 0f       	add	r30, r26
     cb6:	e0 93 64 02 	sts	0x0264, r30	; 0x800264 <indexRxR>
     cba:	b0 e0       	ldi	r27, 0x00	; 0
     cbc:	a7 5a       	subi	r26, 0xA7	; 167
     cbe:	be 4f       	sbci	r27, 0xFE	; 254
     cc0:	2c 91       	ld	r18, X
     cc2:	29 83       	std	Y+1, r18	; 0x01
			myWord.ui8[0] = bufferRx[indexRxR++];
     cc4:	21 e0       	ldi	r18, 0x01	; 1
     cc6:	2e 0f       	add	r18, r30
     cc8:	20 93 64 02 	sts	0x0264, r18	; 0x800264 <indexRxR>
     ccc:	f0 e0       	ldi	r31, 0x00	; 0
     cce:	e7 5a       	subi	r30, 0xA7	; 167
     cd0:	fe 4f       	sbci	r31, 0xFE	; 254
     cd2:	20 81       	ld	r18, Z
     cd4:	28 83       	st	Y, r18
			regValue = myWord.ui16[0];
     cd6:	28 81       	ld	r18, Y
     cd8:	39 81       	ldd	r19, Y+1	; 0x01
			
			switch(subfunction){
     cda:	81 30       	cpi	r24, 0x01	; 1
     cdc:	91 05       	cpc	r25, r1
     cde:	29 f0       	breq	.+10     	; 0xcea <__stack+0x3eb>
     ce0:	98 f1       	brcs	.+102    	; 0xd48 <__stack+0x449>
     ce2:	82 30       	cpi	r24, 0x02	; 2
     ce4:	91 05       	cpc	r25, r1
     ce6:	b9 f0       	breq	.+46     	; 0xd16 <__stack+0x417>
     ce8:	22 c0       	rjmp	.+68     	; 0xd2e <__stack+0x42f>
				case RETURN_QUERY_DATA:
				//Eco
				break;
				case RESTART_COMMUNICATIONS:
					if(regValue == 0x0000 || regValue == 0xFF00){
     cea:	21 15       	cp	r18, r1
     cec:	31 05       	cpc	r19, r1
     cee:	21 f0       	breq	.+8      	; 0xcf8 <__stack+0x3f9>
     cf0:	21 15       	cp	r18, r1
     cf2:	df ef       	ldi	r29, 0xFF	; 255
     cf4:	3d 07       	cpc	r19, r29
     cf6:	31 f4       	brne	.+12     	; 0xd04 <__stack+0x405>
						//Eco
						commFlags.iFlags.restartComms = 1; 
     cf8:	40 91 59 02 	lds	r20, 0x0259	; 0x800259 <commFlags>
     cfc:	40 64       	ori	r20, 0x40	; 64
     cfe:	40 93 59 02 	sts	0x0259, r20	; 0x800259 <commFlags>
						}else{
						myModbusFrame.excepCode = INVALID_DATA_VALUE;
						commFlags.iFlags.isExceptionCode = 1;
						return;
					}
				break;
     d02:	22 c0       	rjmp	.+68     	; 0xd48 <__stack+0x449>
				case RESTART_COMMUNICATIONS:
					if(regValue == 0x0000 || regValue == 0xFF00){
						//Eco
						commFlags.iFlags.restartComms = 1; 
						}else{
						myModbusFrame.excepCode = INVALID_DATA_VALUE;
     d04:	83 e0       	ldi	r24, 0x03	; 3
     d06:	80 93 6c 02 	sts	0x026C, r24	; 0x80026c <myModbusFrame+0x3>
						commFlags.iFlags.isExceptionCode = 1;
     d0a:	80 91 59 02 	lds	r24, 0x0259	; 0x800259 <commFlags>
     d0e:	88 60       	ori	r24, 0x08	; 8
     d10:	80 93 59 02 	sts	0x0259, r24	; 0x800259 <commFlags>
						return;
     d14:	86 c1       	rjmp	.+780    	; 0x1022 <__stack+0x723>
					}
				break;
				case RETURN_DIAGNOSTICS_REGISTER:
					if(regValue == 0x0000){
     d16:	21 15       	cp	r18, r1
     d18:	31 05       	cpc	r19, r1
     d1a:	b1 f0       	breq	.+44     	; 0xd48 <__stack+0x449>
						//Registro de diagnostico
						//regValue  = diagnosticsRegister;
						// regValue |= diagnosticsRegister;
						}else{
						myModbusFrame.excepCode = INVALID_DATA_VALUE;
     d1c:	83 e0       	ldi	r24, 0x03	; 3
     d1e:	80 93 6c 02 	sts	0x026C, r24	; 0x80026c <myModbusFrame+0x3>
						commFlags.iFlags.isExceptionCode = 1;
     d22:	80 91 59 02 	lds	r24, 0x0259	; 0x800259 <commFlags>
     d26:	88 60       	ori	r24, 0x08	; 8
     d28:	80 93 59 02 	sts	0x0259, r24	; 0x800259 <commFlags>
						return;
     d2c:	7a c1       	rjmp	.+756    	; 0x1022 <__stack+0x723>
					}
				break;
				default:
					myModbusFrame.excepCode = INVALID_FUNCTION;
     d2e:	81 e0       	ldi	r24, 0x01	; 1
     d30:	80 93 6c 02 	sts	0x026C, r24	; 0x80026c <myModbusFrame+0x3>
					commFlags.iFlags.isExceptionCode = 1;
     d34:	80 91 59 02 	lds	r24, 0x0259	; 0x800259 <commFlags>
     d38:	88 60       	ori	r24, 0x08	; 8
     d3a:	80 93 59 02 	sts	0x0259, r24	; 0x800259 <commFlags>
					indexRxR = indexRxW;
     d3e:	80 91 68 02 	lds	r24, 0x0268	; 0x800268 <indexRxW>
     d42:	80 93 64 02 	sts	0x0264, r24	; 0x800264 <indexRxR>
				return;
     d46:	6d c1       	rjmp	.+730    	; 0x1022 <__stack+0x723>
			}
				bufferTx[indexTxW++] = (uint8_t)MODBUS_SLAVE_ADDRESS;
     d48:	a0 91 52 01 	lds	r26, 0x0152	; 0x800152 <indexTxW>
     d4c:	e1 e0       	ldi	r30, 0x01	; 1
     d4e:	ea 0f       	add	r30, r26
     d50:	b0 e0       	ldi	r27, 0x00	; 0
     d52:	40 91 ff 03 	lds	r20, 0x03FF	; 0x8003ff <slaveAddress>
     d56:	ae 58       	subi	r26, 0x8E	; 142
     d58:	bd 4f       	sbci	r27, 0xFD	; 253
     d5a:	4c 93       	st	X, r20
				bufferTx[indexTxW++] = DIAGNOSTICS;
     d5c:	c1 e0       	ldi	r28, 0x01	; 1
     d5e:	ce 0f       	add	r28, r30
     d60:	f0 e0       	ldi	r31, 0x00	; 0
     d62:	ee 58       	subi	r30, 0x8E	; 142
     d64:	fd 4f       	sbci	r31, 0xFD	; 253
     d66:	48 e0       	ldi	r20, 0x08	; 8
     d68:	40 83       	st	Z, r20
				myWord.ui16[0] = subfunction;
     d6a:	af e5       	ldi	r26, 0x5F	; 95
     d6c:	b2 e0       	ldi	r27, 0x02	; 2
     d6e:	11 96       	adiw	r26, 0x01	; 1
     d70:	9c 93       	st	X, r25
     d72:	8e 93       	st	-X, r24
				bufferTx[indexTxW++] = myWord.ui8[1];
     d74:	e1 e0       	ldi	r30, 0x01	; 1
     d76:	ec 0f       	add	r30, r28
     d78:	d0 e0       	ldi	r29, 0x00	; 0
     d7a:	11 96       	adiw	r26, 0x01	; 1
     d7c:	8c 91       	ld	r24, X
     d7e:	11 97       	sbiw	r26, 0x01	; 1
     d80:	ce 58       	subi	r28, 0x8E	; 142
     d82:	dd 4f       	sbci	r29, 0xFD	; 253
     d84:	88 83       	st	Y, r24
				bufferTx[indexTxW++] = myWord.ui8[0];
     d86:	c1 e0       	ldi	r28, 0x01	; 1
     d88:	ce 0f       	add	r28, r30
     d8a:	f0 e0       	ldi	r31, 0x00	; 0
     d8c:	8c 91       	ld	r24, X
     d8e:	ee 58       	subi	r30, 0x8E	; 142
     d90:	fd 4f       	sbci	r31, 0xFD	; 253
     d92:	80 83       	st	Z, r24
				myWord.ui16[0] = regValue;
     d94:	11 96       	adiw	r26, 0x01	; 1
     d96:	3c 93       	st	X, r19
     d98:	2e 93       	st	-X, r18
				bufferTx[indexTxW++] = myWord.ui8[1];
     d9a:	e1 e0       	ldi	r30, 0x01	; 1
     d9c:	ec 0f       	add	r30, r28
     d9e:	d0 e0       	ldi	r29, 0x00	; 0
     da0:	11 96       	adiw	r26, 0x01	; 1
     da2:	8c 91       	ld	r24, X
     da4:	11 97       	sbiw	r26, 0x01	; 1
     da6:	ce 58       	subi	r28, 0x8E	; 142
     da8:	dd 4f       	sbci	r29, 0xFD	; 253
     daa:	88 83       	st	Y, r24
				bufferTx[indexTxW++] = myWord.ui8[0];
     dac:	81 e0       	ldi	r24, 0x01	; 1
     dae:	8e 0f       	add	r24, r30
     db0:	80 93 52 01 	sts	0x0152, r24	; 0x800152 <indexTxW>
     db4:	f0 e0       	ldi	r31, 0x00	; 0
     db6:	8c 91       	ld	r24, X
     db8:	ee 58       	subi	r30, 0x8E	; 142
     dba:	fd 4f       	sbci	r31, 0xFD	; 253
     dbc:	80 83       	st	Z, r24
				
				auxIndex = indexTxR;
     dbe:	e0 91 5c 02 	lds	r30, 0x025C	; 0x80025c <indexTxR>
				while(auxIndex != indexTxW){
     dc2:	09 c0       	rjmp	.+18     	; 0xdd6 <__stack+0x4d7>
					MODBUS_CalculateCRC(bufferTx[auxIndex++]);
     dc4:	c1 e0       	ldi	r28, 0x01	; 1
     dc6:	ce 0f       	add	r28, r30
     dc8:	f0 e0       	ldi	r31, 0x00	; 0
     dca:	ee 58       	subi	r30, 0x8E	; 142
     dcc:	fd 4f       	sbci	r31, 0xFD	; 253
     dce:	80 81       	ld	r24, Z
     dd0:	0e 94 43 03 	call	0x686	; 0x686 <MODBUS_CalculateCRC>
     dd4:	ec 2f       	mov	r30, r28
				myWord.ui16[0] = regValue;
				bufferTx[indexTxW++] = myWord.ui8[1];
				bufferTx[indexTxW++] = myWord.ui8[0];
				
				auxIndex = indexTxR;
				while(auxIndex != indexTxW){
     dd6:	80 91 52 01 	lds	r24, 0x0152	; 0x800152 <indexTxW>
     dda:	e8 13       	cpse	r30, r24
     ddc:	f3 cf       	rjmp	.-26     	; 0xdc4 <__stack+0x4c5>
					MODBUS_CalculateCRC(bufferTx[auxIndex++]);
				}
				myWord.ui16[0] = myModbusFrame.crcSlave;
     dde:	20 91 6d 02 	lds	r18, 0x026D	; 0x80026d <myModbusFrame+0x4>
     de2:	90 91 6e 02 	lds	r25, 0x026E	; 0x80026e <myModbusFrame+0x5>
     de6:	af e5       	ldi	r26, 0x5F	; 95
     de8:	b2 e0       	ldi	r27, 0x02	; 2
     dea:	2c 93       	st	X, r18
     dec:	11 96       	adiw	r26, 0x01	; 1
     dee:	9c 93       	st	X, r25
     df0:	11 97       	sbiw	r26, 0x01	; 1
				bufferTx[indexTxW++] = myWord.ui8[0];
     df2:	91 e0       	ldi	r25, 0x01	; 1
     df4:	98 0f       	add	r25, r24
     df6:	e8 2f       	mov	r30, r24
     df8:	f0 e0       	ldi	r31, 0x00	; 0
     dfa:	ee 58       	subi	r30, 0x8E	; 142
     dfc:	fd 4f       	sbci	r31, 0xFD	; 253
     dfe:	20 83       	st	Z, r18
				bufferTx[indexTxW++] = myWord.ui8[1];
     e00:	81 e0       	ldi	r24, 0x01	; 1
     e02:	89 0f       	add	r24, r25
     e04:	80 93 52 01 	sts	0x0152, r24	; 0x800152 <indexTxW>
     e08:	e9 2f       	mov	r30, r25
     e0a:	f0 e0       	ldi	r31, 0x00	; 0
     e0c:	11 96       	adiw	r26, 0x01	; 1
     e0e:	8c 91       	ld	r24, X
     e10:	ee 58       	subi	r30, 0x8E	; 142
     e12:	fd 4f       	sbci	r31, 0xFD	; 253
     e14:	80 83       	st	Z, r24
				break;
     e16:	05 c1       	rjmp	.+522    	; 0x1022 <__stack+0x723>
		case WRITE_MULTIPLE_REGISTERS:
			myModbusFrame.errorCode = 0x90;
     e18:	80 e9       	ldi	r24, 0x90	; 144
     e1a:	80 93 6b 02 	sts	0x026B, r24	; 0x80026b <myModbusFrame+0x2>
			//Direccion inicial
			myWord.ui8[1] = bufferRx[indexRxR++];
     e1e:	e0 91 64 02 	lds	r30, 0x0264	; 0x800264 <indexRxR>
     e22:	a1 e0       	ldi	r26, 0x01	; 1
     e24:	ae 0f       	add	r26, r30
     e26:	a0 93 64 02 	sts	0x0264, r26	; 0x800264 <indexRxR>
     e2a:	f0 e0       	ldi	r31, 0x00	; 0
     e2c:	e7 5a       	subi	r30, 0xA7	; 167
     e2e:	fe 4f       	sbci	r31, 0xFE	; 254
     e30:	80 81       	ld	r24, Z
     e32:	cf e5       	ldi	r28, 0x5F	; 95
     e34:	d2 e0       	ldi	r29, 0x02	; 2
     e36:	89 83       	std	Y+1, r24	; 0x01
			myWord.ui8[0] = bufferRx[indexRxR++];
     e38:	e1 e0       	ldi	r30, 0x01	; 1
     e3a:	ea 0f       	add	r30, r26
     e3c:	e0 93 64 02 	sts	0x0264, r30	; 0x800264 <indexRxR>
     e40:	b0 e0       	ldi	r27, 0x00	; 0
     e42:	a7 5a       	subi	r26, 0xA7	; 167
     e44:	be 4f       	sbci	r27, 0xFE	; 254
     e46:	8c 91       	ld	r24, X
     e48:	88 83       	st	Y, r24
			regAddress = myWord.ui16[0];
     e4a:	88 81       	ld	r24, Y
     e4c:	99 81       	ldd	r25, Y+1	; 0x01
			//Cantidad de registros
			myWord.ui8[1] = bufferRx[indexRxR++];
     e4e:	a1 e0       	ldi	r26, 0x01	; 1
     e50:	ae 0f       	add	r26, r30
     e52:	a0 93 64 02 	sts	0x0264, r26	; 0x800264 <indexRxR>
     e56:	f0 e0       	ldi	r31, 0x00	; 0
     e58:	e7 5a       	subi	r30, 0xA7	; 167
     e5a:	fe 4f       	sbci	r31, 0xFE	; 254
     e5c:	20 81       	ld	r18, Z
     e5e:	29 83       	std	Y+1, r18	; 0x01
			myWord.ui8[0] = bufferRx[indexRxR++];
     e60:	e1 e0       	ldi	r30, 0x01	; 1
     e62:	ea 0f       	add	r30, r26
     e64:	e0 93 64 02 	sts	0x0264, r30	; 0x800264 <indexRxR>
     e68:	b0 e0       	ldi	r27, 0x00	; 0
     e6a:	a7 5a       	subi	r26, 0xA7	; 167
     e6c:	be 4f       	sbci	r27, 0xFE	; 254
     e6e:	2c 91       	ld	r18, X
     e70:	28 83       	st	Y, r18
			regCant = myWord.ui16[0];
     e72:	48 81       	ld	r20, Y
     e74:	59 81       	ldd	r21, Y+1	; 0x01
			//Cantidad de bytes
			byteCount = bufferRx[indexRxR++];
     e76:	21 e0       	ldi	r18, 0x01	; 1
     e78:	2e 0f       	add	r18, r30
     e7a:	20 93 64 02 	sts	0x0264, r18	; 0x800264 <indexRxR>
     e7e:	f0 e0       	ldi	r31, 0x00	; 0
     e80:	e7 5a       	subi	r30, 0xA7	; 167
     e82:	fe 4f       	sbci	r31, 0xFE	; 254
     e84:	20 81       	ld	r18, Z
			//Controlar cantidad de registros
			if((regCant < 1 || regCant > 0x007B) || (byteCount != (regCant*2))){
     e86:	ba 01       	movw	r22, r20
     e88:	61 50       	subi	r22, 0x01	; 1
     e8a:	71 09       	sbc	r23, r1
     e8c:	6b 37       	cpi	r22, 0x7B	; 123
     e8e:	71 05       	cpc	r23, r1
     e90:	38 f4       	brcc	.+14     	; 0xea0 <__stack+0x5a1>
     e92:	30 e0       	ldi	r19, 0x00	; 0
     e94:	da 01       	movw	r26, r20
     e96:	aa 0f       	add	r26, r26
     e98:	bb 1f       	adc	r27, r27
     e9a:	2a 17       	cp	r18, r26
     e9c:	3b 07       	cpc	r19, r27
     e9e:	49 f0       	breq	.+18     	; 0xeb2 <__stack+0x5b3>
				myModbusFrame.excepCode = INVALID_DATA_VALUE;
     ea0:	83 e0       	ldi	r24, 0x03	; 3
     ea2:	80 93 6c 02 	sts	0x026C, r24	; 0x80026c <myModbusFrame+0x3>
				commFlags.iFlags.isExceptionCode = 1;
     ea6:	80 91 59 02 	lds	r24, 0x0259	; 0x800259 <commFlags>
     eaa:	88 60       	ori	r24, 0x08	; 8
     eac:	80 93 59 02 	sts	0x0259, r24	; 0x800259 <commFlags>
				return;
     eb0:	b8 c0       	rjmp	.+368    	; 0x1022 <__stack+0x723>
			}
			//Controlar validez direcciones
			if((regAddress < START_CONFIG_ADDRESS) || (regAddress>END_CONFIG_ADDRESS_W)){
     eb2:	9c 01       	movw	r18, r24
     eb4:	34 50       	subi	r19, 0x04	; 4
     eb6:	2e 30       	cpi	r18, 0x0E	; 14
     eb8:	31 05       	cpc	r19, r1
     eba:	48 f0       	brcs	.+18     	; 0xece <__stack+0x5cf>
				myModbusFrame.excepCode = INVALID_DATA_ADDRESS;
     ebc:	82 e0       	ldi	r24, 0x02	; 2
     ebe:	80 93 6c 02 	sts	0x026C, r24	; 0x80026c <myModbusFrame+0x3>
				commFlags.iFlags.isExceptionCode = 1;
     ec2:	80 91 59 02 	lds	r24, 0x0259	; 0x800259 <commFlags>
     ec6:	88 60       	ori	r24, 0x08	; 8
     ec8:	80 93 59 02 	sts	0x0259, r24	; 0x800259 <commFlags>
				return;
     ecc:	aa c0       	rjmp	.+340    	; 0x1022 <__stack+0x723>
			}else{
				if(regAddress+((regCant -1)*2) >=END_CONFIG_ADDRESS_W){
     ece:	9a 01       	movw	r18, r20
     ed0:	21 50       	subi	r18, 0x01	; 1
     ed2:	30 48       	sbci	r19, 0x80	; 128
     ed4:	22 0f       	add	r18, r18
     ed6:	33 1f       	adc	r19, r19
     ed8:	28 0f       	add	r18, r24
     eda:	39 1f       	adc	r19, r25
     edc:	2d 30       	cpi	r18, 0x0D	; 13
     ede:	34 40       	sbci	r19, 0x04	; 4
     ee0:	c8 f0       	brcs	.+50     	; 0xf14 <__stack+0x615>
					myModbusFrame.excepCode = INVALID_DATA_ADDRESS;
     ee2:	82 e0       	ldi	r24, 0x02	; 2
     ee4:	80 93 6c 02 	sts	0x026C, r24	; 0x80026c <myModbusFrame+0x3>
					commFlags.iFlags.isExceptionCode = 1;
     ee8:	80 91 59 02 	lds	r24, 0x0259	; 0x800259 <commFlags>
     eec:	88 60       	ori	r24, 0x08	; 8
     eee:	80 93 59 02 	sts	0x0259, r24	; 0x800259 <commFlags>
					return;
     ef2:	97 c0       	rjmp	.+302    	; 0x1022 <__stack+0x723>
				}
			}

			for(uint8_t i=0; i<(regCant*2);i++){
				*((uint8_t *)(regAddress+i)) = bufferRx[indexRxR++];
     ef4:	ec 01       	movw	r28, r24
     ef6:	c2 0f       	add	r28, r18
     ef8:	d3 1f       	adc	r29, r19
     efa:	e0 91 64 02 	lds	r30, 0x0264	; 0x800264 <indexRxR>
     efe:	71 e0       	ldi	r23, 0x01	; 1
     f00:	7e 0f       	add	r23, r30
     f02:	70 93 64 02 	sts	0x0264, r23	; 0x800264 <indexRxR>
     f06:	f0 e0       	ldi	r31, 0x00	; 0
     f08:	e7 5a       	subi	r30, 0xA7	; 167
     f0a:	fe 4f       	sbci	r31, 0xFE	; 254
     f0c:	70 81       	ld	r23, Z
     f0e:	78 83       	st	Y, r23
					commFlags.iFlags.isExceptionCode = 1;
					return;
				}
			}

			for(uint8_t i=0; i<(regCant*2);i++){
     f10:	6f 5f       	subi	r22, 0xFF	; 255
     f12:	01 c0       	rjmp	.+2      	; 0xf16 <__stack+0x617>
     f14:	60 e0       	ldi	r22, 0x00	; 0
     f16:	26 2f       	mov	r18, r22
     f18:	30 e0       	ldi	r19, 0x00	; 0
     f1a:	2a 17       	cp	r18, r26
     f1c:	3b 07       	cpc	r19, r27
     f1e:	50 f3       	brcs	.-44     	; 0xef4 <__stack+0x5f5>
				*((uint8_t *)(regAddress+i)) = bufferRx[indexRxR++];
			}
		
			if(commFlags.iFlags.isBroadcast){
     f20:	20 91 59 02 	lds	r18, 0x0259	; 0x800259 <commFlags>
     f24:	24 ff       	sbrs	r18, 4
     f26:	05 c0       	rjmp	.+10     	; 0xf32 <__stack+0x633>
				commFlags.iFlags.isBroadcast = 0;
     f28:	82 2f       	mov	r24, r18
     f2a:	8f 7e       	andi	r24, 0xEF	; 239
     f2c:	80 93 59 02 	sts	0x0259, r24	; 0x800259 <commFlags>
				return;
     f30:	78 c0       	rjmp	.+240    	; 0x1022 <__stack+0x723>
			}
			bufferTx[indexTxW++] = (uint8_t)MODBUS_SLAVE_ADDRESS;
     f32:	a0 91 52 01 	lds	r26, 0x0152	; 0x800152 <indexTxW>
     f36:	e1 e0       	ldi	r30, 0x01	; 1
     f38:	ea 0f       	add	r30, r26
     f3a:	b0 e0       	ldi	r27, 0x00	; 0
     f3c:	20 91 ff 03 	lds	r18, 0x03FF	; 0x8003ff <slaveAddress>
     f40:	ae 58       	subi	r26, 0x8E	; 142
     f42:	bd 4f       	sbci	r27, 0xFD	; 253
     f44:	2c 93       	st	X, r18
			bufferTx[indexTxW++] = WRITE_MULTIPLE_REGISTERS;
     f46:	c1 e0       	ldi	r28, 0x01	; 1
     f48:	ce 0f       	add	r28, r30
     f4a:	f0 e0       	ldi	r31, 0x00	; 0
     f4c:	ee 58       	subi	r30, 0x8E	; 142
     f4e:	fd 4f       	sbci	r31, 0xFD	; 253
     f50:	20 e1       	ldi	r18, 0x10	; 16
     f52:	20 83       	st	Z, r18
			myWord.ui16[0] = regAddress;
     f54:	af e5       	ldi	r26, 0x5F	; 95
     f56:	b2 e0       	ldi	r27, 0x02	; 2
     f58:	11 96       	adiw	r26, 0x01	; 1
     f5a:	9c 93       	st	X, r25
     f5c:	8e 93       	st	-X, r24
			bufferTx[indexTxW++] = myWord.ui8[1];
     f5e:	e1 e0       	ldi	r30, 0x01	; 1
     f60:	ec 0f       	add	r30, r28
     f62:	d0 e0       	ldi	r29, 0x00	; 0
     f64:	11 96       	adiw	r26, 0x01	; 1
     f66:	8c 91       	ld	r24, X
     f68:	11 97       	sbiw	r26, 0x01	; 1
     f6a:	ce 58       	subi	r28, 0x8E	; 142
     f6c:	dd 4f       	sbci	r29, 0xFD	; 253
     f6e:	88 83       	st	Y, r24
			bufferTx[indexTxW++] = myWord.ui8[0];
     f70:	c1 e0       	ldi	r28, 0x01	; 1
     f72:	ce 0f       	add	r28, r30
     f74:	f0 e0       	ldi	r31, 0x00	; 0
     f76:	8c 91       	ld	r24, X
     f78:	ee 58       	subi	r30, 0x8E	; 142
     f7a:	fd 4f       	sbci	r31, 0xFD	; 253
     f7c:	80 83       	st	Z, r24
			myWord.ui16[0] = regCant;
     f7e:	11 96       	adiw	r26, 0x01	; 1
     f80:	5c 93       	st	X, r21
     f82:	4e 93       	st	-X, r20
			bufferTx[indexTxW++] = myWord.ui8[1];
     f84:	e1 e0       	ldi	r30, 0x01	; 1
     f86:	ec 0f       	add	r30, r28
     f88:	d0 e0       	ldi	r29, 0x00	; 0
     f8a:	11 96       	adiw	r26, 0x01	; 1
     f8c:	8c 91       	ld	r24, X
     f8e:	11 97       	sbiw	r26, 0x01	; 1
     f90:	ce 58       	subi	r28, 0x8E	; 142
     f92:	dd 4f       	sbci	r29, 0xFD	; 253
     f94:	88 83       	st	Y, r24
			bufferTx[indexTxW++] = myWord.ui8[0];
     f96:	81 e0       	ldi	r24, 0x01	; 1
     f98:	8e 0f       	add	r24, r30
     f9a:	80 93 52 01 	sts	0x0152, r24	; 0x800152 <indexTxW>
     f9e:	f0 e0       	ldi	r31, 0x00	; 0
     fa0:	8c 91       	ld	r24, X
     fa2:	ee 58       	subi	r30, 0x8E	; 142
     fa4:	fd 4f       	sbci	r31, 0xFD	; 253
     fa6:	80 83       	st	Z, r24
			
			auxIndex = indexTxR;
     fa8:	e0 91 5c 02 	lds	r30, 0x025C	; 0x80025c <indexTxR>
			while(auxIndex != indexTxW){
     fac:	09 c0       	rjmp	.+18     	; 0xfc0 <__stack+0x6c1>
				MODBUS_CalculateCRC(bufferTx[auxIndex++]);
     fae:	c1 e0       	ldi	r28, 0x01	; 1
     fb0:	ce 0f       	add	r28, r30
     fb2:	f0 e0       	ldi	r31, 0x00	; 0
     fb4:	ee 58       	subi	r30, 0x8E	; 142
     fb6:	fd 4f       	sbci	r31, 0xFD	; 253
     fb8:	80 81       	ld	r24, Z
     fba:	0e 94 43 03 	call	0x686	; 0x686 <MODBUS_CalculateCRC>
     fbe:	ec 2f       	mov	r30, r28
			myWord.ui16[0] = regCant;
			bufferTx[indexTxW++] = myWord.ui8[1];
			bufferTx[indexTxW++] = myWord.ui8[0];
			
			auxIndex = indexTxR;
			while(auxIndex != indexTxW){
     fc0:	80 91 52 01 	lds	r24, 0x0152	; 0x800152 <indexTxW>
     fc4:	e8 13       	cpse	r30, r24
     fc6:	f3 cf       	rjmp	.-26     	; 0xfae <__stack+0x6af>
				MODBUS_CalculateCRC(bufferTx[auxIndex++]);
			}			
			myWord.ui16[0] = myModbusFrame.crcSlave;
     fc8:	20 91 6d 02 	lds	r18, 0x026D	; 0x80026d <myModbusFrame+0x4>
     fcc:	90 91 6e 02 	lds	r25, 0x026E	; 0x80026e <myModbusFrame+0x5>
     fd0:	af e5       	ldi	r26, 0x5F	; 95
     fd2:	b2 e0       	ldi	r27, 0x02	; 2
     fd4:	2c 93       	st	X, r18
     fd6:	11 96       	adiw	r26, 0x01	; 1
     fd8:	9c 93       	st	X, r25
     fda:	11 97       	sbiw	r26, 0x01	; 1
			bufferTx[indexTxW++] = myWord.ui8[0];
     fdc:	91 e0       	ldi	r25, 0x01	; 1
     fde:	98 0f       	add	r25, r24
     fe0:	e8 2f       	mov	r30, r24
     fe2:	f0 e0       	ldi	r31, 0x00	; 0
     fe4:	ee 58       	subi	r30, 0x8E	; 142
     fe6:	fd 4f       	sbci	r31, 0xFD	; 253
     fe8:	20 83       	st	Z, r18
			bufferTx[indexTxW++] = myWord.ui8[1];
     fea:	81 e0       	ldi	r24, 0x01	; 1
     fec:	89 0f       	add	r24, r25
     fee:	80 93 52 01 	sts	0x0152, r24	; 0x800152 <indexTxW>
     ff2:	e9 2f       	mov	r30, r25
     ff4:	f0 e0       	ldi	r31, 0x00	; 0
     ff6:	11 96       	adiw	r26, 0x01	; 1
     ff8:	8c 91       	ld	r24, X
     ffa:	ee 58       	subi	r30, 0x8E	; 142
     ffc:	fd 4f       	sbci	r31, 0xFD	; 253
     ffe:	80 83       	st	Z, r24
		break;
    1000:	10 c0       	rjmp	.+32     	; 0x1022 <__stack+0x723>
		default:
			if(commFlags.iFlags.isBroadcast){
    1002:	80 91 59 02 	lds	r24, 0x0259	; 0x800259 <commFlags>
    1006:	84 fd       	sbrc	r24, 4
    1008:	0c c0       	rjmp	.+24     	; 0x1022 <__stack+0x723>
				return;
			}
		myModbusFrame.excepCode = INVALID_FUNCTION;
    100a:	81 e0       	ldi	r24, 0x01	; 1
    100c:	80 93 6c 02 	sts	0x026C, r24	; 0x80026c <myModbusFrame+0x3>
		commFlags.iFlags.isExceptionCode = 1;
    1010:	80 91 59 02 	lds	r24, 0x0259	; 0x800259 <commFlags>
    1014:	88 60       	ori	r24, 0x08	; 8
    1016:	80 93 59 02 	sts	0x0259, r24	; 0x800259 <commFlags>
		indexRxR = indexRxW;
    101a:	80 91 68 02 	lds	r24, 0x0268	; 0x800268 <indexRxW>
    101e:	80 93 64 02 	sts	0x0264, r24	; 0x800264 <indexRxR>
		break;
	}
	 
}
    1022:	df 91       	pop	r29
    1024:	cf 91       	pop	r28
    1026:	1f 91       	pop	r17
    1028:	0f 91       	pop	r16
    102a:	ff 90       	pop	r15
    102c:	ef 90       	pop	r14
    102e:	08 95       	ret

00001030 <MODBUS_SendExceptionCode>:

void MODBUS_SendExceptionCode(){
    1030:	cf 93       	push	r28
    1032:	df 93       	push	r29
	uint8_t auxIndex;
	commFlags.iFlags.isExceptionCode = 0;
    1034:	80 91 59 02 	lds	r24, 0x0259	; 0x800259 <commFlags>
    1038:	87 7f       	andi	r24, 0xF7	; 247
    103a:	80 93 59 02 	sts	0x0259, r24	; 0x800259 <commFlags>
	bufferTx[indexTxW++] = (uint8_t)MODBUS_SLAVE_ADDRESS;
    103e:	e0 91 52 01 	lds	r30, 0x0152	; 0x800152 <indexTxW>
    1042:	a1 e0       	ldi	r26, 0x01	; 1
    1044:	ae 0f       	add	r26, r30
    1046:	f0 e0       	ldi	r31, 0x00	; 0
    1048:	80 91 ff 03 	lds	r24, 0x03FF	; 0x8003ff <slaveAddress>
    104c:	ee 58       	subi	r30, 0x8E	; 142
    104e:	fd 4f       	sbci	r31, 0xFD	; 253
    1050:	80 83       	st	Z, r24
	bufferTx[indexTxW++] = myModbusFrame.errorCode;
    1052:	e1 e0       	ldi	r30, 0x01	; 1
    1054:	ea 0f       	add	r30, r26
    1056:	b0 e0       	ldi	r27, 0x00	; 0
    1058:	c9 e6       	ldi	r28, 0x69	; 105
    105a:	d2 e0       	ldi	r29, 0x02	; 2
    105c:	8a 81       	ldd	r24, Y+2	; 0x02
    105e:	ae 58       	subi	r26, 0x8E	; 142
    1060:	bd 4f       	sbci	r27, 0xFD	; 253
    1062:	8c 93       	st	X, r24
	bufferTx[indexTxW++] = myModbusFrame.excepCode;
    1064:	81 e0       	ldi	r24, 0x01	; 1
    1066:	8e 0f       	add	r24, r30
    1068:	80 93 52 01 	sts	0x0152, r24	; 0x800152 <indexTxW>
    106c:	f0 e0       	ldi	r31, 0x00	; 0
    106e:	8b 81       	ldd	r24, Y+3	; 0x03
    1070:	ee 58       	subi	r30, 0x8E	; 142
    1072:	fd 4f       	sbci	r31, 0xFD	; 253
    1074:	80 83       	st	Z, r24
	
	auxIndex = indexTxR;
    1076:	e0 91 5c 02 	lds	r30, 0x025C	; 0x80025c <indexTxR>
	while(auxIndex != indexTxW){
    107a:	09 c0       	rjmp	.+18     	; 0x108e <MODBUS_SendExceptionCode+0x5e>
		MODBUS_CalculateCRC(bufferTx[auxIndex++]);
    107c:	c1 e0       	ldi	r28, 0x01	; 1
    107e:	ce 0f       	add	r28, r30
    1080:	f0 e0       	ldi	r31, 0x00	; 0
    1082:	ee 58       	subi	r30, 0x8E	; 142
    1084:	fd 4f       	sbci	r31, 0xFD	; 253
    1086:	80 81       	ld	r24, Z
    1088:	0e 94 43 03 	call	0x686	; 0x686 <MODBUS_CalculateCRC>
    108c:	ec 2f       	mov	r30, r28
	bufferTx[indexTxW++] = (uint8_t)MODBUS_SLAVE_ADDRESS;
	bufferTx[indexTxW++] = myModbusFrame.errorCode;
	bufferTx[indexTxW++] = myModbusFrame.excepCode;
	
	auxIndex = indexTxR;
	while(auxIndex != indexTxW){
    108e:	80 91 52 01 	lds	r24, 0x0152	; 0x800152 <indexTxW>
    1092:	e8 13       	cpse	r30, r24
    1094:	f3 cf       	rjmp	.-26     	; 0x107c <MODBUS_SendExceptionCode+0x4c>
		MODBUS_CalculateCRC(bufferTx[auxIndex++]);
	}

	myWord.ui16[0] = myModbusFrame.crcSlave;
    1096:	20 91 6d 02 	lds	r18, 0x026D	; 0x80026d <myModbusFrame+0x4>
    109a:	90 91 6e 02 	lds	r25, 0x026E	; 0x80026e <myModbusFrame+0x5>
    109e:	af e5       	ldi	r26, 0x5F	; 95
    10a0:	b2 e0       	ldi	r27, 0x02	; 2
    10a2:	2c 93       	st	X, r18
    10a4:	11 96       	adiw	r26, 0x01	; 1
    10a6:	9c 93       	st	X, r25
    10a8:	11 97       	sbiw	r26, 0x01	; 1
	bufferTx[indexTxW++] = myWord.ui8[0];
    10aa:	91 e0       	ldi	r25, 0x01	; 1
    10ac:	98 0f       	add	r25, r24
    10ae:	e8 2f       	mov	r30, r24
    10b0:	f0 e0       	ldi	r31, 0x00	; 0
    10b2:	ee 58       	subi	r30, 0x8E	; 142
    10b4:	fd 4f       	sbci	r31, 0xFD	; 253
    10b6:	20 83       	st	Z, r18
	bufferTx[indexTxW++] = myWord.ui8[1];
    10b8:	81 e0       	ldi	r24, 0x01	; 1
    10ba:	89 0f       	add	r24, r25
    10bc:	80 93 52 01 	sts	0x0152, r24	; 0x800152 <indexTxW>
    10c0:	e9 2f       	mov	r30, r25
    10c2:	f0 e0       	ldi	r31, 0x00	; 0
    10c4:	11 96       	adiw	r26, 0x01	; 1
    10c6:	8c 91       	ld	r24, X
    10c8:	ee 58       	subi	r30, 0x8E	; 142
    10ca:	fd 4f       	sbci	r31, 0xFD	; 253
    10cc:	80 83       	st	Z, r24
}
    10ce:	df 91       	pop	r29
    10d0:	cf 91       	pop	r28
    10d2:	08 95       	ret

000010d4 <main>:
/* END Function prototypes user code -----------------------------------------*/

/*
    Main application
*/
int main(void){
    10d4:	cf 93       	push	r28
    10d6:	df 93       	push	r29
    10d8:	cd b7       	in	r28, 0x3d	; 61
    10da:	de b7       	in	r29, 0x3e	; 62
    10dc:	28 97       	sbiw	r28, 0x08	; 8
    10de:	0f b6       	in	r0, 0x3f	; 63
    10e0:	f8 94       	cli
    10e2:	de bf       	out	0x3e, r29	; 62
    10e4:	0f be       	out	0x3f, r0	; 63
    10e6:	cd bf       	out	0x3d, r28	; 61
	uint8_t auxSlaveAddress, hbState = 0, byte=0;
	uint16_t auxtimeBtw[4];
/* END Local variables -------------------------------------------------------*/

/* User code -----------------------------------------------------------------*/
	SYSTEM_Initialize();
    10e8:	0e 94 f2 0a 	call	0x15e4	; 0x15e4 <SYSTEM_Initialize>
	
	//LEER DE EEPROM
	slaveAddress = EEPROM_Read(SLAVE_EEPROM_ADDRESS);
    10ec:	81 e0       	ldi	r24, 0x01	; 1
    10ee:	90 e0       	ldi	r25, 0x00	; 0
    10f0:	0e 94 09 01 	call	0x212	; 0x212 <EEPROM_Read>
    10f4:	80 93 ff 03 	sts	0x03FF, r24	; 0x8003ff <slaveAddress>
	modbusRegister.brConfig = EEPROM_Read(BRCONFIG_EEPROM_ADDRESS);
    10f8:	82 e0       	ldi	r24, 0x02	; 2
    10fa:	90 e0       	ldi	r25, 0x00	; 0
    10fc:	0e 94 09 01 	call	0x212	; 0x212 <EEPROM_Read>
    1100:	0f 2e       	mov	r0, r31
    1102:	f0 e0       	ldi	r31, 0x00	; 0
    1104:	ef 2e       	mov	r14, r31
    1106:	f4 e0       	ldi	r31, 0x04	; 4
    1108:	ff 2e       	mov	r15, r31
    110a:	f0 2d       	mov	r31, r0
    110c:	d7 01       	movw	r26, r14
    110e:	14 96       	adiw	r26, 0x04	; 4
    1110:	8c 93       	st	X, r24
	modbusRegister.parity = EEPROM_Read(PARITY_EEPROM_ADDRESS);
    1112:	83 e0       	ldi	r24, 0x03	; 3
    1114:	90 e0       	ldi	r25, 0x00	; 0
    1116:	0e 94 09 01 	call	0x212	; 0x212 <EEPROM_Read>
    111a:	f7 01       	movw	r30, r14
    111c:	85 83       	std	Z+5, r24	; 0x05

	myWord.ui8[0] = EEPROM_Read(TIMEBTW0_LOW_EEPROM_ADDRESS);
    111e:	84 e0       	ldi	r24, 0x04	; 4
    1120:	90 e0       	ldi	r25, 0x00	; 0
    1122:	0e 94 09 01 	call	0x212	; 0x212 <EEPROM_Read>
    1126:	0f e5       	ldi	r16, 0x5F	; 95
    1128:	12 e0       	ldi	r17, 0x02	; 2
    112a:	d8 01       	movw	r26, r16
    112c:	8c 93       	st	X, r24
	myWord.ui8[1] = EEPROM_Read(TIMEBTW0_HIGH_EEPROM_ADDRESS);
    112e:	85 e0       	ldi	r24, 0x05	; 5
    1130:	90 e0       	ldi	r25, 0x00	; 0
    1132:	0e 94 09 01 	call	0x212	; 0x212 <EEPROM_Read>
    1136:	f8 01       	movw	r30, r16
    1138:	81 83       	std	Z+1, r24	; 0x01
	modbusRegister.timeBtw[0]= myWord.ui16[0];
    113a:	80 81       	ld	r24, Z
    113c:	91 81       	ldd	r25, Z+1	; 0x01
    113e:	d7 01       	movw	r26, r14
    1140:	17 96       	adiw	r26, 0x07	; 7
    1142:	9c 93       	st	X, r25
    1144:	8e 93       	st	-X, r24
    1146:	16 97       	sbiw	r26, 0x06	; 6
	myWord.ui8[1] = EEPROM_Read(TIMEBTW1_HIGH_EEPROM_ADDRESS);
    1148:	87 e0       	ldi	r24, 0x07	; 7
    114a:	90 e0       	ldi	r25, 0x00	; 0
    114c:	0e 94 09 01 	call	0x212	; 0x212 <EEPROM_Read>
    1150:	f8 01       	movw	r30, r16
    1152:	81 83       	std	Z+1, r24	; 0x01
	myWord.ui8[0] = EEPROM_Read(TIMEBTW1_LOW_EEPROM_ADDRESS);
    1154:	86 e0       	ldi	r24, 0x06	; 6
    1156:	90 e0       	ldi	r25, 0x00	; 0
    1158:	0e 94 09 01 	call	0x212	; 0x212 <EEPROM_Read>
    115c:	d8 01       	movw	r26, r16
    115e:	8c 93       	st	X, r24
	modbusRegister.timeBtw[1]= myWord.ui16[0];
    1160:	8d 91       	ld	r24, X+
    1162:	9c 91       	ld	r25, X
    1164:	f7 01       	movw	r30, r14
    1166:	91 87       	std	Z+9, r25	; 0x09
    1168:	80 87       	std	Z+8, r24	; 0x08
	myWord.ui8[1] = EEPROM_Read(TIMEBTW2_HIGH_EEPROM_ADDRESS);
    116a:	89 e0       	ldi	r24, 0x09	; 9
    116c:	90 e0       	ldi	r25, 0x00	; 0
    116e:	0e 94 09 01 	call	0x212	; 0x212 <EEPROM_Read>
    1172:	d8 01       	movw	r26, r16
    1174:	11 96       	adiw	r26, 0x01	; 1
    1176:	8c 93       	st	X, r24
	myWord.ui8[0] = EEPROM_Read(TIMEBTW2_LOW_EEPROM_ADDRESS);
    1178:	88 e0       	ldi	r24, 0x08	; 8
    117a:	90 e0       	ldi	r25, 0x00	; 0
    117c:	0e 94 09 01 	call	0x212	; 0x212 <EEPROM_Read>
    1180:	f8 01       	movw	r30, r16
    1182:	80 83       	st	Z, r24
	modbusRegister.timeBtw[2]= myWord.ui16[0];
    1184:	80 81       	ld	r24, Z
    1186:	91 81       	ldd	r25, Z+1	; 0x01
    1188:	d7 01       	movw	r26, r14
    118a:	1b 96       	adiw	r26, 0x0b	; 11
    118c:	9c 93       	st	X, r25
    118e:	8e 93       	st	-X, r24
    1190:	1a 97       	sbiw	r26, 0x0a	; 10
	myWord.ui8[1] = EEPROM_Read(TIMEBTW3_HIGH_EEPROM_ADDRESS);
    1192:	8b e0       	ldi	r24, 0x0B	; 11
    1194:	90 e0       	ldi	r25, 0x00	; 0
    1196:	0e 94 09 01 	call	0x212	; 0x212 <EEPROM_Read>
    119a:	f8 01       	movw	r30, r16
    119c:	81 83       	std	Z+1, r24	; 0x01
	myWord.ui8[0] = EEPROM_Read(TIMEBTW3_LOW_EEPROM_ADDRESS);
    119e:	8a e0       	ldi	r24, 0x0A	; 10
    11a0:	90 e0       	ldi	r25, 0x00	; 0
    11a2:	0e 94 09 01 	call	0x212	; 0x212 <EEPROM_Read>
    11a6:	d8 01       	movw	r26, r16
    11a8:	8c 93       	st	X, r24
	modbusRegister.timeBtw[3]= myWord.ui16[0];
    11aa:	8d 91       	ld	r24, X+
    11ac:	9c 91       	ld	r25, X
    11ae:	f7 01       	movw	r30, r14
    11b0:	95 87       	std	Z+13, r25	; 0x0d
    11b2:	84 87       	std	Z+12, r24	; 0x0c
	modbusRegister.eventIndexR = 0;
    11b4:	13 8a       	std	Z+19, r1	; 0x13
    11b6:	12 8a       	std	Z+18, r1	; 0x12
	modbusRegister.unixTime				= 1770766800;
    11b8:	40 ed       	ldi	r20, 0xD0	; 208
    11ba:	51 ec       	ldi	r21, 0xC1	; 193
    11bc:	6b e8       	ldi	r22, 0x8B	; 139
    11be:	79 e6       	ldi	r23, 0x69	; 105
    11c0:	d7 01       	movw	r26, r14
    11c2:	40 83       	st	Z, r20
    11c4:	51 83       	std	Z+1, r21	; 0x01
    11c6:	62 83       	std	Z+2, r22	; 0x02
    11c8:	73 83       	std	Z+3, r23	; 0x03
	modbusRegister.diagnosticsRegister	= 0x3333; //Ver que valor darle que nos sirva
    11ca:	23 e3       	ldi	r18, 0x33	; 51
    11cc:	33 e3       	ldi	r19, 0x33	; 51
    11ce:	37 87       	std	Z+15, r19	; 0x0f
    11d0:	26 87       	std	Z+14, r18	; 0x0e
	modbusRegister.newEventCounter		= 0x0000;
    11d2:	11 8a       	std	Z+17, r1	; 0x11
    11d4:	10 8a       	std	Z+16, r1	; 0x10

	auxSlaveAddress = slaveAddress;
    11d6:	00 91 ff 03 	lds	r16, 0x03FF	; 0x8003ff <slaveAddress>
	auxbrConfig = modbusRegister.brConfig;
    11da:	f4 81       	ldd	r31, Z+4	; 0x04
    11dc:	f0 93 07 01 	sts	0x0107, r31	; 0x800107 <auxbrConfig>
	auxParity = modbusRegister.parity;
    11e0:	15 96       	adiw	r26, 0x05	; 5
    11e2:	ec 91       	ld	r30, X
    11e4:	15 97       	sbiw	r26, 0x05	; 5
    11e6:	e0 93 06 01 	sts	0x0106, r30	; 0x800106 <auxParity>
	auxtimeBtw[0] = modbusRegister.timeBtw[0];	
    11ea:	16 96       	adiw	r26, 0x06	; 6
    11ec:	6d 91       	ld	r22, X+
    11ee:	7c 91       	ld	r23, X
    11f0:	17 97       	sbiw	r26, 0x07	; 7
    11f2:	7a 83       	std	Y+2, r23	; 0x02
    11f4:	69 83       	std	Y+1, r22	; 0x01
	auxtimeBtw[1] = modbusRegister.timeBtw[1];
    11f6:	18 96       	adiw	r26, 0x08	; 8
    11f8:	4d 91       	ld	r20, X+
    11fa:	5c 91       	ld	r21, X
    11fc:	19 97       	sbiw	r26, 0x09	; 9
    11fe:	5c 83       	std	Y+4, r21	; 0x04
    1200:	4b 83       	std	Y+3, r20	; 0x03
	auxtimeBtw[2] = modbusRegister.timeBtw[2];
    1202:	1a 96       	adiw	r26, 0x0a	; 10
    1204:	2d 91       	ld	r18, X+
    1206:	3c 91       	ld	r19, X
    1208:	1b 97       	sbiw	r26, 0x0b	; 11
    120a:	3e 83       	std	Y+6, r19	; 0x06
    120c:	2d 83       	std	Y+5, r18	; 0x05
	auxtimeBtw[3] = modbusRegister.timeBtw[3];
    120e:	98 87       	std	Y+8, r25	; 0x08
    1210:	8f 83       	std	Y+7, r24	; 0x07
	
	if(slaveAddress == 0xFF){
    1212:	0f 3f       	cpi	r16, 0xFF	; 255
    1214:	21 f4       	brne	.+8      	; 0x121e <main+0x14a>
		slaveAddress = 0x02;
    1216:	a2 e0       	ldi	r26, 0x02	; 2
    1218:	a0 93 ff 03 	sts	0x03FF, r26	; 0x8003ff <slaveAddress>
		auxSlaveAddress = slaveAddress;
    121c:	02 e0       	ldi	r16, 0x02	; 2
	}
	if(modbusRegister.brConfig == 0xFF){
    121e:	ff 3f       	cpi	r31, 0xFF	; 255
    1220:	21 f4       	brne	.+8      	; 0x122a <main+0x156>
		modbusRegister.brConfig = 0x00;
    1222:	10 92 04 04 	sts	0x0404, r1	; 0x800404 <modbusRegister+0x4>
		auxbrConfig = modbusRegister.brConfig;
    1226:	10 92 07 01 	sts	0x0107, r1	; 0x800107 <auxbrConfig>
	}
	if(modbusRegister.parity == 0xFF){
    122a:	ef 3f       	cpi	r30, 0xFF	; 255
    122c:	29 f4       	brne	.+10     	; 0x1238 <main+0x164>
		modbusRegister.parity = 0x01;
    122e:	e1 e0       	ldi	r30, 0x01	; 1
    1230:	e0 93 05 04 	sts	0x0405, r30	; 0x800405 <modbusRegister+0x5>
		auxParity = modbusRegister.parity;
    1234:	e0 93 06 01 	sts	0x0106, r30	; 0x800106 <auxParity>
	}
	if(modbusRegister.timeBtw[0] == 0xFFFF){
    1238:	6f 3f       	cpi	r22, 0xFF	; 255
    123a:	7f 4f       	sbci	r23, 0xFF	; 255
    123c:	31 f4       	brne	.+12     	; 0x124a <main+0x176>
		modbusRegister.timeBtw[0] = 0x00;
    123e:	10 92 07 04 	sts	0x0407, r1	; 0x800407 <modbusRegister+0x7>
    1242:	10 92 06 04 	sts	0x0406, r1	; 0x800406 <modbusRegister+0x6>
		auxtimeBtw[0] = modbusRegister.timeBtw[0];
    1246:	1a 82       	std	Y+2, r1	; 0x02
    1248:	19 82       	std	Y+1, r1	; 0x01
	}
	if(modbusRegister.timeBtw[1] == 0xFFFF){
    124a:	4f 3f       	cpi	r20, 0xFF	; 255
    124c:	5f 4f       	sbci	r21, 0xFF	; 255
    124e:	31 f4       	brne	.+12     	; 0x125c <main+0x188>
		modbusRegister.timeBtw[1] = 0x00;
    1250:	10 92 09 04 	sts	0x0409, r1	; 0x800409 <modbusRegister+0x9>
    1254:	10 92 08 04 	sts	0x0408, r1	; 0x800408 <modbusRegister+0x8>
		auxtimeBtw[1] = modbusRegister.timeBtw[1];
    1258:	1c 82       	std	Y+4, r1	; 0x04
    125a:	1b 82       	std	Y+3, r1	; 0x03
	}
	if(modbusRegister.timeBtw[2] == 0xFFFF){
    125c:	2f 3f       	cpi	r18, 0xFF	; 255
    125e:	3f 4f       	sbci	r19, 0xFF	; 255
    1260:	31 f4       	brne	.+12     	; 0x126e <main+0x19a>
		modbusRegister.timeBtw[2] = 0x00;
    1262:	10 92 0b 04 	sts	0x040B, r1	; 0x80040b <modbusRegister+0xb>
    1266:	10 92 0a 04 	sts	0x040A, r1	; 0x80040a <modbusRegister+0xa>
		auxtimeBtw[2] = modbusRegister.timeBtw[2];
    126a:	1e 82       	std	Y+6, r1	; 0x06
    126c:	1d 82       	std	Y+5, r1	; 0x05
	}
	if(modbusRegister.timeBtw[3] == 0xFFFF){
    126e:	01 96       	adiw	r24, 0x01	; 1
    1270:	31 f4       	brne	.+12     	; 0x127e <main+0x1aa>
		modbusRegister.timeBtw[3] = 0x00;
    1272:	10 92 0d 04 	sts	0x040D, r1	; 0x80040d <modbusRegister+0xd>
    1276:	10 92 0c 04 	sts	0x040C, r1	; 0x80040c <modbusRegister+0xc>
		auxtimeBtw[3] = modbusRegister.timeBtw[3];
    127a:	18 86       	std	Y+8, r1	; 0x08
    127c:	1f 82       	std	Y+7, r1	; 0x07
	}
	
	decodeState = IDLE;
    127e:	10 92 58 01 	sts	0x0158, r1	; 0x800158 <decodeState>
	hbTime = PERIOD250MS;
    1282:	89 e1       	ldi	r24, 0x19	; 25
    1284:	80 93 01 01 	sts	0x0101, r24	; 0x800101 <hbTime>
	auxTik = 25000;
    1288:	88 ea       	ldi	r24, 0xA8	; 168
    128a:	91 e6       	ldi	r25, 0x61	; 97
    128c:	90 93 05 01 	sts	0x0105, r25	; 0x800105 <auxTik+0x1>
    1290:	80 93 04 01 	sts	0x0104, r24	; 0x800104 <auxTik>
	commFlags.aFlags = 0;
	commFlags.iFlags.silenceTime = 1;
    1294:	84 e0       	ldi	r24, 0x04	; 4
    1296:	80 93 59 02 	sts	0x0259, r24	; 0x800259 <commFlags>
	usartFlag.isTrasmitting = 0;
    129a:	e0 e5       	ldi	r30, 0x50	; 80
    129c:	f1 e0       	ldi	r31, 0x01	; 1
    129e:	80 81       	ld	r24, Z
    12a0:	87 7f       	andi	r24, 0xF7	; 247
    12a2:	80 83       	st	Z, r24
	indexTxW = 0;
    12a4:	10 92 52 01 	sts	0x0152, r1	; 0x800152 <indexTxW>
	indexTxR = 0;
    12a8:	10 92 5c 02 	sts	0x025C, r1	; 0x80025c <indexTxR>
	indexRxW = 0;
    12ac:	10 92 68 02 	sts	0x0268, r1	; 0x800268 <indexRxW>
	indexRxR = 0;
    12b0:	10 92 64 02 	sts	0x0264, r1	; 0x800264 <indexRxR>
		
	unixTik = PERIOD500MS;
    12b4:	82 e3       	ldi	r24, 0x32	; 50
    12b6:	80 93 00 01 	sts	0x0100, r24	; 0x800100 <__DATA_REGION_ORIGIN__>
	tikRX	= PERIODBR;
    12ba:	82 e0       	ldi	r24, 0x02	; 2
    12bc:	80 93 7d 03 	sts	0x037D, r24	; 0x80037d <tikRX>
	tim2Tik = PERIOD1S_TIM2;
    12c0:	8f e8       	ldi	r24, 0x8F	; 143
    12c2:	95 e2       	ldi	r25, 0x25	; 37
    12c4:	90 93 03 01 	sts	0x0103, r25	; 0x800103 <tim2Tik+0x1>
    12c8:	80 93 02 01 	sts	0x0102, r24	; 0x800102 <tim2Tik>
	
	newValueA = ~(PINC & MASK_PORTC);
    12cc:	86 b1       	in	r24, 0x06	; 6
    12ce:	8f 70       	andi	r24, 0x0F	; 15
    12d0:	80 95       	com	r24
    12d2:	80 93 71 02 	sts	0x0271, r24	; 0x800271 <newValueA>
	outValues = newValueA;
    12d6:	80 93 7b 03 	sts	0x037B, r24	; 0x80037b <outValues>
	inputFlags.aFlags_input = 0;
    12da:	10 92 63 02 	sts	0x0263, r1	; 0x800263 <inputFlags>
	commFlags.aFlags = 0;
    12de:	10 92 59 02 	sts	0x0259, r1	; 0x800259 <commFlags>
	is500ms = 0;
    12e2:	10 92 5e 02 	sts	0x025E, r1	; 0x80025e <is500ms>

	tikBetweenTime[0] = 0;
    12e6:	e3 e7       	ldi	r30, 0x73	; 115
    12e8:	f3 e0       	ldi	r31, 0x03	; 3
    12ea:	11 82       	std	Z+1, r1	; 0x01
    12ec:	10 82       	st	Z, r1
	tikBetweenTime[1] = 0;
    12ee:	13 82       	std	Z+3, r1	; 0x03
    12f0:	12 82       	std	Z+2, r1	; 0x02
	tikBetweenTime[2] = 0;
    12f2:	15 82       	std	Z+5, r1	; 0x05
    12f4:	14 82       	std	Z+4, r1	; 0x04
	tikBetweenTime[3] = 0;
    12f6:	17 82       	std	Z+7, r1	; 0x07
    12f8:	16 82       	std	Z+6, r1	; 0x06
		
	USART0_Initialize(modbusRegister.brConfig, modbusRegister.parity);
    12fa:	e0 e0       	ldi	r30, 0x00	; 0
    12fc:	f4 e0       	ldi	r31, 0x04	; 4
    12fe:	65 81       	ldd	r22, Z+5	; 0x05
    1300:	84 81       	ldd	r24, Z+4	; 0x04
    1302:	0e 94 1c 0c 	call	0x1838	; 0x1838 <USART0_Initialize>
	TC0_Initialize();
    1306:	0e 94 f9 0a 	call	0x15f2	; 0x15f2 <TC0_Initialize>
	TC1_Initialize();
    130a:	0e 94 36 0b 	call	0x166c	; 0x166c <TC1_Initialize>
	TC2_Initialize();
    130e:	0e 94 ae 0b 	call	0x175c	; 0x175c <TC2_Initialize>
	USART1_Initialize();
    1312:	0e 94 4b 0c 	call	0x1896	; 0x1896 <USART1_Initialize>
	InitializeEvents();
    1316:	0e 94 b6 02 	call	0x56c	; 0x56c <InitializeEvents>
	
	sei();
    131a:	78 94       	sei
	
	TMR0_SetHandler(do10ms);
    131c:	8d e8       	ldi	r24, 0x8D	; 141
    131e:	90 e0       	ldi	r25, 0x00	; 0
    1320:	0e 94 06 0b 	call	0x160c	; 0x160c <TMR0_SetHandler>
	TMR1_SetHandler(do10us);
    1324:	8a e5       	ldi	r24, 0x5A	; 90
    1326:	90 e0       	ldi	r25, 0x00	; 0
    1328:	0e 94 7e 0b 	call	0x16fc	; 0x16fc <TMR1_SetHandler>
	TMR2_SetHandler(ISRVirtualUsart);
    132c:	89 eb       	ldi	r24, 0xB9	; 185
    132e:	90 e0       	ldi	r25, 0x00	; 0
    1330:	0e 94 c1 0b 	call	0x1782	; 0x1782 <TMR2_SetHandler>
	//devolver dato leido
	return EEDR;
}

static inline void USART0_ReceiveInterruptEnable(){
	UCSR0B |= (1 << (RXCIE0));
    1334:	e1 ec       	ldi	r30, 0xC1	; 193
    1336:	f0 e0       	ldi	r31, 0x00	; 0
    1338:	80 81       	ld	r24, Z
    133a:	80 68       	ori	r24, 0x80	; 128
    133c:	80 83       	st	Z, r24
/*
    Main application
*/
int main(void){
/* Local variables -----------------------------------------------------------*/
	uint8_t auxSlaveAddress, hbState = 0, byte=0;
    133e:	10 e0       	ldi	r17, 0x00	; 0
	TMR1_SetHandler(do10us);
	TMR2_SetHandler(ISRVirtualUsart);
	USART0_ReceiveInterruptEnable();

	while(1){
			if(!hbTime){
    1340:	80 91 01 01 	lds	r24, 0x0101	; 0x800101 <hbTime>
    1344:	81 11       	cpse	r24, r1
    1346:	05 c0       	rjmp	.+10     	; 0x1352 <main+0x27e>
				hbState ^= (1<<5);
    1348:	80 e2       	ldi	r24, 0x20	; 32
    134a:	18 27       	eor	r17, r24
				hbTime = PERIOD250MS;
    134c:	89 e1       	ldi	r24, 0x19	; 25
    134e:	80 93 01 01 	sts	0x0101, r24	; 0x800101 <hbTime>
			}

			USART1_Start_bit_detect();
    1352:	0e 94 64 0c 	call	0x18c8	; 0x18c8 <USART1_Start_bit_detect>
			if(USART1_RX_READY){
    1356:	80 91 7e 03 	lds	r24, 0x037E	; 0x80037e <USART1>
    135a:	82 ff       	sbrs	r24, 2
    135c:	04 c0       	rjmp	.+8      	; 0x1366 <main+0x292>
				byte = USART1_Read();
    135e:	0e 94 57 0d 	call	0x1aae	; 0x1aae <USART1_Read>
				USART1_Write(byte);
    1362:	0e 94 4f 0d 	call	0x1a9e	; 0x1a9e <USART1_Write>
			}		
	 
			if(commFlags.iFlags.dataReady){
    1366:	80 91 59 02 	lds	r24, 0x0259	; 0x800259 <commFlags>
    136a:	81 ff       	sbrs	r24, 1
    136c:	05 c0       	rjmp	.+10     	; 0x1378 <main+0x2a4>
				commFlags.iFlags.dataReady = 0;
    136e:	8d 7f       	andi	r24, 0xFD	; 253
    1370:	80 93 59 02 	sts	0x0259, r24	; 0x800259 <commFlags>
				MODBUS_ProcessFunction();
    1374:	0e 94 47 04 	call	0x88e	; 0x88e <MODBUS_ProcessFunction>
			}

			if((indexTxR != indexTxW) && tikResponse == 0){
    1378:	90 91 5c 02 	lds	r25, 0x025C	; 0x80025c <indexTxR>
    137c:	80 91 52 01 	lds	r24, 0x0152	; 0x800152 <indexTxW>
    1380:	98 17       	cp	r25, r24
    1382:	a9 f0       	breq	.+42     	; 0x13ae <main+0x2da>
    1384:	80 91 5a 02 	lds	r24, 0x025A	; 0x80025a <tikResponse>
    1388:	90 91 5b 02 	lds	r25, 0x025B	; 0x80025b <tikResponse+0x1>
    138c:	89 2b       	or	r24, r25
    138e:	79 f4       	brne	.+30     	; 0x13ae <main+0x2da>
				if(usartFlag.isTrasmitting){
    1390:	80 91 50 01 	lds	r24, 0x0150	; 0x800150 <usartFlag>
    1394:	83 ff       	sbrs	r24, 3
    1396:	03 c0       	rjmp	.+6      	; 0x139e <main+0x2ca>
					UARTsendByte();	
    1398:	0e 94 1c 01 	call	0x238	; 0x238 <UARTsendByte>
    139c:	08 c0       	rjmp	.+16     	; 0x13ae <main+0x2da>
				}else{
					PORTD |= (1<<2);
    139e:	8b b1       	in	r24, 0x0b	; 11
    13a0:	84 60       	ori	r24, 0x04	; 4
    13a2:	8b b9       	out	0x0b, r24	; 11
					usartFlag.isTrasmitting = 1;	
    13a4:	e0 e5       	ldi	r30, 0x50	; 80
    13a6:	f1 e0       	ldi	r31, 0x01	; 1
    13a8:	80 81       	ld	r24, Z
    13aa:	88 60       	ori	r24, 0x08	; 8
    13ac:	80 83       	st	Z, r24
				}
			}
			
			if(indexTxR==indexTxW && usartFlag.isTrasmitting){
    13ae:	90 91 5c 02 	lds	r25, 0x025C	; 0x80025c <indexTxR>
    13b2:	80 91 52 01 	lds	r24, 0x0152	; 0x800152 <indexTxW>
    13b6:	98 13       	cpse	r25, r24
    13b8:	15 c0       	rjmp	.+42     	; 0x13e4 <main+0x310>
    13ba:	80 91 50 01 	lds	r24, 0x0150	; 0x800150 <usartFlag>
    13be:	83 ff       	sbrs	r24, 3
    13c0:	11 c0       	rjmp	.+34     	; 0x13e4 <main+0x310>
				if(UCSR0A & (1<<TXC0)){
    13c2:	80 91 c0 00 	lds	r24, 0x00C0	; 0x8000c0 <__TEXT_REGION_LENGTH__+0x7f80c0>
    13c6:	86 ff       	sbrs	r24, 6
    13c8:	0d c0       	rjmp	.+26     	; 0x13e4 <main+0x310>
					PORTD &= ~(1<<2);
    13ca:	8b b1       	in	r24, 0x0b	; 11
    13cc:	8b 7f       	andi	r24, 0xFB	; 251
    13ce:	8b b9       	out	0x0b, r24	; 11
					usartFlag.isTrasmitting = 0;
    13d0:	e0 e5       	ldi	r30, 0x50	; 80
    13d2:	f1 e0       	ldi	r31, 0x01	; 1
    13d4:	80 81       	ld	r24, Z
    13d6:	87 7f       	andi	r24, 0xF7	; 247
    13d8:	80 83       	st	Z, r24
					UCSR0A &= ~(1<<TXC0);      
    13da:	e0 ec       	ldi	r30, 0xC0	; 192
    13dc:	f0 e0       	ldi	r31, 0x00	; 0
    13de:	80 81       	ld	r24, Z
    13e0:	8f 7b       	andi	r24, 0xBF	; 191
    13e2:	80 83       	st	Z, r24
				}
			}
			
			if(commFlags.iFlags.isExceptionCode){ 
    13e4:	80 91 59 02 	lds	r24, 0x0259	; 0x800259 <commFlags>
    13e8:	83 fd       	sbrc	r24, 3
				MODBUS_SendExceptionCode();
    13ea:	0e 94 18 08 	call	0x1030	; 0x1030 <MODBUS_SendExceptionCode>
			}
 
			if(commFlags.iFlags.restartComms){
    13ee:	80 91 59 02 	lds	r24, 0x0259	; 0x800259 <commFlags>
    13f2:	86 ff       	sbrs	r24, 6
    13f4:	cc c0       	rjmp	.+408    	; 0x158e <main+0x4ba>
				//GUARDAR TODOS LOS REGISTROS EN EEPROM Y RESETEAR USART
						if(auxSlaveAddress != slaveAddress){
    13f6:	60 91 ff 03 	lds	r22, 0x03FF	; 0x8003ff <slaveAddress>
    13fa:	06 17       	cp	r16, r22
    13fc:	31 f0       	breq	.+12     	; 0x140a <main+0x336>
							EEPROM_Write(SLAVE_EEPROM_ADDRESS, slaveAddress);
    13fe:	81 e0       	ldi	r24, 0x01	; 1
    1400:	90 e0       	ldi	r25, 0x00	; 0
    1402:	0e 94 f3 00 	call	0x1e6	; 0x1e6 <EEPROM_Write>
							auxSlaveAddress = slaveAddress;
    1406:	00 91 ff 03 	lds	r16, 0x03FF	; 0x8003ff <slaveAddress>
						}
						if(auxbrConfig != modbusRegister.brConfig){
    140a:	60 91 04 04 	lds	r22, 0x0404	; 0x800404 <modbusRegister+0x4>
    140e:	80 91 07 01 	lds	r24, 0x0107	; 0x800107 <auxbrConfig>
    1412:	68 17       	cp	r22, r24
    1414:	41 f0       	breq	.+16     	; 0x1426 <main+0x352>
							EEPROM_Write(BRCONFIG_EEPROM_ADDRESS,modbusRegister.brConfig);
    1416:	82 e0       	ldi	r24, 0x02	; 2
    1418:	90 e0       	ldi	r25, 0x00	; 0
    141a:	0e 94 f3 00 	call	0x1e6	; 0x1e6 <EEPROM_Write>
							auxbrConfig = modbusRegister.brConfig;
    141e:	80 91 04 04 	lds	r24, 0x0404	; 0x800404 <modbusRegister+0x4>
    1422:	80 93 07 01 	sts	0x0107, r24	; 0x800107 <auxbrConfig>
						}
						if(auxParity != modbusRegister.parity){
    1426:	60 91 05 04 	lds	r22, 0x0405	; 0x800405 <modbusRegister+0x5>
    142a:	80 91 06 01 	lds	r24, 0x0106	; 0x800106 <auxParity>
    142e:	68 17       	cp	r22, r24
    1430:	41 f0       	breq	.+16     	; 0x1442 <main+0x36e>
							EEPROM_Write(PARITY_EEPROM_ADDRESS,modbusRegister.parity);
    1432:	83 e0       	ldi	r24, 0x03	; 3
    1434:	90 e0       	ldi	r25, 0x00	; 0
    1436:	0e 94 f3 00 	call	0x1e6	; 0x1e6 <EEPROM_Write>
							auxParity = modbusRegister.parity;
    143a:	80 91 05 04 	lds	r24, 0x0405	; 0x800405 <modbusRegister+0x5>
    143e:	80 93 06 01 	sts	0x0106, r24	; 0x800106 <auxParity>
						}
						if(auxtimeBtw[0] != modbusRegister.timeBtw[0]){
    1442:	29 81       	ldd	r18, Y+1	; 0x01
    1444:	3a 81       	ldd	r19, Y+2	; 0x02
    1446:	80 91 06 04 	lds	r24, 0x0406	; 0x800406 <modbusRegister+0x6>
    144a:	90 91 07 04 	lds	r25, 0x0407	; 0x800407 <modbusRegister+0x7>
    144e:	28 17       	cp	r18, r24
    1450:	39 07       	cpc	r19, r25
    1452:	e1 f0       	breq	.+56     	; 0x148c <main+0x3b8>
							myWord.ui16[0]=modbusRegister.timeBtw[0];
    1454:	0f 2e       	mov	r0, r31
    1456:	ff e5       	ldi	r31, 0x5F	; 95
    1458:	ef 2e       	mov	r14, r31
    145a:	f2 e0       	ldi	r31, 0x02	; 2
    145c:	ff 2e       	mov	r15, r31
    145e:	f0 2d       	mov	r31, r0
    1460:	d7 01       	movw	r26, r14
    1462:	11 96       	adiw	r26, 0x01	; 1
    1464:	9c 93       	st	X, r25
    1466:	8e 93       	st	-X, r24
							EEPROM_Write(TIMEBTW0_HIGH_EEPROM_ADDRESS,myWord.ui8[1]);
    1468:	11 96       	adiw	r26, 0x01	; 1
    146a:	6c 91       	ld	r22, X
    146c:	85 e0       	ldi	r24, 0x05	; 5
    146e:	90 e0       	ldi	r25, 0x00	; 0
    1470:	0e 94 f3 00 	call	0x1e6	; 0x1e6 <EEPROM_Write>
							EEPROM_Write(TIMEBTW0_LOW_EEPROM_ADDRESS,myWord.ui8[0]);
    1474:	f7 01       	movw	r30, r14
    1476:	60 81       	ld	r22, Z
    1478:	84 e0       	ldi	r24, 0x04	; 4
    147a:	90 e0       	ldi	r25, 0x00	; 0
    147c:	0e 94 f3 00 	call	0x1e6	; 0x1e6 <EEPROM_Write>
							auxtimeBtw[0] = modbusRegister.timeBtw[0];
    1480:	80 91 06 04 	lds	r24, 0x0406	; 0x800406 <modbusRegister+0x6>
    1484:	90 91 07 04 	lds	r25, 0x0407	; 0x800407 <modbusRegister+0x7>
    1488:	9a 83       	std	Y+2, r25	; 0x02
    148a:	89 83       	std	Y+1, r24	; 0x01
						}
						if(auxtimeBtw[1] != modbusRegister.timeBtw[1]){
    148c:	2b 81       	ldd	r18, Y+3	; 0x03
    148e:	3c 81       	ldd	r19, Y+4	; 0x04
    1490:	80 91 08 04 	lds	r24, 0x0408	; 0x800408 <modbusRegister+0x8>
    1494:	90 91 09 04 	lds	r25, 0x0409	; 0x800409 <modbusRegister+0x9>
    1498:	28 17       	cp	r18, r24
    149a:	39 07       	cpc	r19, r25
    149c:	e1 f0       	breq	.+56     	; 0x14d6 <main+0x402>
							myWord.ui16[0]=modbusRegister.timeBtw[1];
    149e:	0f 2e       	mov	r0, r31
    14a0:	ff e5       	ldi	r31, 0x5F	; 95
    14a2:	ef 2e       	mov	r14, r31
    14a4:	f2 e0       	ldi	r31, 0x02	; 2
    14a6:	ff 2e       	mov	r15, r31
    14a8:	f0 2d       	mov	r31, r0
    14aa:	d7 01       	movw	r26, r14
    14ac:	11 96       	adiw	r26, 0x01	; 1
    14ae:	9c 93       	st	X, r25
    14b0:	8e 93       	st	-X, r24
							EEPROM_Write(TIMEBTW1_HIGH_EEPROM_ADDRESS,myWord.ui8[1]);
    14b2:	11 96       	adiw	r26, 0x01	; 1
    14b4:	6c 91       	ld	r22, X
    14b6:	87 e0       	ldi	r24, 0x07	; 7
    14b8:	90 e0       	ldi	r25, 0x00	; 0
    14ba:	0e 94 f3 00 	call	0x1e6	; 0x1e6 <EEPROM_Write>
							EEPROM_Write(TIMEBTW1_LOW_EEPROM_ADDRESS,myWord.ui8[0]);
    14be:	f7 01       	movw	r30, r14
    14c0:	60 81       	ld	r22, Z
    14c2:	86 e0       	ldi	r24, 0x06	; 6
    14c4:	90 e0       	ldi	r25, 0x00	; 0
    14c6:	0e 94 f3 00 	call	0x1e6	; 0x1e6 <EEPROM_Write>
							auxtimeBtw[1] = modbusRegister.timeBtw[1];
    14ca:	80 91 08 04 	lds	r24, 0x0408	; 0x800408 <modbusRegister+0x8>
    14ce:	90 91 09 04 	lds	r25, 0x0409	; 0x800409 <modbusRegister+0x9>
    14d2:	9c 83       	std	Y+4, r25	; 0x04
    14d4:	8b 83       	std	Y+3, r24	; 0x03
						}
						if(auxtimeBtw[2] != modbusRegister.timeBtw[2]){
    14d6:	2d 81       	ldd	r18, Y+5	; 0x05
    14d8:	3e 81       	ldd	r19, Y+6	; 0x06
    14da:	80 91 0a 04 	lds	r24, 0x040A	; 0x80040a <modbusRegister+0xa>
    14de:	90 91 0b 04 	lds	r25, 0x040B	; 0x80040b <modbusRegister+0xb>
    14e2:	28 17       	cp	r18, r24
    14e4:	39 07       	cpc	r19, r25
    14e6:	e1 f0       	breq	.+56     	; 0x1520 <main+0x44c>
							myWord.ui16[0]=modbusRegister.timeBtw[2];
    14e8:	0f 2e       	mov	r0, r31
    14ea:	ff e5       	ldi	r31, 0x5F	; 95
    14ec:	ef 2e       	mov	r14, r31
    14ee:	f2 e0       	ldi	r31, 0x02	; 2
    14f0:	ff 2e       	mov	r15, r31
    14f2:	f0 2d       	mov	r31, r0
    14f4:	d7 01       	movw	r26, r14
    14f6:	11 96       	adiw	r26, 0x01	; 1
    14f8:	9c 93       	st	X, r25
    14fa:	8e 93       	st	-X, r24
							EEPROM_Write(TIMEBTW2_HIGH_EEPROM_ADDRESS,myWord.ui8[1]);
    14fc:	11 96       	adiw	r26, 0x01	; 1
    14fe:	6c 91       	ld	r22, X
    1500:	89 e0       	ldi	r24, 0x09	; 9
    1502:	90 e0       	ldi	r25, 0x00	; 0
    1504:	0e 94 f3 00 	call	0x1e6	; 0x1e6 <EEPROM_Write>
							EEPROM_Write(TIMEBTW2_LOW_EEPROM_ADDRESS,myWord.ui8[0]);
    1508:	f7 01       	movw	r30, r14
    150a:	60 81       	ld	r22, Z
    150c:	88 e0       	ldi	r24, 0x08	; 8
    150e:	90 e0       	ldi	r25, 0x00	; 0
    1510:	0e 94 f3 00 	call	0x1e6	; 0x1e6 <EEPROM_Write>
							auxtimeBtw[2] = modbusRegister.timeBtw[2];
    1514:	80 91 0a 04 	lds	r24, 0x040A	; 0x80040a <modbusRegister+0xa>
    1518:	90 91 0b 04 	lds	r25, 0x040B	; 0x80040b <modbusRegister+0xb>
    151c:	9e 83       	std	Y+6, r25	; 0x06
    151e:	8d 83       	std	Y+5, r24	; 0x05
						}
						if(auxtimeBtw[3] != modbusRegister.timeBtw[3]){
    1520:	2f 81       	ldd	r18, Y+7	; 0x07
    1522:	38 85       	ldd	r19, Y+8	; 0x08
    1524:	80 91 0c 04 	lds	r24, 0x040C	; 0x80040c <modbusRegister+0xc>
    1528:	90 91 0d 04 	lds	r25, 0x040D	; 0x80040d <modbusRegister+0xd>
    152c:	28 17       	cp	r18, r24
    152e:	39 07       	cpc	r19, r25
    1530:	e1 f0       	breq	.+56     	; 0x156a <main+0x496>
							myWord.ui16[0]=modbusRegister.timeBtw[3];
    1532:	0f 2e       	mov	r0, r31
    1534:	ff e5       	ldi	r31, 0x5F	; 95
    1536:	ef 2e       	mov	r14, r31
    1538:	f2 e0       	ldi	r31, 0x02	; 2
    153a:	ff 2e       	mov	r15, r31
    153c:	f0 2d       	mov	r31, r0
    153e:	d7 01       	movw	r26, r14
    1540:	11 96       	adiw	r26, 0x01	; 1
    1542:	9c 93       	st	X, r25
    1544:	8e 93       	st	-X, r24
							EEPROM_Write(TIMEBTW3_HIGH_EEPROM_ADDRESS,myWord.ui8[1]);
    1546:	11 96       	adiw	r26, 0x01	; 1
    1548:	6c 91       	ld	r22, X
    154a:	8b e0       	ldi	r24, 0x0B	; 11
    154c:	90 e0       	ldi	r25, 0x00	; 0
    154e:	0e 94 f3 00 	call	0x1e6	; 0x1e6 <EEPROM_Write>
							EEPROM_Write(TIMEBTW3_LOW_EEPROM_ADDRESS,myWord.ui8[0]);
    1552:	f7 01       	movw	r30, r14
    1554:	60 81       	ld	r22, Z
    1556:	8a e0       	ldi	r24, 0x0A	; 10
    1558:	90 e0       	ldi	r25, 0x00	; 0
    155a:	0e 94 f3 00 	call	0x1e6	; 0x1e6 <EEPROM_Write>
							auxtimeBtw[3] = modbusRegister.timeBtw[3];
    155e:	80 91 0c 04 	lds	r24, 0x040C	; 0x80040c <modbusRegister+0xc>
    1562:	90 91 0d 04 	lds	r25, 0x040D	; 0x80040d <modbusRegister+0xd>
    1566:	98 87       	std	Y+8, r25	; 0x08
    1568:	8f 83       	std	Y+7, r24	; 0x07
						}
				USART0_Deinitialize();
    156a:	0e 94 f1 0b 	call	0x17e2	; 0x17e2 <USART0_Deinitialize>
				USART0_Initialize(modbusRegister.brConfig,modbusRegister.parity);
    156e:	e0 e0       	ldi	r30, 0x00	; 0
    1570:	f4 e0       	ldi	r31, 0x04	; 4
    1572:	65 81       	ldd	r22, Z+5	; 0x05
    1574:	84 81       	ldd	r24, Z+4	; 0x04
    1576:	0e 94 1c 0c 	call	0x1838	; 0x1838 <USART0_Initialize>
	//devolver dato leido
	return EEDR;
}

static inline void USART0_ReceiveInterruptEnable(){
	UCSR0B |= (1 << (RXCIE0));
    157a:	e1 ec       	ldi	r30, 0xC1	; 193
    157c:	f0 e0       	ldi	r31, 0x00	; 0
    157e:	80 81       	ld	r24, Z
    1580:	80 68       	ori	r24, 0x80	; 128
    1582:	80 83       	st	Z, r24
							auxtimeBtw[3] = modbusRegister.timeBtw[3];
						}
				USART0_Deinitialize();
				USART0_Initialize(modbusRegister.brConfig,modbusRegister.parity);
				USART0_ReceiveInterruptEnable();
				commFlags.iFlags.restartComms = 0;
    1584:	80 91 59 02 	lds	r24, 0x0259	; 0x800259 <commFlags>
    1588:	8f 7b       	andi	r24, 0xBF	; 191
    158a:	80 93 59 02 	sts	0x0259, r24	; 0x800259 <commFlags>
			}
			
		if(commFlags.iFlags.isEvent1){
    158e:	80 91 59 02 	lds	r24, 0x0259	; 0x800259 <commFlags>
    1592:	80 ff       	sbrs	r24, 0
    1594:	07 c0       	rjmp	.+14     	; 0x15a4 <main+0x4d0>
			TIMSK0 &= ~(1 << OCIE0A);
    1596:	ee e6       	ldi	r30, 0x6E	; 110
    1598:	f0 e0       	ldi	r31, 0x00	; 0
    159a:	80 81       	ld	r24, Z
    159c:	8d 7f       	andi	r24, 0xFD	; 253
    159e:	80 83       	st	Z, r24
			RegInput();
    15a0:	0e 94 ea 01 	call	0x3d4	; 0x3d4 <RegInput>
		}
			
		PORTB = ((outValues << 1) & MASK_PORTB) | hbState ; 
    15a4:	80 91 7b 03 	lds	r24, 0x037B	; 0x80037b <outValues>
    15a8:	90 e0       	ldi	r25, 0x00	; 0
    15aa:	88 0f       	add	r24, r24
    15ac:	99 1f       	adc	r25, r25
    15ae:	8e 71       	andi	r24, 0x1E	; 30
    15b0:	81 2b       	or	r24, r17
    15b2:	85 b9       	out	0x05, r24	; 5
	}
    15b4:	c5 ce       	rjmp	.-630    	; 0x1340 <main+0x26c>

000015b6 <CPU_Initialize>:
    15b6:	10 92 64 00 	sts	0x0064, r1	; 0x800064 <__TEXT_REGION_LENGTH__+0x7f8064>
    15ba:	10 92 61 00 	sts	0x0061, r1	; 0x800061 <__TEXT_REGION_LENGTH__+0x7f8061>
    15be:	13 be       	out	0x33, r1	; 51
    15c0:	15 be       	out	0x35, r1	; 53
    15c2:	08 95       	ret

000015c4 <CPUINT_Initialize>:
    15c4:	15 be       	out	0x35, r1	; 53
    15c6:	1f be       	out	0x3f, r1	; 63
    15c8:	80 e0       	ldi	r24, 0x00	; 0
    15ca:	08 95       	ret

000015cc <PIN_MANAGER_Initialize>:
#include "../pins.h"

void PIN_MANAGER_Initialize()
{
  /* DIR Registers Initialization */
    DDRB = 0x3F;
    15cc:	8f e3       	ldi	r24, 0x3F	; 63
    15ce:	84 b9       	out	0x04, r24	; 4
    DDRC = 0x0;
    15d0:	17 b8       	out	0x07, r1	; 7
    DDRD = 0x16;
    15d2:	86 e1       	ldi	r24, 0x16	; 22
    15d4:	8a b9       	out	0x0a, r24	; 10

  /* PORTx Registers Initialization */
    PORTB = 0x0;
    15d6:	15 b8       	out	0x05, r1	; 5
    PORTC = 0x0;
    15d8:	18 b8       	out	0x08, r1	; 8
    PORTD = 0x0;
    15da:	1b b8       	out	0x0b, r1	; 11

  /* PINx registers Initialization */
    PINB = 0x0;
    15dc:	13 b8       	out	0x03, r1	; 3
    PINC = 0x0;
    15de:	16 b8       	out	0x06, r1	; 6
    PIND = 0x0;
    15e0:	19 b8       	out	0x09, r1	; 9
    15e2:	08 95       	ret

000015e4 <SYSTEM_Initialize>:
    15e4:	0e 94 db 0a 	call	0x15b6	; 0x15b6 <CPU_Initialize>
    15e8:	0e 94 e6 0a 	call	0x15cc	; 0x15cc <PIN_MANAGER_Initialize>
    15ec:	0e 94 e2 0a 	call	0x15c4	; 0x15c4 <CPUINT_Initialize>
    15f0:	08 95       	ret

000015f2 <TC0_Initialize>:
    15f2:	8b e9       	ldi	r24, 0x9B	; 155
    15f4:	87 bd       	out	0x27, r24	; 39
    15f6:	18 bc       	out	0x28, r1	; 40
    15f8:	16 bc       	out	0x26, r1	; 38
    15fa:	13 bc       	out	0x23, r1	; 35
    15fc:	82 e0       	ldi	r24, 0x02	; 2
    15fe:	84 bd       	out	0x24, r24	; 36
    1600:	95 e0       	ldi	r25, 0x05	; 5
    1602:	95 bd       	out	0x25, r25	; 37
    1604:	80 93 6e 00 	sts	0x006E, r24	; 0x80006e <__TEXT_REGION_LENGTH__+0x7f806e>
    1608:	80 e0       	ldi	r24, 0x00	; 0
    160a:	08 95       	ret

0000160c <TMR0_SetHandler>:
    160c:	90 93 0d 01 	sts	0x010D, r25	; 0x80010d <TMR0Handler+0x1>
    1610:	80 93 0c 01 	sts	0x010C, r24	; 0x80010c <TMR0Handler>
    1614:	08 95       	ret

00001616 <__vector_14>:
    1616:	1f 92       	push	r1
    1618:	0f 92       	push	r0
    161a:	0f b6       	in	r0, 0x3f	; 63
    161c:	0f 92       	push	r0
    161e:	11 24       	eor	r1, r1
    1620:	2f 93       	push	r18
    1622:	3f 93       	push	r19
    1624:	4f 93       	push	r20
    1626:	5f 93       	push	r21
    1628:	6f 93       	push	r22
    162a:	7f 93       	push	r23
    162c:	8f 93       	push	r24
    162e:	9f 93       	push	r25
    1630:	af 93       	push	r26
    1632:	bf 93       	push	r27
    1634:	ef 93       	push	r30
    1636:	ff 93       	push	r31
    1638:	81 e0       	ldi	r24, 0x01	; 1
    163a:	85 bb       	out	0x15, r24	; 21
    163c:	e0 91 0c 01 	lds	r30, 0x010C	; 0x80010c <TMR0Handler>
    1640:	f0 91 0d 01 	lds	r31, 0x010D	; 0x80010d <TMR0Handler+0x1>
    1644:	30 97       	sbiw	r30, 0x00	; 0
    1646:	09 f0       	breq	.+2      	; 0x164a <__vector_14+0x34>
    1648:	09 95       	icall
    164a:	ff 91       	pop	r31
    164c:	ef 91       	pop	r30
    164e:	bf 91       	pop	r27
    1650:	af 91       	pop	r26
    1652:	9f 91       	pop	r25
    1654:	8f 91       	pop	r24
    1656:	7f 91       	pop	r23
    1658:	6f 91       	pop	r22
    165a:	5f 91       	pop	r21
    165c:	4f 91       	pop	r20
    165e:	3f 91       	pop	r19
    1660:	2f 91       	pop	r18
    1662:	0f 90       	pop	r0
    1664:	0f be       	out	0x3f, r0	; 63
    1666:	0f 90       	pop	r0
    1668:	1f 90       	pop	r1
    166a:	18 95       	reti

0000166c <TC1_Initialize>:
    166c:	8f e9       	ldi	r24, 0x9F	; 159
    166e:	90 e0       	ldi	r25, 0x00	; 0
    1670:	90 93 89 00 	sts	0x0089, r25	; 0x800089 <__TEXT_REGION_LENGTH__+0x7f8089>
    1674:	80 93 88 00 	sts	0x0088, r24	; 0x800088 <__TEXT_REGION_LENGTH__+0x7f8088>
    1678:	81 e0       	ldi	r24, 0x01	; 1
    167a:	90 e0       	ldi	r25, 0x00	; 0
    167c:	90 93 8b 00 	sts	0x008B, r25	; 0x80008b <__TEXT_REGION_LENGTH__+0x7f808b>
    1680:	80 93 8a 00 	sts	0x008A, r24	; 0x80008a <__TEXT_REGION_LENGTH__+0x7f808a>
    1684:	10 92 87 00 	sts	0x0087, r1	; 0x800087 <__TEXT_REGION_LENGTH__+0x7f8087>
    1688:	10 92 86 00 	sts	0x0086, r1	; 0x800086 <__TEXT_REGION_LENGTH__+0x7f8086>
    168c:	10 92 85 00 	sts	0x0085, r1	; 0x800085 <__TEXT_REGION_LENGTH__+0x7f8085>
    1690:	10 92 84 00 	sts	0x0084, r1	; 0x800084 <__TEXT_REGION_LENGTH__+0x7f8084>
    1694:	13 bc       	out	0x23, r1	; 35
    1696:	10 92 80 00 	sts	0x0080, r1	; 0x800080 <__TEXT_REGION_LENGTH__+0x7f8080>
    169a:	89 e0       	ldi	r24, 0x09	; 9
    169c:	80 93 81 00 	sts	0x0081, r24	; 0x800081 <__TEXT_REGION_LENGTH__+0x7f8081>
    16a0:	10 92 82 00 	sts	0x0082, r1	; 0x800082 <__TEXT_REGION_LENGTH__+0x7f8082>
    16a4:	82 e0       	ldi	r24, 0x02	; 2
    16a6:	80 93 6f 00 	sts	0x006F, r24	; 0x80006f <__TEXT_REGION_LENGTH__+0x7f806f>
    16aa:	80 e0       	ldi	r24, 0x00	; 0
    16ac:	08 95       	ret

000016ae <__vector_12>:
    16ae:	1f 92       	push	r1
    16b0:	0f 92       	push	r0
    16b2:	0f b6       	in	r0, 0x3f	; 63
    16b4:	0f 92       	push	r0
    16b6:	11 24       	eor	r1, r1
    16b8:	8f 93       	push	r24
    16ba:	82 e0       	ldi	r24, 0x02	; 2
    16bc:	86 bb       	out	0x16, r24	; 22
    16be:	8f 91       	pop	r24
    16c0:	0f 90       	pop	r0
    16c2:	0f be       	out	0x3f, r0	; 63
    16c4:	0f 90       	pop	r0
    16c6:	1f 90       	pop	r1
    16c8:	18 95       	reti

000016ca <__vector_13>:
    16ca:	1f 92       	push	r1
    16cc:	0f 92       	push	r0
    16ce:	0f b6       	in	r0, 0x3f	; 63
    16d0:	0f 92       	push	r0
    16d2:	11 24       	eor	r1, r1
    16d4:	16 ba       	out	0x16, r1	; 22
    16d6:	0f 90       	pop	r0
    16d8:	0f be       	out	0x3f, r0	; 63
    16da:	0f 90       	pop	r0
    16dc:	1f 90       	pop	r1
    16de:	18 95       	reti

000016e0 <__vector_10>:
    16e0:	1f 92       	push	r1
    16e2:	0f 92       	push	r0
    16e4:	0f b6       	in	r0, 0x3f	; 63
    16e6:	0f 92       	push	r0
    16e8:	11 24       	eor	r1, r1
    16ea:	8f 93       	push	r24
    16ec:	85 e0       	ldi	r24, 0x05	; 5
    16ee:	86 bb       	out	0x16, r24	; 22
    16f0:	8f 91       	pop	r24
    16f2:	0f 90       	pop	r0
    16f4:	0f be       	out	0x3f, r0	; 63
    16f6:	0f 90       	pop	r0
    16f8:	1f 90       	pop	r1
    16fa:	18 95       	reti

000016fc <TMR1_SetHandler>:
    16fc:	90 93 0f 01 	sts	0x010F, r25	; 0x80010f <TMR1Handler+0x1>
    1700:	80 93 0e 01 	sts	0x010E, r24	; 0x80010e <TMR1Handler>
    1704:	08 95       	ret

00001706 <__vector_11>:
    1706:	1f 92       	push	r1
    1708:	0f 92       	push	r0
    170a:	0f b6       	in	r0, 0x3f	; 63
    170c:	0f 92       	push	r0
    170e:	11 24       	eor	r1, r1
    1710:	2f 93       	push	r18
    1712:	3f 93       	push	r19
    1714:	4f 93       	push	r20
    1716:	5f 93       	push	r21
    1718:	6f 93       	push	r22
    171a:	7f 93       	push	r23
    171c:	8f 93       	push	r24
    171e:	9f 93       	push	r25
    1720:	af 93       	push	r26
    1722:	bf 93       	push	r27
    1724:	ef 93       	push	r30
    1726:	ff 93       	push	r31
    1728:	81 e0       	ldi	r24, 0x01	; 1
    172a:	86 bb       	out	0x16, r24	; 22
    172c:	e0 91 0e 01 	lds	r30, 0x010E	; 0x80010e <TMR1Handler>
    1730:	f0 91 0f 01 	lds	r31, 0x010F	; 0x80010f <TMR1Handler+0x1>
    1734:	30 97       	sbiw	r30, 0x00	; 0
    1736:	09 f0       	breq	.+2      	; 0x173a <__vector_11+0x34>
    1738:	09 95       	icall
    173a:	ff 91       	pop	r31
    173c:	ef 91       	pop	r30
    173e:	bf 91       	pop	r27
    1740:	af 91       	pop	r26
    1742:	9f 91       	pop	r25
    1744:	8f 91       	pop	r24
    1746:	7f 91       	pop	r23
    1748:	6f 91       	pop	r22
    174a:	5f 91       	pop	r21
    174c:	4f 91       	pop	r20
    174e:	3f 91       	pop	r19
    1750:	2f 91       	pop	r18
    1752:	0f 90       	pop	r0
    1754:	0f be       	out	0x3f, r0	; 63
    1756:	0f 90       	pop	r0
    1758:	1f 90       	pop	r1
    175a:	18 95       	reti

0000175c <TC2_Initialize>:
}

uint8_t TC2_ReadTimer(void)
{
    return TCNT2;
}
    175c:	87 e6       	ldi	r24, 0x67	; 103
    175e:	80 93 b3 00 	sts	0x00B3, r24	; 0x8000b3 <__TEXT_REGION_LENGTH__+0x7f80b3>
    1762:	10 92 b4 00 	sts	0x00B4, r1	; 0x8000b4 <__TEXT_REGION_LENGTH__+0x7f80b4>
    1766:	10 92 b2 00 	sts	0x00B2, r1	; 0x8000b2 <__TEXT_REGION_LENGTH__+0x7f80b2>
    176a:	13 bc       	out	0x23, r1	; 35
    176c:	82 e0       	ldi	r24, 0x02	; 2
    176e:	80 93 b0 00 	sts	0x00B0, r24	; 0x8000b0 <__TEXT_REGION_LENGTH__+0x7f80b0>
    1772:	80 93 b1 00 	sts	0x00B1, r24	; 0x8000b1 <__TEXT_REGION_LENGTH__+0x7f80b1>
    1776:	80 93 70 00 	sts	0x0070, r24	; 0x800070 <__TEXT_REGION_LENGTH__+0x7f8070>
    177a:	10 92 b6 00 	sts	0x00B6, r1	; 0x8000b6 <__TEXT_REGION_LENGTH__+0x7f80b6>
    177e:	80 e0       	ldi	r24, 0x00	; 0
    1780:	08 95       	ret

00001782 <TMR2_SetHandler>:

void TMR2_SetHandler(void (*interruptHandler)(void)){
	TMR2Handler = interruptHandler;
    1782:	90 93 11 01 	sts	0x0111, r25	; 0x800111 <TMR2Handler+0x1>
    1786:	80 93 10 01 	sts	0x0110, r24	; 0x800110 <TMR2Handler>
    178a:	08 95       	ret

0000178c <__vector_7>:
}

ISR(TIMER2_COMPA_vect)
{
    178c:	1f 92       	push	r1
    178e:	0f 92       	push	r0
    1790:	0f b6       	in	r0, 0x3f	; 63
    1792:	0f 92       	push	r0
    1794:	11 24       	eor	r1, r1
    1796:	2f 93       	push	r18
    1798:	3f 93       	push	r19
    179a:	4f 93       	push	r20
    179c:	5f 93       	push	r21
    179e:	6f 93       	push	r22
    17a0:	7f 93       	push	r23
    17a2:	8f 93       	push	r24
    17a4:	9f 93       	push	r25
    17a6:	af 93       	push	r26
    17a8:	bf 93       	push	r27
    17aa:	ef 93       	push	r30
    17ac:	ff 93       	push	r31
    //clears the Compare A interrupt flag
    TIFR2 = OCF2A;
    17ae:	81 e0       	ldi	r24, 0x01	; 1
    17b0:	87 bb       	out	0x17, r24	; 23

	if(TMR2Handler != NULL){
    17b2:	e0 91 10 01 	lds	r30, 0x0110	; 0x800110 <TMR2Handler>
    17b6:	f0 91 11 01 	lds	r31, 0x0111	; 0x800111 <TMR2Handler+0x1>
    17ba:	30 97       	sbiw	r30, 0x00	; 0
    17bc:	09 f0       	breq	.+2      	; 0x17c0 <__vector_7+0x34>
		TMR2Handler();
    17be:	09 95       	icall
	}

    /* Insert your Compare A interrupt handling code here */
    
}
    17c0:	ff 91       	pop	r31
    17c2:	ef 91       	pop	r30
    17c4:	bf 91       	pop	r27
    17c6:	af 91       	pop	r26
    17c8:	9f 91       	pop	r25
    17ca:	8f 91       	pop	r24
    17cc:	7f 91       	pop	r23
    17ce:	6f 91       	pop	r22
    17d0:	5f 91       	pop	r21
    17d2:	4f 91       	pop	r20
    17d4:	3f 91       	pop	r19
    17d6:	2f 91       	pop	r18
    17d8:	0f 90       	pop	r0
    17da:	0f be       	out	0x3f, r0	; 63
    17dc:	0f 90       	pop	r0
    17de:	1f 90       	pop	r1
    17e0:	18 95       	reti

000017e2 <USART0_Deinitialize>:
}

uint8_t USART0_Read(void)
{
    return UDR0;
}
    17e2:	10 92 c5 00 	sts	0x00C5, r1	; 0x8000c5 <__TEXT_REGION_LENGTH__+0x7f80c5>
    17e6:	10 92 c4 00 	sts	0x00C4, r1	; 0x8000c4 <__TEXT_REGION_LENGTH__+0x7f80c4>
    17ea:	10 92 c0 00 	sts	0x00C0, r1	; 0x8000c0 <__TEXT_REGION_LENGTH__+0x7f80c0>
    17ee:	10 92 c1 00 	sts	0x00C1, r1	; 0x8000c1 <__TEXT_REGION_LENGTH__+0x7f80c1>
    17f2:	10 92 c2 00 	sts	0x00C2, r1	; 0x8000c2 <__TEXT_REGION_LENGTH__+0x7f80c2>
    17f6:	08 95       	ret

000017f8 <USART0_Write>:


void USART0_Write(uint8_t txData)
{
	UCSR0A |= (1<<TXC0);
    17f8:	e0 ec       	ldi	r30, 0xC0	; 192
    17fa:	f0 e0       	ldi	r31, 0x00	; 0
    17fc:	90 81       	ld	r25, Z
    17fe:	90 64       	ori	r25, 0x40	; 64
    1800:	90 83       	st	Z, r25
    UDR0 = txData;    // Write the data byte to the USART.
    1802:	80 93 c6 00 	sts	0x00C6, r24	; 0x8000c6 <__TEXT_REGION_LENGTH__+0x7f80c6>
    1806:	08 95       	ret

00001808 <USART0_DefaultFramingErrorCallback>:
}
static void USART0_DefaultFramingErrorCallback(void)
{
    1808:	08 95       	ret

0000180a <USART0_DefaultOverrunErrorCallback>:
    
}

static void USART0_DefaultOverrunErrorCallback(void)
{
    180a:	08 95       	ret

0000180c <USART0_DefaultParityErrorCallback>:
    
}

static void USART0_DefaultParityErrorCallback(void)
{
    180c:	08 95       	ret

0000180e <USART0_FramingErrorCallbackRegister>:
}

/* cppcheck-suppress misra-c2012-8.7 */
void USART0_FramingErrorCallbackRegister(void (* callbackHandler)(void))
{
    if(NULL != callbackHandler)
    180e:	00 97       	sbiw	r24, 0x00	; 0
    1810:	21 f0       	breq	.+8      	; 0x181a <USART0_FramingErrorCallbackRegister+0xc>
    {
        USART0_FramingErrorHandler = callbackHandler;
    1812:	90 93 17 01 	sts	0x0117, r25	; 0x800117 <USART0_FramingErrorHandler+0x1>
    1816:	80 93 16 01 	sts	0x0116, r24	; 0x800116 <USART0_FramingErrorHandler>
    181a:	08 95       	ret

0000181c <USART0_OverrunErrorCallbackRegister>:
}

/* cppcheck-suppress misra-c2012-8.7 */
void USART0_OverrunErrorCallbackRegister(void (* callbackHandler)(void))
{
    if(NULL != callbackHandler)
    181c:	00 97       	sbiw	r24, 0x00	; 0
    181e:	21 f0       	breq	.+8      	; 0x1828 <USART0_OverrunErrorCallbackRegister+0xc>
    {
        USART0_OverrunErrorHandler = callbackHandler;
    1820:	90 93 15 01 	sts	0x0115, r25	; 0x800115 <USART0_OverrunErrorHandler+0x1>
    1824:	80 93 14 01 	sts	0x0114, r24	; 0x800114 <USART0_OverrunErrorHandler>
    1828:	08 95       	ret

0000182a <USART0_ParityErrorCallbackRegister>:
}

/* cppcheck-suppress misra-c2012-8.7 */
void USART0_ParityErrorCallbackRegister(void (* callbackHandler)(void))
{
    if(NULL != callbackHandler)
    182a:	00 97       	sbiw	r24, 0x00	; 0
    182c:	21 f0       	breq	.+8      	; 0x1836 <USART0_ParityErrorCallbackRegister+0xc>
    {
        USART0_ParityErrorHandler = callbackHandler;
    182e:	90 93 13 01 	sts	0x0113, r25	; 0x800113 <USART0_ParityErrorHandler+0x1>
    1832:	80 93 12 01 	sts	0x0112, r24	; 0x800112 <USART0_ParityErrorHandler>
    1836:	08 95       	ret

00001838 <USART0_Initialize>:
*/

void USART0_Initialize(uint8_t baudRate, uint8_t parity)
{
    // Set the USART0 module to the options selected in the user interface.
	if(baudRate == 1){ //19200bps
    1838:	81 30       	cpi	r24, 0x01	; 1
    183a:	39 f4       	brne	.+14     	; 0x184a <USART0_Initialize+0x12>
		//UBRR0 103;
		UBRR0 = 0x67;
    183c:	87 e6       	ldi	r24, 0x67	; 103
    183e:	90 e0       	ldi	r25, 0x00	; 0
    1840:	90 93 c5 00 	sts	0x00C5, r25	; 0x8000c5 <__TEXT_REGION_LENGTH__+0x7f80c5>
    1844:	80 93 c4 00 	sts	0x00C4, r24	; 0x8000c4 <__TEXT_REGION_LENGTH__+0x7f80c4>
    1848:	06 c0       	rjmp	.+12     	; 0x1856 <USART0_Initialize+0x1e>
	}else{ //9600bps
		//UBRR0 207;
		UBRR0 = 0xCF;
    184a:	8f ec       	ldi	r24, 0xCF	; 207
    184c:	90 e0       	ldi	r25, 0x00	; 0
    184e:	90 93 c5 00 	sts	0x00C5, r25	; 0x8000c5 <__TEXT_REGION_LENGTH__+0x7f80c5>
    1852:	80 93 c4 00 	sts	0x00C4, r24	; 0x8000c4 <__TEXT_REGION_LENGTH__+0x7f80c4>
	}
	
    //MPCM0 disabled; TXC0 disabled; U2X0 enabled; 
    UCSR0A = 0x2;
    1856:	82 e0       	ldi	r24, 0x02	; 2
    1858:	80 93 c0 00 	sts	0x00C0, r24	; 0x8000c0 <__TEXT_REGION_LENGTH__+0x7f80c0>

    //RXB80 disabled; RXCIE0 disabled; RXEN0 enabled; TXB80 disabled; TXCIE0 disabled; TXEN0 enabled; UCSZ02 disabled; UDRIE0 disabled; 
    UCSR0B = 0x18;
    185c:	88 e1       	ldi	r24, 0x18	; 24
    185e:	80 93 c1 00 	sts	0x00C1, r24	; 0x8000c1 <__TEXT_REGION_LENGTH__+0x7f80c1>


	if(parity == 1){ //Even
    1862:	61 30       	cpi	r22, 0x01	; 1
    1864:	21 f4       	brne	.+8      	; 0x186e <USART0_Initialize+0x36>
		UCSR0C = 0x26;
    1866:	86 e2       	ldi	r24, 0x26	; 38
    1868:	80 93 c2 00 	sts	0x00C2, r24	; 0x8000c2 <__TEXT_REGION_LENGTH__+0x7f80c2>
    186c:	03 c0       	rjmp	.+6      	; 0x1874 <USART0_Initialize+0x3c>
	}else{ //No Parity
		//UCPOL0 disabled; UCSZ0 3; UMSEL0 Asynchronous Mode; UPM0 Disabled; USBS0 1-bit;
		UCSR0C = 0x6;		
    186e:	86 e0       	ldi	r24, 0x06	; 6
    1870:	80 93 c2 00 	sts	0x00C2, r24	; 0x8000c2 <__TEXT_REGION_LENGTH__+0x7f80c2>
	}



    /* cppcheck-suppress misra-c2012-8.7 */
    USART0_FramingErrorCallbackRegister(USART0_DefaultFramingErrorCallback);
    1874:	84 e0       	ldi	r24, 0x04	; 4
    1876:	9c e0       	ldi	r25, 0x0C	; 12
    1878:	0e 94 07 0c 	call	0x180e	; 0x180e <USART0_FramingErrorCallbackRegister>
    /* cppcheck-suppress misra-c2012-8.7 */
    USART0_OverrunErrorCallbackRegister(USART0_DefaultOverrunErrorCallback);
    187c:	85 e0       	ldi	r24, 0x05	; 5
    187e:	9c e0       	ldi	r25, 0x0C	; 12
    1880:	0e 94 0e 0c 	call	0x181c	; 0x181c <USART0_OverrunErrorCallbackRegister>
    /* cppcheck-suppress misra-c2012-8.7 */
    USART0_ParityErrorCallbackRegister(USART0_DefaultParityErrorCallback);
    1884:	86 e0       	ldi	r24, 0x06	; 6
    1886:	9c e0       	ldi	r25, 0x0C	; 12
    1888:	0e 94 15 0c 	call	0x182a	; 0x182a <USART0_ParityErrorCallbackRegister>
    usart0RxLastError.status = 0;  
    188c:	10 92 19 01 	sts	0x0119, r1	; 0x800119 <usart0RxLastError+0x1>
    1890:	10 92 18 01 	sts	0x0118, r1	; 0x800118 <usart0RxLastError>
    1894:	08 95       	ret

00001896 <USART1_Initialize>:
    1896:	8a b1       	in	r24, 0x0a	; 10
    1898:	80 68       	ori	r24, 0x80	; 128
    189a:	8a b9       	out	0x0a, r24	; 10
    189c:	8a b1       	in	r24, 0x0a	; 10
    189e:	8f 7b       	andi	r24, 0xBF	; 191
    18a0:	8a b9       	out	0x0a, r24	; 10
    18a2:	8b b1       	in	r24, 0x0b	; 11
    18a4:	80 68       	ori	r24, 0x80	; 128
    18a6:	8b b9       	out	0x0b, r24	; 11
    18a8:	8b b1       	in	r24, 0x0b	; 11
    18aa:	80 64       	ori	r24, 0x40	; 64
    18ac:	8b b9       	out	0x0b, r24	; 11
    18ae:	8b e2       	ldi	r24, 0x2B	; 43
    18b0:	80 93 7e 03 	sts	0x037E, r24	; 0x80037e <USART1>
    18b4:	e8 e6       	ldi	r30, 0x68	; 104
    18b6:	f0 e0       	ldi	r31, 0x00	; 0
    18b8:	80 81       	ld	r24, Z
    18ba:	84 60       	ori	r24, 0x04	; 4
    18bc:	80 83       	st	Z, r24
    18be:	10 92 7f 03 	sts	0x037F, r1	; 0x80037f <UsartTXstates>
    18c2:	10 92 7c 03 	sts	0x037C, r1	; 0x80037c <UsartRXstates>
    18c6:	08 95       	ret

000018c8 <USART1_Start_bit_detect>:
    18c8:	80 91 7e 03 	lds	r24, 0x037E	; 0x80037e <USART1>
    18cc:	85 ff       	sbrs	r24, 5
    18ce:	15 c0       	rjmp	.+42     	; 0x18fa <USART1_Start_bit_detect+0x32>
    18d0:	da 99       	sbic	0x1b, 2	; 27
    18d2:	13 c0       	rjmp	.+38     	; 0x18fa <USART1_Start_bit_detect+0x32>
    18d4:	8b b3       	in	r24, 0x1b	; 27
    18d6:	84 60       	ori	r24, 0x04	; 4
    18d8:	8b bb       	out	0x1b, r24	; 27
    18da:	4e 99       	sbic	0x09, 6	; 9
    18dc:	0e c0       	rjmp	.+28     	; 0x18fa <USART1_Start_bit_detect+0x32>
    18de:	80 91 7e 03 	lds	r24, 0x037E	; 0x80037e <USART1>
    18e2:	88 23       	and	r24, r24
    18e4:	54 f0       	brlt	.+20     	; 0x18fa <USART1_Start_bit_detect+0x32>
    18e6:	81 e0       	ldi	r24, 0x01	; 1
    18e8:	80 93 7c 03 	sts	0x037C, r24	; 0x80037c <UsartRXstates>
    18ec:	80 93 7d 03 	sts	0x037D, r24	; 0x80037d <tikRX>
    18f0:	80 91 7e 03 	lds	r24, 0x037E	; 0x80037e <USART1>
    18f4:	8f 7d       	andi	r24, 0xDF	; 223
    18f6:	80 93 7e 03 	sts	0x037E, r24	; 0x80037e <USART1>
    18fa:	08 95       	ret

000018fc <USART1_TRANSMIT>:
    18fc:	80 91 7f 03 	lds	r24, 0x037F	; 0x80037f <UsartTXstates>
    1900:	81 30       	cpi	r24, 0x01	; 1
    1902:	79 f0       	breq	.+30     	; 0x1922 <USART1_TRANSMIT+0x26>
    1904:	28 f0       	brcs	.+10     	; 0x1910 <USART1_TRANSMIT+0x14>
    1906:	82 30       	cpi	r24, 0x02	; 2
    1908:	99 f0       	breq	.+38     	; 0x1930 <USART1_TRANSMIT+0x34>
    190a:	83 30       	cpi	r24, 0x03	; 3
    190c:	79 f1       	breq	.+94     	; 0x196c <USART1_TRANSMIT+0x70>
    190e:	34 c0       	rjmp	.+104    	; 0x1978 <USART1_TRANSMIT+0x7c>
    1910:	80 91 7e 03 	lds	r24, 0x037E	; 0x80037e <USART1>
    1914:	80 61       	ori	r24, 0x10	; 16
    1916:	80 93 7e 03 	sts	0x037E, r24	; 0x80037e <USART1>
    191a:	8b b1       	in	r24, 0x0b	; 11
    191c:	80 68       	ori	r24, 0x80	; 128
    191e:	8b b9       	out	0x0b, r24	; 11
    1920:	08 95       	ret
    1922:	8b b1       	in	r24, 0x0b	; 11
    1924:	8f 77       	andi	r24, 0x7F	; 127
    1926:	8b b9       	out	0x0b, r24	; 11
    1928:	82 e0       	ldi	r24, 0x02	; 2
    192a:	80 93 7f 03 	sts	0x037F, r24	; 0x80037f <UsartTXstates>
    192e:	08 95       	ret
    1930:	80 91 1c 01 	lds	r24, 0x011C	; 0x80011c <TXreg>
    1934:	90 e0       	ldi	r25, 0x00	; 0
    1936:	00 90 1f 01 	lds	r0, 0x011F	; 0x80011f <tx_idx>
    193a:	02 c0       	rjmp	.+4      	; 0x1940 <USART1_TRANSMIT+0x44>
    193c:	95 95       	asr	r25
    193e:	87 95       	ror	r24
    1940:	0a 94       	dec	r0
    1942:	e2 f7       	brpl	.-8      	; 0x193c <USART1_TRANSMIT+0x40>
    1944:	80 ff       	sbrs	r24, 0
    1946:	04 c0       	rjmp	.+8      	; 0x1950 <USART1_TRANSMIT+0x54>
    1948:	8b b1       	in	r24, 0x0b	; 11
    194a:	80 68       	ori	r24, 0x80	; 128
    194c:	8b b9       	out	0x0b, r24	; 11
    194e:	03 c0       	rjmp	.+6      	; 0x1956 <USART1_TRANSMIT+0x5a>
    1950:	8b b1       	in	r24, 0x0b	; 11
    1952:	8f 77       	andi	r24, 0x7F	; 127
    1954:	8b b9       	out	0x0b, r24	; 11
    1956:	80 91 1f 01 	lds	r24, 0x011F	; 0x80011f <tx_idx>
    195a:	8f 5f       	subi	r24, 0xFF	; 255
    195c:	80 93 1f 01 	sts	0x011F, r24	; 0x80011f <tx_idx>
    1960:	88 30       	cpi	r24, 0x08	; 8
    1962:	60 f0       	brcs	.+24     	; 0x197c <USART1_TRANSMIT+0x80>
    1964:	83 e0       	ldi	r24, 0x03	; 3
    1966:	80 93 7f 03 	sts	0x037F, r24	; 0x80037f <UsartTXstates>
    196a:	08 95       	ret
    196c:	8b b1       	in	r24, 0x0b	; 11
    196e:	80 68       	ori	r24, 0x80	; 128
    1970:	8b b9       	out	0x0b, r24	; 11
    1972:	10 92 7f 03 	sts	0x037F, r1	; 0x80037f <UsartTXstates>
    1976:	08 95       	ret
    1978:	10 92 7f 03 	sts	0x037F, r1	; 0x80037f <UsartTXstates>
    197c:	08 95       	ret

0000197e <USART1_RECEIVE>:
    197e:	80 91 7c 03 	lds	r24, 0x037C	; 0x80037c <UsartRXstates>
    1982:	81 30       	cpi	r24, 0x01	; 1
    1984:	69 f0       	breq	.+26     	; 0x19a0 <USART1_RECEIVE+0x22>
    1986:	30 f0       	brcs	.+12     	; 0x1994 <USART1_RECEIVE+0x16>
    1988:	82 30       	cpi	r24, 0x02	; 2
    198a:	d1 f0       	breq	.+52     	; 0x19c0 <USART1_RECEIVE+0x42>
    198c:	83 30       	cpi	r24, 0x03	; 3
    198e:	09 f4       	brne	.+2      	; 0x1992 <USART1_RECEIVE+0x14>
    1990:	42 c0       	rjmp	.+132    	; 0x1a16 <USART1_RECEIVE+0x98>
    1992:	08 95       	ret
    1994:	80 91 7e 03 	lds	r24, 0x037E	; 0x80037e <USART1>
    1998:	80 62       	ori	r24, 0x20	; 32
    199a:	80 93 7e 03 	sts	0x037E, r24	; 0x80037e <USART1>
    199e:	08 95       	ret
    19a0:	4e 99       	sbic	0x09, 6	; 9
    19a2:	06 c0       	rjmp	.+12     	; 0x19b0 <USART1_RECEIVE+0x32>
    19a4:	82 e0       	ldi	r24, 0x02	; 2
    19a6:	80 93 7c 03 	sts	0x037C, r24	; 0x80037c <UsartRXstates>
    19aa:	10 92 1e 01 	sts	0x011E, r1	; 0x80011e <rx_idx>
    19ae:	08 95       	ret
    19b0:	10 92 7c 03 	sts	0x037C, r1	; 0x80037c <UsartRXstates>
    19b4:	80 91 7e 03 	lds	r24, 0x037E	; 0x80037e <USART1>
    19b8:	80 62       	ori	r24, 0x20	; 32
    19ba:	80 93 7e 03 	sts	0x037E, r24	; 0x80037e <USART1>
    19be:	08 95       	ret
    19c0:	4e 9b       	sbis	0x09, 6	; 9
    19c2:	0f c0       	rjmp	.+30     	; 0x19e2 <USART1_RECEIVE+0x64>
    19c4:	81 e0       	ldi	r24, 0x01	; 1
    19c6:	90 e0       	ldi	r25, 0x00	; 0
    19c8:	00 90 1e 01 	lds	r0, 0x011E	; 0x80011e <rx_idx>
    19cc:	02 c0       	rjmp	.+4      	; 0x19d2 <USART1_RECEIVE+0x54>
    19ce:	88 0f       	add	r24, r24
    19d0:	99 1f       	adc	r25, r25
    19d2:	0a 94       	dec	r0
    19d4:	e2 f7       	brpl	.-8      	; 0x19ce <USART1_RECEIVE+0x50>
    19d6:	90 91 1b 01 	lds	r25, 0x011B	; 0x80011b <RXreg>
    19da:	89 2b       	or	r24, r25
    19dc:	80 93 1b 01 	sts	0x011B, r24	; 0x80011b <RXreg>
    19e0:	0f c0       	rjmp	.+30     	; 0x1a00 <USART1_RECEIVE+0x82>
    19e2:	81 e0       	ldi	r24, 0x01	; 1
    19e4:	90 e0       	ldi	r25, 0x00	; 0
    19e6:	00 90 1e 01 	lds	r0, 0x011E	; 0x80011e <rx_idx>
    19ea:	02 c0       	rjmp	.+4      	; 0x19f0 <USART1_RECEIVE+0x72>
    19ec:	88 0f       	add	r24, r24
    19ee:	99 1f       	adc	r25, r25
    19f0:	0a 94       	dec	r0
    19f2:	e2 f7       	brpl	.-8      	; 0x19ec <USART1_RECEIVE+0x6e>
    19f4:	80 95       	com	r24
    19f6:	90 91 1b 01 	lds	r25, 0x011B	; 0x80011b <RXreg>
    19fa:	89 23       	and	r24, r25
    19fc:	80 93 1b 01 	sts	0x011B, r24	; 0x80011b <RXreg>
    1a00:	80 91 1e 01 	lds	r24, 0x011E	; 0x80011e <rx_idx>
    1a04:	8f 5f       	subi	r24, 0xFF	; 255
    1a06:	80 93 1e 01 	sts	0x011E, r24	; 0x80011e <rx_idx>
    1a0a:	88 30       	cpi	r24, 0x08	; 8
    1a0c:	40 f1       	brcs	.+80     	; 0x1a5e <USART1_RECEIVE+0xe0>
    1a0e:	83 e0       	ldi	r24, 0x03	; 3
    1a10:	80 93 7c 03 	sts	0x037C, r24	; 0x80037c <UsartRXstates>
    1a14:	08 95       	ret
    1a16:	4e 9b       	sbis	0x09, 6	; 9
    1a18:	14 c0       	rjmp	.+40     	; 0x1a42 <USART1_RECEIVE+0xc4>
    1a1a:	80 91 7e 03 	lds	r24, 0x037E	; 0x80037e <USART1>
    1a1e:	80 68       	ori	r24, 0x80	; 128
    1a20:	80 93 7e 03 	sts	0x037E, r24	; 0x80037e <USART1>
    1a24:	83 fd       	sbrc	r24, 3
    1a26:	14 c0       	rjmp	.+40     	; 0x1a50 <USART1_RECEIVE+0xd2>
    1a28:	80 91 1b 01 	lds	r24, 0x011B	; 0x80011b <RXreg>
    1a2c:	80 93 1a 01 	sts	0x011A, r24	; 0x80011a <RXdata>
    1a30:	10 92 1b 01 	sts	0x011B, r1	; 0x80011b <RXreg>
    1a34:	80 91 7e 03 	lds	r24, 0x037E	; 0x80037e <USART1>
    1a38:	84 60       	ori	r24, 0x04	; 4
    1a3a:	8f 77       	andi	r24, 0x7F	; 127
    1a3c:	80 93 7e 03 	sts	0x037E, r24	; 0x80037e <USART1>
    1a40:	07 c0       	rjmp	.+14     	; 0x1a50 <USART1_RECEIVE+0xd2>
    1a42:	80 91 7e 03 	lds	r24, 0x037E	; 0x80037e <USART1>
    1a46:	8f 77       	andi	r24, 0x7F	; 127
    1a48:	80 93 7e 03 	sts	0x037E, r24	; 0x80037e <USART1>
    1a4c:	10 92 1b 01 	sts	0x011B, r1	; 0x80011b <RXreg>
    1a50:	80 91 7e 03 	lds	r24, 0x037E	; 0x80037e <USART1>
    1a54:	80 62       	ori	r24, 0x20	; 32
    1a56:	80 93 7e 03 	sts	0x037E, r24	; 0x80037e <USART1>
    1a5a:	10 92 7c 03 	sts	0x037C, r1	; 0x80037c <UsartRXstates>
    1a5e:	08 95       	ret

00001a60 <USART1_SendByte>:
    1a60:	80 91 1d 01 	lds	r24, 0x011D	; 0x80011d <TXdata>
    1a64:	80 93 1c 01 	sts	0x011C, r24	; 0x80011c <TXreg>
    1a68:	10 92 1d 01 	sts	0x011D, r1	; 0x80011d <TXdata>
    1a6c:	10 92 1f 01 	sts	0x011F, r1	; 0x80011f <tx_idx>
    1a70:	80 91 7e 03 	lds	r24, 0x037E	; 0x80037e <USART1>
    1a74:	88 60       	ori	r24, 0x08	; 8
    1a76:	8f 7e       	andi	r24, 0xEF	; 239
    1a78:	80 93 7e 03 	sts	0x037E, r24	; 0x80037e <USART1>
    1a7c:	81 e0       	ldi	r24, 0x01	; 1
    1a7e:	80 93 7f 03 	sts	0x037F, r24	; 0x80037f <UsartTXstates>
    1a82:	08 95       	ret

00001a84 <USART1_receiveByte>:
    1a84:	80 91 1b 01 	lds	r24, 0x011B	; 0x80011b <RXreg>
    1a88:	80 93 1a 01 	sts	0x011A, r24	; 0x80011a <RXdata>
    1a8c:	10 92 1b 01 	sts	0x011B, r1	; 0x80011b <RXreg>
    1a90:	80 91 7e 03 	lds	r24, 0x037E	; 0x80037e <USART1>
    1a94:	84 60       	ori	r24, 0x04	; 4
    1a96:	8f 77       	andi	r24, 0x7F	; 127
    1a98:	80 93 7e 03 	sts	0x037E, r24	; 0x80037e <USART1>
    1a9c:	08 95       	ret

00001a9e <USART1_Write>:
    1a9e:	80 93 1d 01 	sts	0x011D, r24	; 0x80011d <TXdata>
    1aa2:	80 91 7e 03 	lds	r24, 0x037E	; 0x80037e <USART1>
    1aa6:	87 7f       	andi	r24, 0xF7	; 247
    1aa8:	80 93 7e 03 	sts	0x037E, r24	; 0x80037e <USART1>
    1aac:	08 95       	ret

00001aae <USART1_Read>:
    1aae:	80 91 7e 03 	lds	r24, 0x037E	; 0x80037e <USART1>
    1ab2:	8b 7f       	andi	r24, 0xFB	; 251
    1ab4:	80 93 7e 03 	sts	0x037E, r24	; 0x80037e <USART1>
    1ab8:	80 91 1a 01 	lds	r24, 0x011A	; 0x80011a <RXdata>
    1abc:	08 95       	ret

00001abe <__tablejump2__>:
    1abe:	ee 0f       	add	r30, r30
    1ac0:	ff 1f       	adc	r31, r31
    1ac2:	05 90       	lpm	r0, Z+
    1ac4:	f4 91       	lpm	r31, Z
    1ac6:	e0 2d       	mov	r30, r0
    1ac8:	09 94       	ijmp

00001aca <__umulhisi3>:
    1aca:	a2 9f       	mul	r26, r18
    1acc:	b0 01       	movw	r22, r0
    1ace:	b3 9f       	mul	r27, r19
    1ad0:	c0 01       	movw	r24, r0
    1ad2:	a3 9f       	mul	r26, r19
    1ad4:	70 0d       	add	r23, r0
    1ad6:	81 1d       	adc	r24, r1
    1ad8:	11 24       	eor	r1, r1
    1ada:	91 1d       	adc	r25, r1
    1adc:	b2 9f       	mul	r27, r18
    1ade:	70 0d       	add	r23, r0
    1ae0:	81 1d       	adc	r24, r1
    1ae2:	11 24       	eor	r1, r1
    1ae4:	91 1d       	adc	r25, r1
    1ae6:	08 95       	ret

00001ae8 <_exit>:
    1ae8:	f8 94       	cli

00001aea <__stop_program>:
    1aea:	ff cf       	rjmp	.-2      	; 0x1aea <__stop_program>
