
ModuloATMEL.elf:     file format elf32-avr

Sections:
Idx Name          Size      VMA       LMA       File off  Algn
  0 .data         00000000  00800100  00800100  0000144c  2**0
                  CONTENTS, ALLOC, LOAD, DATA
  1 .mySlaveAddress 00000001  008003ff  008003ff  0000130a  2**0
                  CONTENTS, ALLOC, LOAD, DATA
  2 .modbus_r     00000012  00800400  00800400  0000130b  2**0
                  CONTENTS, ALLOC, LOAD, DATA
  3 .fixed_events 0000012c  00800772  00800772  0000131d  2**0
                  CONTENTS, ALLOC, LOAD, DATA
  4 .text         00001236  00000000  00000000  000000d4  2**1
                  CONTENTS, ALLOC, LOAD, READONLY, CODE
  5 .bss          0000026b  00800100  00800100  0000130a  2**0
                  ALLOC
  6 .fuse         00000003  00820000  00820000  00001449  2**0
                  CONTENTS, ALLOC, LOAD, DATA
  7 .comment      00000030  00000000  00000000  0000144c  2**0
                  CONTENTS, READONLY
  8 .note.gnu.avr.deviceinfo 00000040  00000000  00000000  0000147c  2**2
                  CONTENTS, READONLY
  9 .debug_aranges 00000348  00000000  00000000  000014bc  2**0
                  CONTENTS, READONLY, DEBUGGING
 10 .debug_info   000021fb  00000000  00000000  00001804  2**0
                  CONTENTS, READONLY, DEBUGGING
 11 .debug_abbrev 00000dfb  00000000  00000000  000039ff  2**0
                  CONTENTS, READONLY, DEBUGGING
 12 .debug_line   00001b98  00000000  00000000  000047fa  2**0
                  CONTENTS, READONLY, DEBUGGING
 13 .debug_frame  000006bc  00000000  00000000  00006394  2**2
                  CONTENTS, READONLY, DEBUGGING
 14 .debug_str    00001102  00000000  00000000  00006a50  2**0
                  CONTENTS, READONLY, DEBUGGING
 15 .debug_loc    00000949  00000000  00000000  00007b52  2**0
                  CONTENTS, READONLY, DEBUGGING
 16 .debug_ranges 000002e0  00000000  00000000  0000849b  2**0
                  CONTENTS, READONLY, DEBUGGING

Disassembly of section .text:

00000000 <__vectors>:
       0:	0c 94 3b 00 	jmp	0x76	; 0x76 <__ctors_end>
       4:	0c 94 58 00 	jmp	0xb0	; 0xb0 <__bad_interrupt>
       8:	0c 94 58 00 	jmp	0xb0	; 0xb0 <__bad_interrupt>
       c:	0c 94 58 00 	jmp	0xb0	; 0xb0 <__bad_interrupt>
      10:	0c 94 58 00 	jmp	0xb0	; 0xb0 <__bad_interrupt>
      14:	0c 94 58 00 	jmp	0xb0	; 0xb0 <__bad_interrupt>
      18:	0c 94 58 00 	jmp	0xb0	; 0xb0 <__bad_interrupt>
      1c:	0c 94 58 00 	jmp	0xb0	; 0xb0 <__bad_interrupt>
      20:	0c 94 58 00 	jmp	0xb0	; 0xb0 <__bad_interrupt>
      24:	0c 94 58 00 	jmp	0xb0	; 0xb0 <__bad_interrupt>
      28:	0c 94 8e 08 	jmp	0x111c	; 0x111c <__vector_10>
      2c:	0c 94 a1 08 	jmp	0x1142	; 0x1142 <__vector_11>
      30:	0c 94 75 08 	jmp	0x10ea	; 0x10ea <__vector_12>
      34:	0c 94 83 08 	jmp	0x1106	; 0x1106 <__vector_13>
      38:	0c 94 29 08 	jmp	0x1052	; 0x1052 <__vector_14>
      3c:	0c 94 58 00 	jmp	0xb0	; 0xb0 <__bad_interrupt>
      40:	0c 94 58 00 	jmp	0xb0	; 0xb0 <__bad_interrupt>
      44:	0c 94 58 00 	jmp	0xb0	; 0xb0 <__bad_interrupt>
      48:	0c 94 32 03 	jmp	0x664	; 0x664 <__vector_18>
      4c:	0c 94 58 00 	jmp	0xb0	; 0xb0 <__bad_interrupt>
      50:	0c 94 58 00 	jmp	0xb0	; 0xb0 <__bad_interrupt>
      54:	0c 94 58 00 	jmp	0xb0	; 0xb0 <__bad_interrupt>
      58:	0c 94 58 00 	jmp	0xb0	; 0xb0 <__bad_interrupt>
      5c:	0c 94 58 00 	jmp	0xb0	; 0xb0 <__bad_interrupt>
      60:	0c 94 58 00 	jmp	0xb0	; 0xb0 <__bad_interrupt>
      64:	0c 94 58 00 	jmp	0xb0	; 0xb0 <__bad_interrupt>
      68:	91 02       	muls	r25, r17
      6a:	b1 02       	muls	r27, r17
      6c:	c4 02       	muls	r28, r20
      6e:	e6 02       	muls	r30, r22
      70:	08 03       	fmul	r16, r16
      72:	fe 02       	muls	r31, r30
      74:	24 03       	mulsu	r18, r20

00000076 <__ctors_end>:
      76:	11 24       	eor	r1, r1
      78:	1f be       	out	0x3f, r1	; 63
      7a:	cf ef       	ldi	r28, 0xFF	; 255
      7c:	d8 e0       	ldi	r29, 0x08	; 8
      7e:	de bf       	out	0x3e, r29	; 62
      80:	cd bf       	out	0x3d, r28	; 61

00000082 <__do_copy_data>:
      82:	11 e0       	ldi	r17, 0x01	; 1
      84:	a0 e0       	ldi	r26, 0x00	; 0
      86:	b1 e0       	ldi	r27, 0x01	; 1
      88:	e6 e3       	ldi	r30, 0x36	; 54
      8a:	f2 e1       	ldi	r31, 0x12	; 18
      8c:	02 c0       	rjmp	.+4      	; 0x92 <__do_copy_data+0x10>
      8e:	05 90       	lpm	r0, Z+
      90:	0d 92       	st	X+, r0
      92:	a0 30       	cpi	r26, 0x00	; 0
      94:	b1 07       	cpc	r27, r17
      96:	d9 f7       	brne	.-10     	; 0x8e <__do_copy_data+0xc>

00000098 <__do_clear_bss>:
      98:	23 e0       	ldi	r18, 0x03	; 3
      9a:	a0 e0       	ldi	r26, 0x00	; 0
      9c:	b1 e0       	ldi	r27, 0x01	; 1
      9e:	01 c0       	rjmp	.+2      	; 0xa2 <.do_clear_bss_start>

000000a0 <.do_clear_bss_loop>:
      a0:	1d 92       	st	X+, r1

000000a2 <.do_clear_bss_start>:
      a2:	ab 36       	cpi	r26, 0x6B	; 107
      a4:	b2 07       	cpc	r27, r18
      a6:	e1 f7       	brne	.-8      	; 0xa0 <.do_clear_bss_loop>
      a8:	0e 94 40 07 	call	0xe80	; 0xe80 <main>
      ac:	0c 94 19 09 	jmp	0x1232	; 0x1232 <_exit>

000000b0 <__bad_interrupt>:
      b0:	0c 94 00 00 	jmp	0	; 0x0 <__vectors>

000000b4 <do10us>:
		bufferTx[indexTxW++] = myWord.ui8[2];
		bufferTx[indexTxW++] = myWord.ui8[3];
		
		EventIndexR++;
	}
}
      b4:	80 91 0d 01 	lds	r24, 0x010D	; 0x80010d <t15Tik>
      b8:	90 91 0e 01 	lds	r25, 0x010E	; 0x80010e <t15Tik+0x1>
      bc:	00 97       	sbiw	r24, 0x00	; 0
      be:	31 f0       	breq	.+12     	; 0xcc <do10us+0x18>
      c0:	01 97       	sbiw	r24, 0x01	; 1
      c2:	90 93 0e 01 	sts	0x010E, r25	; 0x80010e <t15Tik+0x1>
      c6:	80 93 0d 01 	sts	0x010D, r24	; 0x80010d <t15Tik>
      ca:	09 c0       	rjmp	.+18     	; 0xde <do10us+0x2a>
      cc:	80 91 50 01 	lds	r24, 0x0150	; 0x800150 <decodeState>
      d0:	88 23       	and	r24, r24
      d2:	29 f0       	breq	.+10     	; 0xde <do10us+0x2a>
      d4:	86 30       	cpi	r24, 0x06	; 6
      d6:	19 f0       	breq	.+6      	; 0xde <do10us+0x2a>
      d8:	86 e0       	ldi	r24, 0x06	; 6
      da:	80 93 50 01 	sts	0x0150, r24	; 0x800150 <decodeState>
      de:	80 91 0b 01 	lds	r24, 0x010B	; 0x80010b <t35Tik>
      e2:	90 91 0c 01 	lds	r25, 0x010C	; 0x80010c <t35Tik+0x1>
      e6:	00 97       	sbiw	r24, 0x00	; 0
      e8:	31 f0       	breq	.+12     	; 0xf6 <do10us+0x42>
      ea:	01 97       	sbiw	r24, 0x01	; 1
      ec:	90 93 0c 01 	sts	0x010C, r25	; 0x80010c <t35Tik+0x1>
      f0:	80 93 0b 01 	sts	0x010B, r24	; 0x80010b <t35Tik>
      f4:	08 95       	ret
      f6:	10 92 50 01 	sts	0x0150, r1	; 0x800150 <decodeState>
      fa:	80 91 5a 02 	lds	r24, 0x025A	; 0x80025a <indexRxW>
      fe:	80 93 59 02 	sts	0x0259, r24	; 0x800259 <indexRxR>
     102:	08 95       	ret

00000104 <do10ms>:
     104:	80 91 0a 01 	lds	r24, 0x010A	; 0x80010a <hbTime>
     108:	81 50       	subi	r24, 0x01	; 1
     10a:	80 93 0a 01 	sts	0x010A, r24	; 0x80010a <hbTime>
     10e:	80 91 51 02 	lds	r24, 0x0251	; 0x800251 <commFlags>
     112:	81 60       	ori	r24, 0x01	; 1
     114:	80 93 51 02 	sts	0x0251, r24	; 0x800251 <commFlags>
     118:	80 91 09 01 	lds	r24, 0x0109	; 0x800109 <unixTik>
     11c:	81 50       	subi	r24, 0x01	; 1
     11e:	80 93 09 01 	sts	0x0109, r24	; 0x800109 <unixTik>
     122:	81 11       	cpse	r24, r1
     124:	1a c0       	rjmp	.+52     	; 0x15a <do10ms+0x56>
     126:	80 91 00 01 	lds	r24, 0x0100	; 0x800100 <__DATA_REGION_ORIGIN__>
     12a:	88 23       	and	r24, r24
     12c:	81 f0       	breq	.+32     	; 0x14e <do10ms+0x4a>
     12e:	e0 e0       	ldi	r30, 0x00	; 0
     130:	f4 e0       	ldi	r31, 0x04	; 4
     132:	80 81       	ld	r24, Z
     134:	91 81       	ldd	r25, Z+1	; 0x01
     136:	a2 81       	ldd	r26, Z+2	; 0x02
     138:	b3 81       	ldd	r27, Z+3	; 0x03
     13a:	01 96       	adiw	r24, 0x01	; 1
     13c:	a1 1d       	adc	r26, r1
     13e:	b1 1d       	adc	r27, r1
     140:	80 83       	st	Z, r24
     142:	91 83       	std	Z+1, r25	; 0x01
     144:	a2 83       	std	Z+2, r26	; 0x02
     146:	b3 83       	std	Z+3, r27	; 0x03
     148:	10 92 00 01 	sts	0x0100, r1	; 0x800100 <__DATA_REGION_ORIGIN__>
     14c:	03 c0       	rjmp	.+6      	; 0x154 <do10ms+0x50>
     14e:	81 e0       	ldi	r24, 0x01	; 1
     150:	80 93 00 01 	sts	0x0100, r24	; 0x800100 <__DATA_REGION_ORIGIN__>
     154:	89 e1       	ldi	r24, 0x19	; 25
     156:	80 93 09 01 	sts	0x0109, r24	; 0x800109 <unixTik>
     15a:	08 95       	ret

0000015c <UARTsendByte>:
     15c:	10 c0       	rjmp	.+32     	; 0x17e <UARTsendByte+0x22>
     15e:	0e 94 cc 08 	call	0x1198	; 0x1198 <USART0_IsTxReady>
     162:	88 23       	and	r24, r24
     164:	61 f0       	breq	.+24     	; 0x17e <UARTsendByte+0x22>
     166:	e0 91 52 02 	lds	r30, 0x0252	; 0x800252 <indexTxR>
     16a:	81 e0       	ldi	r24, 0x01	; 1
     16c:	8e 0f       	add	r24, r30
     16e:	80 93 52 02 	sts	0x0252, r24	; 0x800252 <indexTxR>
     172:	f0 e0       	ldi	r31, 0x00	; 0
     174:	ed 59       	subi	r30, 0x9D	; 157
     176:	fd 4f       	sbci	r31, 0xFD	; 253
     178:	80 81       	ld	r24, Z
     17a:	0e 94 d8 08 	call	0x11b0	; 0x11b0 <USART0_Write>
     17e:	90 91 52 02 	lds	r25, 0x0252	; 0x800252 <indexTxR>
     182:	80 91 4b 01 	lds	r24, 0x014B	; 0x80014b <indexTxW>
     186:	98 13       	cpse	r25, r24
     188:	ea cf       	rjmp	.-44     	; 0x15e <UARTsendByte+0x2>
     18a:	08 95       	ret

0000018c <USART0_ReceiveInterruptEnable>:
     18c:	e1 ec       	ldi	r30, 0xC1	; 193
     18e:	f0 e0       	ldi	r31, 0x00	; 0
     190:	80 81       	ld	r24, Z
     192:	80 68       	ori	r24, 0x80	; 128
     194:	80 83       	st	Z, r24
     196:	08 95       	ret

00000198 <USART0_ReceiveInterruptDisable>:
     198:	e1 ec       	ldi	r30, 0xC1	; 193
     19a:	f0 e0       	ldi	r31, 0x00	; 0
     19c:	80 81       	ld	r24, Z
     19e:	8f 77       	andi	r24, 0x7F	; 127
     1a0:	80 83       	st	Z, r24
     1a2:	08 95       	ret

000001a4 <RestartTikValues>:
     1a4:	80 91 08 04 	lds	r24, 0x0408	; 0x800408 <modbusRegister+0x8>
     1a8:	88 23       	and	r24, r24
     1aa:	19 f0       	breq	.+6      	; 0x1b2 <RestartTikValues+0xe>
     1ac:	80 31       	cpi	r24, 0x10	; 16
     1ae:	71 f0       	breq	.+28     	; 0x1cc <RestartTikValues+0x28>
     1b0:	1a c0       	rjmp	.+52     	; 0x1e6 <RestartTikValues+0x42>
     1b2:	8c e9       	ldi	r24, 0x9C	; 156
     1b4:	90 e0       	ldi	r25, 0x00	; 0
     1b6:	90 93 0e 01 	sts	0x010E, r25	; 0x80010e <t15Tik+0x1>
     1ba:	80 93 0d 01 	sts	0x010D, r24	; 0x80010d <t15Tik>
     1be:	8d e6       	ldi	r24, 0x6D	; 109
     1c0:	91 e0       	ldi	r25, 0x01	; 1
     1c2:	90 93 0c 01 	sts	0x010C, r25	; 0x80010c <t35Tik+0x1>
     1c6:	80 93 0b 01 	sts	0x010B, r24	; 0x80010b <t35Tik>
     1ca:	08 95       	ret
     1cc:	8c ea       	ldi	r24, 0xAC	; 172
     1ce:	90 e0       	ldi	r25, 0x00	; 0
     1d0:	90 93 0e 01 	sts	0x010E, r25	; 0x80010e <t15Tik+0x1>
     1d4:	80 93 0d 01 	sts	0x010D, r24	; 0x80010d <t15Tik>
     1d8:	81 e9       	ldi	r24, 0x91	; 145
     1da:	91 e0       	ldi	r25, 0x01	; 1
     1dc:	90 93 0c 01 	sts	0x010C, r25	; 0x80010c <t35Tik+0x1>
     1e0:	80 93 0b 01 	sts	0x010B, r24	; 0x80010b <t35Tik>
     1e4:	08 95       	ret
     1e6:	8b e4       	ldi	r24, 0x4B	; 75
     1e8:	90 e0       	ldi	r25, 0x00	; 0
     1ea:	90 93 0e 01 	sts	0x010E, r25	; 0x80010e <t15Tik+0x1>
     1ee:	80 93 0d 01 	sts	0x010D, r24	; 0x80010d <t15Tik>
     1f2:	90 93 0c 01 	sts	0x010C, r25	; 0x80010c <t35Tik+0x1>
     1f6:	80 93 0b 01 	sts	0x010B, r24	; 0x80010b <t35Tik>
     1fa:	08 95       	ret

000001fc <InitializeEvents>:
     1fc:	80 e0       	ldi	r24, 0x00	; 0
     1fe:	90 e0       	ldi	r25, 0x00	; 0
     200:	10 c0       	rjmp	.+32     	; 0x222 <InitializeEvents+0x26>
     202:	fc 01       	movw	r30, r24
     204:	ee 0f       	add	r30, r30
     206:	ff 1f       	adc	r31, r31
     208:	e8 0f       	add	r30, r24
     20a:	f9 1f       	adc	r31, r25
     20c:	ee 0f       	add	r30, r30
     20e:	ff 1f       	adc	r31, r31
     210:	ee 58       	subi	r30, 0x8E	; 142
     212:	f8 4f       	sbci	r31, 0xF8	; 248
     214:	10 82       	st	Z, r1
     216:	11 82       	std	Z+1, r1	; 0x01
     218:	12 82       	std	Z+2, r1	; 0x02
     21a:	13 82       	std	Z+3, r1	; 0x03
     21c:	14 82       	std	Z+4, r1	; 0x04
     21e:	15 82       	std	Z+5, r1	; 0x05
     220:	01 96       	adiw	r24, 0x01	; 1
     222:	82 33       	cpi	r24, 0x32	; 50
     224:	91 05       	cpc	r25, r1
     226:	6c f3       	brlt	.-38     	; 0x202 <InitializeEvents+0x6>
     228:	08 95       	ret

0000022a <UpdateState>:
     22a:	26 b1       	in	r18, 0x06	; 6
     22c:	30 e0       	ldi	r19, 0x00	; 0
     22e:	20 95       	com	r18
     230:	30 95       	com	r19
     232:	e6 2f       	mov	r30, r22
     234:	f0 e0       	ldi	r31, 0x00	; 0
     236:	2e 23       	and	r18, r30
     238:	3f 23       	and	r19, r31
     23a:	86 23       	and	r24, r22
     23c:	e8 2f       	mov	r30, r24
     23e:	f0 e0       	ldi	r31, 0x00	; 0
     240:	2e 17       	cp	r18, r30
     242:	3f 07       	cpc	r19, r31
     244:	09 f0       	breq	.+2      	; 0x248 <UpdateState+0x1e>
     246:	3f c0       	rjmp	.+126    	; 0x2c6 <UpdateState+0x9c>
     248:	88 23       	and	r24, r24
     24a:	a9 f0       	breq	.+42     	; 0x276 <UpdateState+0x4c>
     24c:	80 91 04 01 	lds	r24, 0x0104	; 0x800104 <outValues>
     250:	68 2b       	or	r22, r24
     252:	60 93 04 01 	sts	0x0104, r22	; 0x800104 <outValues>
     256:	80 91 01 01 	lds	r24, 0x0101	; 0x800101 <EventIndexW>
     25a:	90 91 02 01 	lds	r25, 0x0102	; 0x800102 <EventIndexW+0x1>
     25e:	fc 01       	movw	r30, r24
     260:	ee 0f       	add	r30, r30
     262:	ff 1f       	adc	r31, r31
     264:	e8 0f       	add	r30, r24
     266:	f9 1f       	adc	r31, r25
     268:	ee 0f       	add	r30, r30
     26a:	ff 1f       	adc	r31, r31
     26c:	ee 58       	subi	r30, 0x8E	; 142
     26e:	f8 4f       	sbci	r31, 0xF8	; 248
     270:	81 e0       	ldi	r24, 0x01	; 1
     272:	81 83       	std	Z+1, r24	; 0x01
     274:	28 c0       	rjmp	.+80     	; 0x2c6 <UpdateState+0x9c>
     276:	80 91 04 01 	lds	r24, 0x0104	; 0x800104 <outValues>
     27a:	96 2f       	mov	r25, r22
     27c:	98 23       	and	r25, r24
     27e:	89 f0       	breq	.+34     	; 0x2a2 <UpdateState+0x78>
     280:	24 2f       	mov	r18, r20
     282:	30 e0       	ldi	r19, 0x00	; 0
     284:	f9 01       	movw	r30, r18
     286:	35 96       	adiw	r30, 0x05	; 5
     288:	ee 0f       	add	r30, r30
     28a:	ff 1f       	adc	r31, r31
     28c:	e0 50       	subi	r30, 0x00	; 0
     28e:	fc 4f       	sbci	r31, 0xFC	; 252
     290:	a0 81       	ld	r26, Z
     292:	b1 81       	ldd	r27, Z+1	; 0x01
     294:	22 0f       	add	r18, r18
     296:	33 1f       	adc	r19, r19
     298:	f9 01       	movw	r30, r18
     29a:	ed 59       	subi	r30, 0x9D	; 157
     29c:	fc 4f       	sbci	r31, 0xFC	; 252
     29e:	b1 83       	std	Z+1, r27	; 0x01
     2a0:	a0 83       	st	Z, r26
     2a2:	60 95       	com	r22
     2a4:	68 23       	and	r22, r24
     2a6:	60 93 04 01 	sts	0x0104, r22	; 0x800104 <outValues>
     2aa:	80 91 01 01 	lds	r24, 0x0101	; 0x800101 <EventIndexW>
     2ae:	90 91 02 01 	lds	r25, 0x0102	; 0x800102 <EventIndexW+0x1>
     2b2:	fc 01       	movw	r30, r24
     2b4:	ee 0f       	add	r30, r30
     2b6:	ff 1f       	adc	r31, r31
     2b8:	e8 0f       	add	r30, r24
     2ba:	f9 1f       	adc	r31, r25
     2bc:	ee 0f       	add	r30, r30
     2be:	ff 1f       	adc	r31, r31
     2c0:	ee 58       	subi	r30, 0x8E	; 142
     2c2:	f8 4f       	sbci	r31, 0xF8	; 248
     2c4:	11 82       	std	Z+1, r1	; 0x01
     2c6:	80 91 01 01 	lds	r24, 0x0101	; 0x800101 <EventIndexW>
     2ca:	90 91 02 01 	lds	r25, 0x0102	; 0x800102 <EventIndexW+0x1>
     2ce:	fc 01       	movw	r30, r24
     2d0:	ee 0f       	add	r30, r30
     2d2:	ff 1f       	adc	r31, r31
     2d4:	e8 0f       	add	r30, r24
     2d6:	f9 1f       	adc	r31, r25
     2d8:	ee 0f       	add	r30, r30
     2da:	ff 1f       	adc	r31, r31
     2dc:	ee 58       	subi	r30, 0x8E	; 142
     2de:	f8 4f       	sbci	r31, 0xF8	; 248
     2e0:	40 83       	st	Z, r20
     2e2:	a0 e0       	ldi	r26, 0x00	; 0
     2e4:	b4 e0       	ldi	r27, 0x04	; 4
     2e6:	4d 91       	ld	r20, X+
     2e8:	5d 91       	ld	r21, X+
     2ea:	6d 91       	ld	r22, X+
     2ec:	7c 91       	ld	r23, X
     2ee:	13 97       	sbiw	r26, 0x03	; 3
     2f0:	42 83       	std	Z+2, r20	; 0x02
     2f2:	53 83       	std	Z+3, r21	; 0x03
     2f4:	64 83       	std	Z+4, r22	; 0x04
     2f6:	75 83       	std	Z+5, r23	; 0x05
     2f8:	01 96       	adiw	r24, 0x01	; 1
     2fa:	90 93 02 01 	sts	0x0102, r25	; 0x800102 <EventIndexW+0x1>
     2fe:	80 93 01 01 	sts	0x0101, r24	; 0x800101 <EventIndexW>
     302:	16 96       	adiw	r26, 0x06	; 6
     304:	2d 91       	ld	r18, X+
     306:	3c 91       	ld	r19, X
     308:	17 97       	sbiw	r26, 0x07	; 7
     30a:	2f 5f       	subi	r18, 0xFF	; 255
     30c:	3f 4f       	sbci	r19, 0xFF	; 255
     30e:	17 96       	adiw	r26, 0x07	; 7
     310:	3c 93       	st	X, r19
     312:	2e 93       	st	-X, r18
     314:	16 97       	sbiw	r26, 0x06	; 6
     316:	c2 97       	sbiw	r24, 0x32	; 50
     318:	21 f4       	brne	.+8      	; 0x322 <UpdateState+0xf8>
     31a:	10 92 02 01 	sts	0x0102, r1	; 0x800102 <EventIndexW+0x1>
     31e:	10 92 01 01 	sts	0x0101, r1	; 0x800101 <EventIndexW>
     322:	08 95       	ret

00000324 <RegInput>:
     324:	86 b1       	in	r24, 0x06	; 6
     326:	8f 70       	andi	r24, 0x0F	; 15
     328:	80 95       	com	r24
     32a:	80 93 05 01 	sts	0x0105, r24	; 0x800105 <newValueA>
     32e:	90 91 06 01 	lds	r25, 0x0106	; 0x800106 <oldValueA>
     332:	98 27       	eor	r25, r24
     334:	90 93 58 02 	sts	0x0258, r25	; 0x800258 <inputFlags>
     338:	20 91 63 03 	lds	r18, 0x0363	; 0x800363 <tikBetweenTime>
     33c:	30 91 64 03 	lds	r19, 0x0364	; 0x800364 <tikBetweenTime+0x1>
     340:	21 15       	cp	r18, r1
     342:	31 05       	cpc	r19, r1
     344:	39 f0       	breq	.+14     	; 0x354 <RegInput+0x30>
     346:	21 50       	subi	r18, 0x01	; 1
     348:	31 09       	sbc	r19, r1
     34a:	30 93 64 03 	sts	0x0364, r19	; 0x800364 <tikBetweenTime+0x1>
     34e:	20 93 63 03 	sts	0x0363, r18	; 0x800363 <tikBetweenTime>
     352:	1e c0       	rjmp	.+60     	; 0x390 <RegInput+0x6c>
     354:	90 91 58 02 	lds	r25, 0x0258	; 0x800258 <inputFlags>
     358:	90 ff       	sbrs	r25, 0
     35a:	0b c0       	rjmp	.+22     	; 0x372 <RegInput+0x4e>
     35c:	9a e0       	ldi	r25, 0x0A	; 10
     35e:	90 93 4c 01 	sts	0x014C, r25	; 0x80014c <tikDebounce>
     362:	90 91 03 01 	lds	r25, 0x0103	; 0x800103 <lecture>
     366:	9e 7f       	andi	r25, 0xFE	; 254
     368:	81 70       	andi	r24, 0x01	; 1
     36a:	89 2b       	or	r24, r25
     36c:	80 93 03 01 	sts	0x0103, r24	; 0x800103 <lecture>
     370:	0f c0       	rjmp	.+30     	; 0x390 <RegInput+0x6c>
     372:	80 91 4c 01 	lds	r24, 0x014C	; 0x80014c <tikDebounce>
     376:	88 23       	and	r24, r24
     378:	59 f0       	breq	.+22     	; 0x390 <RegInput+0x6c>
     37a:	81 50       	subi	r24, 0x01	; 1
     37c:	80 93 4c 01 	sts	0x014C, r24	; 0x80014c <tikDebounce>
     380:	81 11       	cpse	r24, r1
     382:	06 c0       	rjmp	.+12     	; 0x390 <RegInput+0x6c>
     384:	40 e0       	ldi	r20, 0x00	; 0
     386:	61 e0       	ldi	r22, 0x01	; 1
     388:	80 91 03 01 	lds	r24, 0x0103	; 0x800103 <lecture>
     38c:	0e 94 15 01 	call	0x22a	; 0x22a <UpdateState>
     390:	80 91 65 03 	lds	r24, 0x0365	; 0x800365 <tikBetweenTime+0x2>
     394:	90 91 66 03 	lds	r25, 0x0366	; 0x800366 <tikBetweenTime+0x3>
     398:	00 97       	sbiw	r24, 0x00	; 0
     39a:	31 f0       	breq	.+12     	; 0x3a8 <RegInput+0x84>
     39c:	01 97       	sbiw	r24, 0x01	; 1
     39e:	90 93 66 03 	sts	0x0366, r25	; 0x800366 <tikBetweenTime+0x3>
     3a2:	80 93 65 03 	sts	0x0365, r24	; 0x800365 <tikBetweenTime+0x2>
     3a6:	21 c0       	rjmp	.+66     	; 0x3ea <RegInput+0xc6>
     3a8:	80 91 58 02 	lds	r24, 0x0258	; 0x800258 <inputFlags>
     3ac:	81 ff       	sbrs	r24, 1
     3ae:	0e c0       	rjmp	.+28     	; 0x3cc <RegInput+0xa8>
     3b0:	8a e0       	ldi	r24, 0x0A	; 10
     3b2:	80 93 4d 01 	sts	0x014D, r24	; 0x80014d <tikDebounce+0x1>
     3b6:	80 91 03 01 	lds	r24, 0x0103	; 0x800103 <lecture>
     3ba:	98 2f       	mov	r25, r24
     3bc:	9d 7f       	andi	r25, 0xFD	; 253
     3be:	80 91 05 01 	lds	r24, 0x0105	; 0x800105 <newValueA>
     3c2:	82 70       	andi	r24, 0x02	; 2
     3c4:	89 2b       	or	r24, r25
     3c6:	80 93 03 01 	sts	0x0103, r24	; 0x800103 <lecture>
     3ca:	0f c0       	rjmp	.+30     	; 0x3ea <RegInput+0xc6>
     3cc:	80 91 4d 01 	lds	r24, 0x014D	; 0x80014d <tikDebounce+0x1>
     3d0:	88 23       	and	r24, r24
     3d2:	59 f0       	breq	.+22     	; 0x3ea <RegInput+0xc6>
     3d4:	81 50       	subi	r24, 0x01	; 1
     3d6:	80 93 4d 01 	sts	0x014D, r24	; 0x80014d <tikDebounce+0x1>
     3da:	81 11       	cpse	r24, r1
     3dc:	06 c0       	rjmp	.+12     	; 0x3ea <RegInput+0xc6>
     3de:	41 e0       	ldi	r20, 0x01	; 1
     3e0:	62 e0       	ldi	r22, 0x02	; 2
     3e2:	80 91 03 01 	lds	r24, 0x0103	; 0x800103 <lecture>
     3e6:	0e 94 15 01 	call	0x22a	; 0x22a <UpdateState>
     3ea:	80 91 67 03 	lds	r24, 0x0367	; 0x800367 <tikBetweenTime+0x4>
     3ee:	90 91 68 03 	lds	r25, 0x0368	; 0x800368 <tikBetweenTime+0x5>
     3f2:	00 97       	sbiw	r24, 0x00	; 0
     3f4:	31 f0       	breq	.+12     	; 0x402 <__EEPROM_REGION_LENGTH__+0x2>
     3f6:	01 97       	sbiw	r24, 0x01	; 1
     3f8:	90 93 68 03 	sts	0x0368, r25	; 0x800368 <tikBetweenTime+0x5>
     3fc:	80 93 67 03 	sts	0x0367, r24	; 0x800367 <tikBetweenTime+0x4>
     400:	21 c0       	rjmp	.+66     	; 0x444 <__EEPROM_REGION_LENGTH__+0x44>
     402:	80 91 58 02 	lds	r24, 0x0258	; 0x800258 <inputFlags>
     406:	82 ff       	sbrs	r24, 2
     408:	0e c0       	rjmp	.+28     	; 0x426 <__EEPROM_REGION_LENGTH__+0x26>
     40a:	8a e0       	ldi	r24, 0x0A	; 10
     40c:	80 93 4e 01 	sts	0x014E, r24	; 0x80014e <tikDebounce+0x2>
     410:	80 91 03 01 	lds	r24, 0x0103	; 0x800103 <lecture>
     414:	98 2f       	mov	r25, r24
     416:	9b 7f       	andi	r25, 0xFB	; 251
     418:	80 91 05 01 	lds	r24, 0x0105	; 0x800105 <newValueA>
     41c:	84 70       	andi	r24, 0x04	; 4
     41e:	89 2b       	or	r24, r25
     420:	80 93 03 01 	sts	0x0103, r24	; 0x800103 <lecture>
     424:	0f c0       	rjmp	.+30     	; 0x444 <__EEPROM_REGION_LENGTH__+0x44>
     426:	80 91 4e 01 	lds	r24, 0x014E	; 0x80014e <tikDebounce+0x2>
     42a:	88 23       	and	r24, r24
     42c:	59 f0       	breq	.+22     	; 0x444 <__EEPROM_REGION_LENGTH__+0x44>
     42e:	81 50       	subi	r24, 0x01	; 1
     430:	80 93 4e 01 	sts	0x014E, r24	; 0x80014e <tikDebounce+0x2>
     434:	81 11       	cpse	r24, r1
     436:	06 c0       	rjmp	.+12     	; 0x444 <__EEPROM_REGION_LENGTH__+0x44>
     438:	42 e0       	ldi	r20, 0x02	; 2
     43a:	64 e0       	ldi	r22, 0x04	; 4
     43c:	80 91 03 01 	lds	r24, 0x0103	; 0x800103 <lecture>
     440:	0e 94 15 01 	call	0x22a	; 0x22a <UpdateState>
     444:	80 91 69 03 	lds	r24, 0x0369	; 0x800369 <tikBetweenTime+0x6>
     448:	90 91 6a 03 	lds	r25, 0x036A	; 0x80036a <tikBetweenTime+0x7>
     44c:	00 97       	sbiw	r24, 0x00	; 0
     44e:	31 f0       	breq	.+12     	; 0x45c <__EEPROM_REGION_LENGTH__+0x5c>
     450:	01 97       	sbiw	r24, 0x01	; 1
     452:	90 93 6a 03 	sts	0x036A, r25	; 0x80036a <tikBetweenTime+0x7>
     456:	80 93 69 03 	sts	0x0369, r24	; 0x800369 <tikBetweenTime+0x6>
     45a:	21 c0       	rjmp	.+66     	; 0x49e <__EEPROM_REGION_LENGTH__+0x9e>
     45c:	80 91 58 02 	lds	r24, 0x0258	; 0x800258 <inputFlags>
     460:	83 ff       	sbrs	r24, 3
     462:	0e c0       	rjmp	.+28     	; 0x480 <__EEPROM_REGION_LENGTH__+0x80>
     464:	8a e0       	ldi	r24, 0x0A	; 10
     466:	80 93 4f 01 	sts	0x014F, r24	; 0x80014f <tikDebounce+0x3>
     46a:	80 91 03 01 	lds	r24, 0x0103	; 0x800103 <lecture>
     46e:	98 2f       	mov	r25, r24
     470:	97 7f       	andi	r25, 0xF7	; 247
     472:	80 91 05 01 	lds	r24, 0x0105	; 0x800105 <newValueA>
     476:	88 70       	andi	r24, 0x08	; 8
     478:	89 2b       	or	r24, r25
     47a:	80 93 03 01 	sts	0x0103, r24	; 0x800103 <lecture>
     47e:	0f c0       	rjmp	.+30     	; 0x49e <__EEPROM_REGION_LENGTH__+0x9e>
     480:	80 91 4f 01 	lds	r24, 0x014F	; 0x80014f <tikDebounce+0x3>
     484:	88 23       	and	r24, r24
     486:	59 f0       	breq	.+22     	; 0x49e <__EEPROM_REGION_LENGTH__+0x9e>
     488:	81 50       	subi	r24, 0x01	; 1
     48a:	80 93 4f 01 	sts	0x014F, r24	; 0x80014f <tikDebounce+0x3>
     48e:	81 11       	cpse	r24, r1
     490:	06 c0       	rjmp	.+12     	; 0x49e <__EEPROM_REGION_LENGTH__+0x9e>
     492:	43 e0       	ldi	r20, 0x03	; 3
     494:	68 e0       	ldi	r22, 0x08	; 8
     496:	80 91 03 01 	lds	r24, 0x0103	; 0x800103 <lecture>
     49a:	0e 94 15 01 	call	0x22a	; 0x22a <UpdateState>
     49e:	80 91 05 01 	lds	r24, 0x0105	; 0x800105 <newValueA>
     4a2:	80 93 06 01 	sts	0x0106, r24	; 0x800106 <oldValueA>
     4a6:	0e 94 18 08 	call	0x1030	; 0x1030 <TC0_Enable_CompareA_Interrupt>
     4aa:	80 91 51 02 	lds	r24, 0x0251	; 0x800251 <commFlags>
     4ae:	8e 7f       	andi	r24, 0xFE	; 254
     4b0:	80 93 51 02 	sts	0x0251, r24	; 0x800251 <commFlags>
     4b4:	08 95       	ret

000004b6 <MODBUS_CalculateCRC>:

void MODBUS_CalculateCRC(uint8_t data){//, uint16_t crc){
	myModbusFrame.crcSlave ^= (uint16_t)data;
     4b6:	eb e5       	ldi	r30, 0x5B	; 91
     4b8:	f2 e0       	ldi	r31, 0x02	; 2
     4ba:	24 81       	ldd	r18, Z+4	; 0x04
     4bc:	35 81       	ldd	r19, Z+5	; 0x05
     4be:	28 27       	eor	r18, r24
     4c0:	35 83       	std	Z+5, r19	; 0x05
     4c2:	24 83       	std	Z+4, r18	; 0x04
	for (uint8_t i = 0; i < 8; i++)
     4c4:	20 e0       	ldi	r18, 0x00	; 0
     4c6:	18 c0       	rjmp	.+48     	; 0x4f8 <MODBUS_CalculateCRC+0x42>
	{
		if (myModbusFrame.crcSlave & 0x0001)
     4c8:	80 91 5f 02 	lds	r24, 0x025F	; 0x80025f <myModbusFrame+0x4>
     4cc:	90 91 60 02 	lds	r25, 0x0260	; 0x800260 <myModbusFrame+0x5>
     4d0:	80 ff       	sbrs	r24, 0
     4d2:	0b c0       	rjmp	.+22     	; 0x4ea <MODBUS_CalculateCRC+0x34>
		myModbusFrame.crcSlave = (myModbusFrame.crcSlave >> 1) ^ 0xA001;
     4d4:	96 95       	lsr	r25
     4d6:	87 95       	ror	r24
     4d8:	31 e0       	ldi	r19, 0x01	; 1
     4da:	83 27       	eor	r24, r19
     4dc:	30 ea       	ldi	r19, 0xA0	; 160
     4de:	93 27       	eor	r25, r19
     4e0:	90 93 60 02 	sts	0x0260, r25	; 0x800260 <myModbusFrame+0x5>
     4e4:	80 93 5f 02 	sts	0x025F, r24	; 0x80025f <myModbusFrame+0x4>
     4e8:	06 c0       	rjmp	.+12     	; 0x4f6 <MODBUS_CalculateCRC+0x40>
		else
		myModbusFrame.crcSlave >>= 1;
     4ea:	96 95       	lsr	r25
     4ec:	87 95       	ror	r24
     4ee:	90 93 60 02 	sts	0x0260, r25	; 0x800260 <myModbusFrame+0x5>
     4f2:	80 93 5f 02 	sts	0x025F, r24	; 0x80025f <myModbusFrame+0x4>
	}
}

void MODBUS_CalculateCRC(uint8_t data){//, uint16_t crc){
	myModbusFrame.crcSlave ^= (uint16_t)data;
	for (uint8_t i = 0; i < 8; i++)
     4f6:	2f 5f       	subi	r18, 0xFF	; 255
     4f8:	28 30       	cpi	r18, 0x08	; 8
     4fa:	30 f3       	brcs	.-52     	; 0x4c8 <MODBUS_CalculateCRC+0x12>
		if (myModbusFrame.crcSlave & 0x0001)
		myModbusFrame.crcSlave = (myModbusFrame.crcSlave >> 1) ^ 0xA001;
		else
		myModbusFrame.crcSlave >>= 1;
	}
}
     4fc:	08 95       	ret

000004fe <MODBUS_DecodeFrame>:

// Funcion para recibir un byte a traves de UART leido
void MODBUS_DecodeFrame(uint8_t data){
     4fe:	0f 93       	push	r16
     500:	1f 93       	push	r17
     502:	cf 93       	push	r28
     504:	df 93       	push	r29
	switch(decodeState){
     506:	e0 91 50 01 	lds	r30, 0x0150	; 0x800150 <decodeState>
     50a:	4e 2f       	mov	r20, r30
     50c:	50 e0       	ldi	r21, 0x00	; 0
     50e:	47 30       	cpi	r20, 0x07	; 7
     510:	51 05       	cpc	r21, r1
     512:	08 f0       	brcs	.+2      	; 0x516 <MODBUS_DecodeFrame+0x18>
     514:	9c c0       	rjmp	.+312    	; 0x64e <MODBUS_DecodeFrame+0x150>
     516:	c8 2f       	mov	r28, r24
     518:	fa 01       	movw	r30, r20
     51a:	ec 5c       	subi	r30, 0xCC	; 204
     51c:	ff 4f       	sbci	r31, 0xFF	; 255
     51e:	0c 94 13 09 	jmp	0x1226	; 0x1226 <__tablejump2__>
		case IDLE:
			if(data == MODBUS_BROADCAST_ADDRESS || data == MODBUS_SLAVE_ADDRESS){
     522:	88 23       	and	r24, r24
     524:	21 f0       	breq	.+8      	; 0x52e <MODBUS_DecodeFrame+0x30>
     526:	80 91 ff 03 	lds	r24, 0x03FF	; 0x8003ff <slaveAddress>
     52a:	c8 13       	cpse	r28, r24
     52c:	16 c0       	rjmp	.+44     	; 0x55a <MODBUS_DecodeFrame+0x5c>
				if(data == MODBUS_BROADCAST_ADDRESS) commFlags.iFlags.isBroadcast = 1;
     52e:	c1 11       	cpse	r28, r1
     530:	05 c0       	rjmp	.+10     	; 0x53c <MODBUS_DecodeFrame+0x3e>
     532:	80 91 51 02 	lds	r24, 0x0251	; 0x800251 <commFlags>
     536:	80 61       	ori	r24, 0x10	; 16
     538:	80 93 51 02 	sts	0x0251, r24	; 0x800251 <commFlags>
				myModbusFrame.nBytes = 5;
     53c:	eb e5       	ldi	r30, 0x5B	; 91
     53e:	f2 e0       	ldi	r31, 0x02	; 2
     540:	85 e0       	ldi	r24, 0x05	; 5
     542:	81 83       	std	Z+1, r24	; 0x01
				myModbusFrame.crcSlave = 0xFFFF;
     544:	8f ef       	ldi	r24, 0xFF	; 255
     546:	9f ef       	ldi	r25, 0xFF	; 255
     548:	95 83       	std	Z+5, r25	; 0x05
     54a:	84 83       	std	Z+4, r24	; 0x04
				MODBUS_CalculateCRC(data);
     54c:	8c 2f       	mov	r24, r28
     54e:	0e 94 5b 02 	call	0x4b6	; 0x4b6 <MODBUS_CalculateCRC>
				decodeState = FUNCTION;			
     552:	81 e0       	ldi	r24, 0x01	; 1
     554:	80 93 50 01 	sts	0x0150, r24	; 0x800150 <decodeState>
     558:	80 c0       	rjmp	.+256    	; 0x65a <MODBUS_DecodeFrame+0x15c>
			}else{
				decodeState = DISCARD;
     55a:	86 e0       	ldi	r24, 0x06	; 6
     55c:	80 93 50 01 	sts	0x0150, r24	; 0x800150 <decodeState>
     560:	7c c0       	rjmp	.+248    	; 0x65a <MODBUS_DecodeFrame+0x15c>
			}
		break;
		case FUNCTION:
			myModbusFrame.function = data;
     562:	0b e5       	ldi	r16, 0x5B	; 91
     564:	12 e0       	ldi	r17, 0x02	; 2
     566:	f8 01       	movw	r30, r16
     568:	80 83       	st	Z, r24
			MODBUS_CalculateCRC(data);
     56a:	0e 94 5b 02 	call	0x4b6	; 0x4b6 <MODBUS_CalculateCRC>
			myModbusFrame.nBytes--;
     56e:	f8 01       	movw	r30, r16
     570:	81 81       	ldd	r24, Z+1	; 0x01
     572:	9f ef       	ldi	r25, 0xFF	; 255
     574:	98 0f       	add	r25, r24
     576:	91 83       	std	Z+1, r25	; 0x01
			if(data == WRITE_MULTIPLE_REGISTERS) myModbusFrame.nBytes++; 
     578:	c0 31       	cpi	r28, 0x10	; 16
     57a:	11 f4       	brne	.+4      	; 0x580 <MODBUS_DecodeFrame+0x82>
     57c:	80 93 5c 02 	sts	0x025C, r24	; 0x80025c <myModbusFrame+0x1>
			decodeState = DATA;
     580:	82 e0       	ldi	r24, 0x02	; 2
     582:	80 93 50 01 	sts	0x0150, r24	; 0x800150 <decodeState>
		break;
     586:	69 c0       	rjmp	.+210    	; 0x65a <MODBUS_DecodeFrame+0x15c>
		case DATA:
			bufferRx[indexRxW++] = data;
     588:	e0 91 5a 02 	lds	r30, 0x025A	; 0x80025a <indexRxW>
     58c:	81 e0       	ldi	r24, 0x01	; 1
     58e:	8e 0f       	add	r24, r30
     590:	80 93 5a 02 	sts	0x025A, r24	; 0x80025a <indexRxW>
     594:	f0 e0       	ldi	r31, 0x00	; 0
     596:	ef 5a       	subi	r30, 0xAF	; 175
     598:	fe 4f       	sbci	r31, 0xFE	; 254
     59a:	c0 83       	st	Z, r28
			MODBUS_CalculateCRC(data);
     59c:	8c 2f       	mov	r24, r28
     59e:	0e 94 5b 02 	call	0x4b6	; 0x4b6 <MODBUS_CalculateCRC>
			myModbusFrame.nBytes--;
     5a2:	eb e5       	ldi	r30, 0x5B	; 91
     5a4:	f2 e0       	ldi	r31, 0x02	; 2
     5a6:	81 81       	ldd	r24, Z+1	; 0x01
     5a8:	81 50       	subi	r24, 0x01	; 1
     5aa:	81 83       	std	Z+1, r24	; 0x01
			if(myModbusFrame.nBytes == 0){
     5ac:	81 11       	cpse	r24, r1
     5ae:	55 c0       	rjmp	.+170    	; 0x65a <MODBUS_DecodeFrame+0x15c>
				if(myModbusFrame.function == WRITE_MULTIPLE_REGISTERS){
     5b0:	80 91 5b 02 	lds	r24, 0x025B	; 0x80025b <myModbusFrame>
     5b4:	80 31       	cpi	r24, 0x10	; 16
     5b6:	31 f4       	brne	.+12     	; 0x5c4 <MODBUS_DecodeFrame+0xc6>
					myModbusFrame.nBytes = data;
     5b8:	c0 93 5c 02 	sts	0x025C, r28	; 0x80025c <myModbusFrame+0x1>
					decodeState = EXTRADATA;
     5bc:	83 e0       	ldi	r24, 0x03	; 3
     5be:	80 93 50 01 	sts	0x0150, r24	; 0x800150 <decodeState>
     5c2:	4b c0       	rjmp	.+150    	; 0x65a <MODBUS_DecodeFrame+0x15c>
				}else{
					decodeState = CRCL;
     5c4:	85 e0       	ldi	r24, 0x05	; 5
     5c6:	80 93 50 01 	sts	0x0150, r24	; 0x800150 <decodeState>
     5ca:	47 c0       	rjmp	.+142    	; 0x65a <MODBUS_DecodeFrame+0x15c>
				}
			}
			
		break;
		case EXTRADATA:
			bufferRx[indexRxW++] = data;
     5cc:	e0 91 5a 02 	lds	r30, 0x025A	; 0x80025a <indexRxW>
     5d0:	81 e0       	ldi	r24, 0x01	; 1
     5d2:	8e 0f       	add	r24, r30
     5d4:	80 93 5a 02 	sts	0x025A, r24	; 0x80025a <indexRxW>
     5d8:	f0 e0       	ldi	r31, 0x00	; 0
     5da:	ef 5a       	subi	r30, 0xAF	; 175
     5dc:	fe 4f       	sbci	r31, 0xFE	; 254
     5de:	c0 83       	st	Z, r28
			MODBUS_CalculateCRC(data);
     5e0:	8c 2f       	mov	r24, r28
     5e2:	0e 94 5b 02 	call	0x4b6	; 0x4b6 <MODBUS_CalculateCRC>
			myModbusFrame.nBytes--;
     5e6:	eb e5       	ldi	r30, 0x5B	; 91
     5e8:	f2 e0       	ldi	r31, 0x02	; 2
     5ea:	81 81       	ldd	r24, Z+1	; 0x01
     5ec:	81 50       	subi	r24, 0x01	; 1
     5ee:	81 83       	std	Z+1, r24	; 0x01
			if(myModbusFrame.nBytes == 0){
     5f0:	81 11       	cpse	r24, r1
     5f2:	33 c0       	rjmp	.+102    	; 0x65a <MODBUS_DecodeFrame+0x15c>
				decodeState = CRCL;
     5f4:	85 e0       	ldi	r24, 0x05	; 5
     5f6:	80 93 50 01 	sts	0x0150, r24	; 0x800150 <decodeState>
     5fa:	2f c0       	rjmp	.+94     	; 0x65a <MODBUS_DecodeFrame+0x15c>
			}
		break;
		case CRCL:
			myModbusFrame.crcMaster = data;
     5fc:	c8 2f       	mov	r28, r24
     5fe:	d0 e0       	ldi	r29, 0x00	; 0
     600:	d0 93 62 02 	sts	0x0262, r29	; 0x800262 <myModbusFrame+0x7>
     604:	c0 93 61 02 	sts	0x0261, r28	; 0x800261 <myModbusFrame+0x6>
			decodeState = CRCH;
     608:	84 e0       	ldi	r24, 0x04	; 4
     60a:	80 93 50 01 	sts	0x0150, r24	; 0x800150 <decodeState>
		break;
     60e:	25 c0       	rjmp	.+74     	; 0x65a <MODBUS_DecodeFrame+0x15c>
		case CRCH:
			myModbusFrame.crcMaster |= (uint16_t)(data << 8);
     610:	20 e0       	ldi	r18, 0x00	; 0
     612:	38 2f       	mov	r19, r24
     614:	eb e5       	ldi	r30, 0x5B	; 91
     616:	f2 e0       	ldi	r31, 0x02	; 2
     618:	86 81       	ldd	r24, Z+6	; 0x06
     61a:	97 81       	ldd	r25, Z+7	; 0x07
     61c:	82 2b       	or	r24, r18
     61e:	93 2b       	or	r25, r19
     620:	97 83       	std	Z+7, r25	; 0x07
     622:	86 83       	std	Z+6, r24	; 0x06
			if(myModbusFrame.crcSlave == myModbusFrame.crcMaster){
     624:	24 81       	ldd	r18, Z+4	; 0x04
     626:	35 81       	ldd	r19, Z+5	; 0x05
     628:	82 17       	cp	r24, r18
     62a:	93 07       	cpc	r25, r19
     62c:	31 f4       	brne	.+12     	; 0x63a <MODBUS_DecodeFrame+0x13c>
				commFlags.iFlags.dataReady = 1;
     62e:	80 91 51 02 	lds	r24, 0x0251	; 0x800251 <commFlags>
     632:	82 60       	ori	r24, 0x02	; 2
     634:	80 93 51 02 	sts	0x0251, r24	; 0x800251 <commFlags>
     638:	04 c0       	rjmp	.+8      	; 0x642 <MODBUS_DecodeFrame+0x144>
			}else{
				indexRxR = indexRxW;
     63a:	80 91 5a 02 	lds	r24, 0x025A	; 0x80025a <indexRxW>
     63e:	80 93 59 02 	sts	0x0259, r24	; 0x800259 <indexRxR>
			}
			decodeState = IDLE;
     642:	10 92 50 01 	sts	0x0150, r1	; 0x800150 <decodeState>
		break;
     646:	09 c0       	rjmp	.+18     	; 0x65a <MODBUS_DecodeFrame+0x15c>
		case DISCARD: 
			trashByte = data;
     648:	80 93 53 02 	sts	0x0253, r24	; 0x800253 <trashByte>
		break;
     64c:	06 c0       	rjmp	.+12     	; 0x65a <MODBUS_DecodeFrame+0x15c>
		default:
			decodeState = IDLE;
     64e:	10 92 50 01 	sts	0x0150, r1	; 0x800150 <decodeState>
			indexRxR = indexRxW;
     652:	80 91 5a 02 	lds	r24, 0x025A	; 0x80025a <indexRxW>
     656:	80 93 59 02 	sts	0x0259, r24	; 0x800259 <indexRxR>
		break;
	}

}
     65a:	df 91       	pop	r29
     65c:	cf 91       	pop	r28
     65e:	1f 91       	pop	r17
     660:	0f 91       	pop	r16
     662:	08 95       	ret

00000664 <__vector_18>:
void SentEvents(uint16_t count);
void InitializeEvents();


// ---------------------- Implementacion de ISR ----------------------
ISR(USART_RX_vect){
     664:	1f 92       	push	r1
     666:	0f 92       	push	r0
     668:	0f b6       	in	r0, 0x3f	; 63
     66a:	0f 92       	push	r0
     66c:	11 24       	eor	r1, r1
     66e:	2f 93       	push	r18
     670:	3f 93       	push	r19
     672:	4f 93       	push	r20
     674:	5f 93       	push	r21
     676:	6f 93       	push	r22
     678:	7f 93       	push	r23
     67a:	8f 93       	push	r24
     67c:	9f 93       	push	r25
     67e:	af 93       	push	r26
     680:	bf 93       	push	r27
     682:	ef 93       	push	r30
     684:	ff 93       	push	r31
	
	RestartTikValues(); 
     686:	0e 94 d2 00 	call	0x1a4	; 0x1a4 <RestartTikValues>
	MODBUS_DecodeFrame(UDR0);
     68a:	80 91 c6 00 	lds	r24, 0x00C6	; 0x8000c6 <__TEXT_REGION_LENGTH__+0x7f80c6>
     68e:	0e 94 7f 02 	call	0x4fe	; 0x4fe <MODBUS_DecodeFrame>
}
     692:	ff 91       	pop	r31
     694:	ef 91       	pop	r30
     696:	bf 91       	pop	r27
     698:	af 91       	pop	r26
     69a:	9f 91       	pop	r25
     69c:	8f 91       	pop	r24
     69e:	7f 91       	pop	r23
     6a0:	6f 91       	pop	r22
     6a2:	5f 91       	pop	r21
     6a4:	4f 91       	pop	r20
     6a6:	3f 91       	pop	r19
     6a8:	2f 91       	pop	r18
     6aa:	0f 90       	pop	r0
     6ac:	0f be       	out	0x3f, r0	; 63
     6ae:	0f 90       	pop	r0
     6b0:	1f 90       	pop	r1
     6b2:	18 95       	reti

000006b4 <MODBUS_ProcessFunction>:
		break;
	}

}

void MODBUS_ProcessFunction(){
     6b4:	cf 93       	push	r28
     6b6:	df 93       	push	r29
	uint8_t countIndex, byteCount = 0;
	uint16_t regAddress, regValue, regCant, subfunction;
	myModbusFrame.crcSlave = 0xFFFF;
     6b8:	eb e5       	ldi	r30, 0x5B	; 91
     6ba:	f2 e0       	ldi	r31, 0x02	; 2
     6bc:	8f ef       	ldi	r24, 0xFF	; 255
     6be:	9f ef       	ldi	r25, 0xFF	; 255
     6c0:	95 83       	std	Z+5, r25	; 0x05
     6c2:	84 83       	std	Z+4, r24	; 0x04
	switch(myModbusFrame.function){
     6c4:	80 81       	ld	r24, Z
     6c6:	86 30       	cpi	r24, 0x06	; 6
     6c8:	09 f4       	brne	.+2      	; 0x6cc <MODBUS_ProcessFunction+0x18>
     6ca:	fe c0       	rjmp	.+508    	; 0x8c8 <__DATA_REGION_LENGTH__+0xc8>
     6cc:	18 f4       	brcc	.+6      	; 0x6d4 <MODBUS_ProcessFunction+0x20>
     6ce:	83 30       	cpi	r24, 0x03	; 3
     6d0:	41 f0       	breq	.+16     	; 0x6e2 <MODBUS_ProcessFunction+0x2e>
     6d2:	73 c3       	rjmp	.+1766   	; 0xdba <__stack+0x4bb>
     6d4:	88 30       	cpi	r24, 0x08	; 8
     6d6:	09 f4       	brne	.+2      	; 0x6da <MODBUS_ProcessFunction+0x26>
     6d8:	ab c1       	rjmp	.+854    	; 0xa30 <__stack+0x131>
     6da:	80 31       	cpi	r24, 0x10	; 16
     6dc:	09 f4       	brne	.+2      	; 0x6e0 <MODBUS_ProcessFunction+0x2c>
     6de:	7c c2       	rjmp	.+1272   	; 0xbd8 <__stack+0x2d9>
     6e0:	6c c3       	rjmp	.+1752   	; 0xdba <__stack+0x4bb>
		case READ_HOLDING_REGISTERS: //Ver si conviene copiar valores en RAM o dejarlos solo en EEPROM
			myModbusFrame.errorCode = 0x83;
     6e2:	83 e8       	ldi	r24, 0x83	; 131
     6e4:	80 93 5d 02 	sts	0x025D, r24	; 0x80025d <myModbusFrame+0x2>
			if(commFlags.iFlags.isBroadcast){
     6e8:	80 91 51 02 	lds	r24, 0x0251	; 0x800251 <commFlags>
     6ec:	84 ff       	sbrs	r24, 4
     6ee:	04 c0       	rjmp	.+8      	; 0x6f8 <MODBUS_ProcessFunction+0x44>
				commFlags.iFlags.isBroadcast = 0;
     6f0:	8f 7e       	andi	r24, 0xEF	; 239
     6f2:	80 93 51 02 	sts	0x0251, r24	; 0x800251 <commFlags>
				return;
     6f6:	71 c3       	rjmp	.+1762   	; 0xdda <__stack+0x4db>
			}
			//Direccion inicial
			myWord.ui8[1] = bufferRx[indexRxR++];
     6f8:	a0 91 59 02 	lds	r26, 0x0259	; 0x800259 <indexRxR>
     6fc:	e1 e0       	ldi	r30, 0x01	; 1
     6fe:	ea 0f       	add	r30, r26
     700:	e0 93 59 02 	sts	0x0259, r30	; 0x800259 <indexRxR>
     704:	b0 e0       	ldi	r27, 0x00	; 0
     706:	af 5a       	subi	r26, 0xAF	; 175
     708:	be 4f       	sbci	r27, 0xFE	; 254
     70a:	8c 91       	ld	r24, X
     70c:	c4 e5       	ldi	r28, 0x54	; 84
     70e:	d2 e0       	ldi	r29, 0x02	; 2
     710:	89 83       	std	Y+1, r24	; 0x01
			myWord.ui8[0] = bufferRx[indexRxR++];
     712:	a1 e0       	ldi	r26, 0x01	; 1
     714:	ae 0f       	add	r26, r30
     716:	a0 93 59 02 	sts	0x0259, r26	; 0x800259 <indexRxR>
     71a:	f0 e0       	ldi	r31, 0x00	; 0
     71c:	ef 5a       	subi	r30, 0xAF	; 175
     71e:	fe 4f       	sbci	r31, 0xFE	; 254
     720:	80 81       	ld	r24, Z
     722:	88 83       	st	Y, r24
			regAddress = myWord.ui16[0];
     724:	88 81       	ld	r24, Y
     726:	99 81       	ldd	r25, Y+1	; 0x01
			//Cantidad de registros
			myWord.ui8[1] = bufferRx[indexRxR++];
     728:	e1 e0       	ldi	r30, 0x01	; 1
     72a:	ea 0f       	add	r30, r26
     72c:	e0 93 59 02 	sts	0x0259, r30	; 0x800259 <indexRxR>
     730:	b0 e0       	ldi	r27, 0x00	; 0
     732:	af 5a       	subi	r26, 0xAF	; 175
     734:	be 4f       	sbci	r27, 0xFE	; 254
     736:	2c 91       	ld	r18, X
     738:	29 83       	std	Y+1, r18	; 0x01
			myWord.ui8[0] = bufferRx[indexRxR++];
     73a:	21 e0       	ldi	r18, 0x01	; 1
     73c:	2e 0f       	add	r18, r30
     73e:	20 93 59 02 	sts	0x0259, r18	; 0x800259 <indexRxR>
     742:	f0 e0       	ldi	r31, 0x00	; 0
     744:	ef 5a       	subi	r30, 0xAF	; 175
     746:	fe 4f       	sbci	r31, 0xFE	; 254
     748:	20 81       	ld	r18, Z
     74a:	28 83       	st	Y, r18
			regCant = myWord.ui16[0];
     74c:	48 81       	ld	r20, Y
     74e:	59 81       	ldd	r21, Y+1	; 0x01
			
			//CONTROLAR CANTIDAD 
			if(regCant<1 || regCant > 0x07B){ //error cantidad
     750:	9a 01       	movw	r18, r20
     752:	21 50       	subi	r18, 0x01	; 1
     754:	31 09       	sbc	r19, r1
     756:	2b 37       	cpi	r18, 0x7B	; 123
     758:	31 05       	cpc	r19, r1
     75a:	48 f0       	brcs	.+18     	; 0x76e <MODBUS_ProcessFunction+0xba>
				myModbusFrame.excepCode = INVALID_DATA_VALUE;
     75c:	83 e0       	ldi	r24, 0x03	; 3
     75e:	80 93 5e 02 	sts	0x025E, r24	; 0x80025e <myModbusFrame+0x3>
			    commFlags.iFlags.isExceptionCode = 1;
     762:	80 91 51 02 	lds	r24, 0x0251	; 0x800251 <commFlags>
     766:	88 60       	ori	r24, 0x08	; 8
     768:	80 93 51 02 	sts	0x0251, r24	; 0x800251 <commFlags>
				return;
     76c:	36 c3       	rjmp	.+1644   	; 0xdda <__stack+0x4db>
			}
			//Controlar validez direcciones
			if((regAddress < START_CONFIG_ADDRESS) || (regAddress>END_CONFIG_ADDRESS && regAddress <START_EVENT_ADDRESS) || regAddress > END_EVENT_ADDRESS){
     76e:	81 15       	cp	r24, r1
     770:	24 e0       	ldi	r18, 0x04	; 4
     772:	92 07       	cpc	r25, r18
     774:	50 f0       	brcs	.+20     	; 0x78a <MODBUS_ProcessFunction+0xd6>
     776:	9c 01       	movw	r18, r24
     778:	22 51       	subi	r18, 0x12	; 18
     77a:	34 40       	sbci	r19, 0x04	; 4
     77c:	20 36       	cpi	r18, 0x60	; 96
     77e:	33 40       	sbci	r19, 0x03	; 3
     780:	20 f0       	brcs	.+8      	; 0x78a <MODBUS_ProcessFunction+0xd6>
     782:	8f 39       	cpi	r24, 0x9F	; 159
     784:	a8 e0       	ldi	r26, 0x08	; 8
     786:	9a 07       	cpc	r25, r26
     788:	48 f0       	brcs	.+18     	; 0x79c <MODBUS_ProcessFunction+0xe8>
				myModbusFrame.excepCode = INVALID_DATA_ADDRESS;
     78a:	82 e0       	ldi	r24, 0x02	; 2
     78c:	80 93 5e 02 	sts	0x025E, r24	; 0x80025e <myModbusFrame+0x3>
				commFlags.iFlags.isExceptionCode = 1;
     790:	80 91 51 02 	lds	r24, 0x0251	; 0x800251 <commFlags>
     794:	88 60       	ori	r24, 0x08	; 8
     796:	80 93 51 02 	sts	0x0251, r24	; 0x800251 <commFlags>
				return;
     79a:	1f c3       	rjmp	.+1598   	; 0xdda <__stack+0x4db>
			}			
			if(regAddress>=START_CONFIG_ADDRESS && regAddress <= END_CONFIG_ADDRESS){
     79c:	9c 01       	movw	r18, r24
     79e:	34 50       	subi	r19, 0x04	; 4
     7a0:	22 31       	cpi	r18, 0x12	; 18
     7a2:	31 05       	cpc	r19, r1
     7a4:	98 f4       	brcc	.+38     	; 0x7cc <MODBUS_ProcessFunction+0x118>
				if((regAddress+((regCant -1)*2) > END_CONFIG_ADDRESS)){
     7a6:	9a 01       	movw	r18, r20
     7a8:	21 50       	subi	r18, 0x01	; 1
     7aa:	30 48       	sbci	r19, 0x80	; 128
     7ac:	22 0f       	add	r18, r18
     7ae:	33 1f       	adc	r19, r19
     7b0:	28 0f       	add	r18, r24
     7b2:	39 1f       	adc	r19, r25
     7b4:	22 31       	cpi	r18, 0x12	; 18
     7b6:	34 40       	sbci	r19, 0x04	; 4
     7b8:	48 f0       	brcs	.+18     	; 0x7cc <MODBUS_ProcessFunction+0x118>
					//error address
					myModbusFrame.excepCode = INVALID_DATA_ADDRESS;
     7ba:	82 e0       	ldi	r24, 0x02	; 2
     7bc:	80 93 5e 02 	sts	0x025E, r24	; 0x80025e <myModbusFrame+0x3>
					commFlags.iFlags.isExceptionCode = 1;
     7c0:	80 91 51 02 	lds	r24, 0x0251	; 0x800251 <commFlags>
     7c4:	88 60       	ori	r24, 0x08	; 8
     7c6:	80 93 51 02 	sts	0x0251, r24	; 0x800251 <commFlags>
					return;
     7ca:	07 c3       	rjmp	.+1550   	; 0xdda <__stack+0x4db>
				}

			}
			if(regAddress>=START_EVENT_ADDRESS && regAddress <= END_EVENT_ADDRESS){
     7cc:	9c 01       	movw	r18, r24
     7ce:	22 57       	subi	r18, 0x72	; 114
     7d0:	37 40       	sbci	r19, 0x07	; 7
     7d2:	2d 32       	cpi	r18, 0x2D	; 45
     7d4:	31 40       	sbci	r19, 0x01	; 1
     7d6:	98 f4       	brcc	.+38     	; 0x7fe <MODBUS_ProcessFunction+0x14a>
				if((regAddress + (regCant -1)*2) > END_EVENT_ADDRESS){
     7d8:	9a 01       	movw	r18, r20
     7da:	21 50       	subi	r18, 0x01	; 1
     7dc:	30 48       	sbci	r19, 0x80	; 128
     7de:	22 0f       	add	r18, r18
     7e0:	33 1f       	adc	r19, r19
     7e2:	28 0f       	add	r18, r24
     7e4:	39 1f       	adc	r19, r25
     7e6:	2f 39       	cpi	r18, 0x9F	; 159
     7e8:	38 40       	sbci	r19, 0x08	; 8
     7ea:	48 f0       	brcs	.+18     	; 0x7fe <MODBUS_ProcessFunction+0x14a>
					myModbusFrame.excepCode = INVALID_DATA_ADDRESS;
     7ec:	82 e0       	ldi	r24, 0x02	; 2
     7ee:	80 93 5e 02 	sts	0x025E, r24	; 0x80025e <myModbusFrame+0x3>
					commFlags.iFlags.isExceptionCode = 1;
     7f2:	80 91 51 02 	lds	r24, 0x0251	; 0x800251 <commFlags>
     7f6:	88 60       	ori	r24, 0x08	; 8
     7f8:	80 93 51 02 	sts	0x0251, r24	; 0x800251 <commFlags>
					return;
     7fc:	ee c2       	rjmp	.+1500   	; 0xdda <__stack+0x4db>
				}
			}
			
			// Cargar mensaje de respuesta
			bufferTx[indexTxW++] = slaveAddress;
     7fe:	a0 91 4b 01 	lds	r26, 0x014B	; 0x80014b <indexTxW>
     802:	e1 e0       	ldi	r30, 0x01	; 1
     804:	ea 0f       	add	r30, r26
     806:	b0 e0       	ldi	r27, 0x00	; 0
     808:	ad 59       	subi	r26, 0x9D	; 157
     80a:	bd 4f       	sbci	r27, 0xFD	; 253
     80c:	20 91 ff 03 	lds	r18, 0x03FF	; 0x8003ff <slaveAddress>
     810:	2c 93       	st	X, r18
			bufferTx[indexTxW++] = READ_HOLDING_REGISTERS;
     812:	a1 e0       	ldi	r26, 0x01	; 1
     814:	ae 0f       	add	r26, r30
     816:	f0 e0       	ldi	r31, 0x00	; 0
     818:	ed 59       	subi	r30, 0x9D	; 157
     81a:	fd 4f       	sbci	r31, 0xFD	; 253
     81c:	23 e0       	ldi	r18, 0x03	; 3
     81e:	20 83       	st	Z, r18
			//////if para load eventos
			countIndex = indexTxW;
			bufferTx[indexTxW++] = 0x00; // Almacenar en la pocision de cantidad de bytes
     820:	21 e0       	ldi	r18, 0x01	; 1
     822:	2a 0f       	add	r18, r26
     824:	20 93 4b 01 	sts	0x014B, r18	; 0x80014b <indexTxW>
     828:	b0 e0       	ldi	r27, 0x00	; 0
     82a:	fd 01       	movw	r30, r26
     82c:	ed 59       	subi	r30, 0x9D	; 157
     82e:	fd 4f       	sbci	r31, 0xFD	; 253
     830:	10 82       	st	Z, r1
			for(uint8_t i=0 ; i<(regCant*2) ; i++){
     832:	60 e0       	ldi	r22, 0x00	; 0
	}

}

void MODBUS_ProcessFunction(){
	uint8_t countIndex, byteCount = 0;
     834:	70 e0       	ldi	r23, 0x00	; 0
			bufferTx[indexTxW++] = slaveAddress;
			bufferTx[indexTxW++] = READ_HOLDING_REGISTERS;
			//////if para load eventos
			countIndex = indexTxW;
			bufferTx[indexTxW++] = 0x00; // Almacenar en la pocision de cantidad de bytes
			for(uint8_t i=0 ; i<(regCant*2) ; i++){
     836:	10 c0       	rjmp	.+32     	; 0x858 <__DATA_REGION_LENGTH__+0x58>
				bufferTx[indexTxW++] = *((uint8_t *)(regAddress + i)); //volatil
     838:	e0 91 4b 01 	lds	r30, 0x014B	; 0x80014b <indexTxW>
     83c:	f1 e0       	ldi	r31, 0x01	; 1
     83e:	fe 0f       	add	r31, r30
     840:	f0 93 4b 01 	sts	0x014B, r31	; 0x80014b <indexTxW>
     844:	f0 e0       	ldi	r31, 0x00	; 0
     846:	ec 01       	movw	r28, r24
     848:	c2 0f       	add	r28, r18
     84a:	d3 1f       	adc	r29, r19
     84c:	28 81       	ld	r18, Y
     84e:	ed 59       	subi	r30, 0x9D	; 157
     850:	fd 4f       	sbci	r31, 0xFD	; 253
     852:	20 83       	st	Z, r18
				byteCount++;
     854:	7f 5f       	subi	r23, 0xFF	; 255
			bufferTx[indexTxW++] = slaveAddress;
			bufferTx[indexTxW++] = READ_HOLDING_REGISTERS;
			//////if para load eventos
			countIndex = indexTxW;
			bufferTx[indexTxW++] = 0x00; // Almacenar en la pocision de cantidad de bytes
			for(uint8_t i=0 ; i<(regCant*2) ; i++){
     856:	6f 5f       	subi	r22, 0xFF	; 255
     858:	26 2f       	mov	r18, r22
     85a:	30 e0       	ldi	r19, 0x00	; 0
     85c:	fa 01       	movw	r30, r20
     85e:	ee 0f       	add	r30, r30
     860:	ff 1f       	adc	r31, r31
     862:	2e 17       	cp	r18, r30
     864:	3f 07       	cpc	r19, r31
     866:	40 f3       	brcs	.-48     	; 0x838 <__DATA_REGION_LENGTH__+0x38>
				bufferTx[indexTxW++] = *((uint8_t *)(regAddress + i)); //volatil
				byteCount++;
			}
			bufferTx[countIndex] = byteCount;
     868:	ad 59       	subi	r26, 0x9D	; 157
     86a:	bd 4f       	sbci	r27, 0xFD	; 253
     86c:	7c 93       	st	X, r23
			for(uint8_t i = indexTxR; i < indexTxW + 3;i++){
     86e:	c0 91 52 02 	lds	r28, 0x0252	; 0x800252 <indexTxR>
     872:	07 c0       	rjmp	.+14     	; 0x882 <__DATA_REGION_LENGTH__+0x82>
				MODBUS_CalculateCRC(bufferTx[i]);
     874:	fc 01       	movw	r30, r24
     876:	ed 59       	subi	r30, 0x9D	; 157
     878:	fd 4f       	sbci	r31, 0xFD	; 253
     87a:	80 81       	ld	r24, Z
     87c:	0e 94 5b 02 	call	0x4b6	; 0x4b6 <MODBUS_CalculateCRC>
			for(uint8_t i=0 ; i<(regCant*2) ; i++){
				bufferTx[indexTxW++] = *((uint8_t *)(regAddress + i)); //volatil
				byteCount++;
			}
			bufferTx[countIndex] = byteCount;
			for(uint8_t i = indexTxR; i < indexTxW + 3;i++){
     880:	cf 5f       	subi	r28, 0xFF	; 255
     882:	8c 2f       	mov	r24, r28
     884:	90 e0       	ldi	r25, 0x00	; 0
     886:	e0 91 4b 01 	lds	r30, 0x014B	; 0x80014b <indexTxW>
     88a:	2e 2f       	mov	r18, r30
     88c:	30 e0       	ldi	r19, 0x00	; 0
     88e:	a9 01       	movw	r20, r18
     890:	4d 5f       	subi	r20, 0xFD	; 253
     892:	5f 4f       	sbci	r21, 0xFF	; 255
     894:	84 17       	cp	r24, r20
     896:	95 07       	cpc	r25, r21
     898:	6c f3       	brlt	.-38     	; 0x874 <__DATA_REGION_LENGTH__+0x74>
				MODBUS_CalculateCRC(bufferTx[i]);
			}
			myWord.ui16[0] = myModbusFrame.crcSlave;
     89a:	80 91 5f 02 	lds	r24, 0x025F	; 0x80025f <myModbusFrame+0x4>
     89e:	90 91 60 02 	lds	r25, 0x0260	; 0x800260 <myModbusFrame+0x5>
     8a2:	a4 e5       	ldi	r26, 0x54	; 84
     8a4:	b2 e0       	ldi	r27, 0x02	; 2
     8a6:	8c 93       	st	X, r24
     8a8:	11 96       	adiw	r26, 0x01	; 1
     8aa:	9c 93       	st	X, r25
			bufferTx[indexTxW++] = myWord.ui8[0];
     8ac:	ef 5f       	subi	r30, 0xFF	; 255
     8ae:	e9 01       	movw	r28, r18
     8b0:	cd 59       	subi	r28, 0x9D	; 157
     8b2:	dd 4f       	sbci	r29, 0xFD	; 253
     8b4:	88 83       	st	Y, r24
			bufferTx[indexTxW++] = myWord.ui8[1];
     8b6:	81 e0       	ldi	r24, 0x01	; 1
     8b8:	8e 0f       	add	r24, r30
     8ba:	80 93 4b 01 	sts	0x014B, r24	; 0x80014b <indexTxW>
     8be:	f0 e0       	ldi	r31, 0x00	; 0
     8c0:	ed 59       	subi	r30, 0x9D	; 157
     8c2:	fd 4f       	sbci	r31, 0xFD	; 253
     8c4:	90 83       	st	Z, r25
		break;
     8c6:	89 c2       	rjmp	.+1298   	; 0xdda <__stack+0x4db>
		case WRITE_SINGLE_REGISTER:
			myModbusFrame.errorCode = 0x86;
     8c8:	86 e8       	ldi	r24, 0x86	; 134
     8ca:	80 93 5d 02 	sts	0x025D, r24	; 0x80025d <myModbusFrame+0x2>
			
			//Direccion inicial
			myWord.ui8[1] = bufferRx[indexRxR++];
     8ce:	a0 91 59 02 	lds	r26, 0x0259	; 0x800259 <indexRxR>
     8d2:	e1 e0       	ldi	r30, 0x01	; 1
     8d4:	ea 0f       	add	r30, r26
     8d6:	e0 93 59 02 	sts	0x0259, r30	; 0x800259 <indexRxR>
     8da:	b0 e0       	ldi	r27, 0x00	; 0
     8dc:	af 5a       	subi	r26, 0xAF	; 175
     8de:	be 4f       	sbci	r27, 0xFE	; 254
     8e0:	8c 91       	ld	r24, X
     8e2:	c4 e5       	ldi	r28, 0x54	; 84
     8e4:	d2 e0       	ldi	r29, 0x02	; 2
     8e6:	89 83       	std	Y+1, r24	; 0x01
			myWord.ui8[0] = bufferRx[indexRxR++];
     8e8:	a1 e0       	ldi	r26, 0x01	; 1
     8ea:	ae 0f       	add	r26, r30
     8ec:	a0 93 59 02 	sts	0x0259, r26	; 0x800259 <indexRxR>
     8f0:	f0 e0       	ldi	r31, 0x00	; 0
     8f2:	ef 5a       	subi	r30, 0xAF	; 175
     8f4:	fe 4f       	sbci	r31, 0xFE	; 254
     8f6:	80 81       	ld	r24, Z
     8f8:	88 83       	st	Y, r24
			regAddress = myWord.ui16[0];
     8fa:	88 81       	ld	r24, Y
     8fc:	99 81       	ldd	r25, Y+1	; 0x01
			//Cantidad de registros
			myWord.ui8[1] = bufferRx[indexRxR++];
     8fe:	e1 e0       	ldi	r30, 0x01	; 1
     900:	ea 0f       	add	r30, r26
     902:	e0 93 59 02 	sts	0x0259, r30	; 0x800259 <indexRxR>
     906:	b0 e0       	ldi	r27, 0x00	; 0
     908:	af 5a       	subi	r26, 0xAF	; 175
     90a:	be 4f       	sbci	r27, 0xFE	; 254
     90c:	2c 91       	ld	r18, X
     90e:	29 83       	std	Y+1, r18	; 0x01
			myWord.ui8[0] = bufferRx[indexRxR++];
     910:	31 e0       	ldi	r19, 0x01	; 1
     912:	3e 0f       	add	r19, r30
     914:	30 93 59 02 	sts	0x0259, r19	; 0x800259 <indexRxR>
     918:	f0 e0       	ldi	r31, 0x00	; 0
     91a:	ef 5a       	subi	r30, 0xAF	; 175
     91c:	fe 4f       	sbci	r31, 0xFE	; 254
     91e:	30 81       	ld	r19, Z
     920:	38 83       	st	Y, r19
			regValue = myWord.ui16[0];
			
			//controlar direccion
			if((regAddress < SLAVE_ADDRESS) || (regAddress>END_CONFIG_ADDRESS && regAddress <START_EVENT_ADDRESS) || regAddress > END_EVENT_ADDRESS){
     922:	8f 3f       	cpi	r24, 0xFF	; 255
     924:	e3 e0       	ldi	r30, 0x03	; 3
     926:	9e 07       	cpc	r25, r30
     928:	50 f0       	brcs	.+20     	; 0x93e <__stack+0x3f>
     92a:	ac 01       	movw	r20, r24
     92c:	42 51       	subi	r20, 0x12	; 18
     92e:	54 40       	sbci	r21, 0x04	; 4
     930:	40 36       	cpi	r20, 0x60	; 96
     932:	53 40       	sbci	r21, 0x03	; 3
     934:	20 f0       	brcs	.+8      	; 0x93e <__stack+0x3f>
     936:	8f 39       	cpi	r24, 0x9F	; 159
     938:	38 e0       	ldi	r19, 0x08	; 8
     93a:	93 07       	cpc	r25, r19
     93c:	48 f0       	brcs	.+18     	; 0x950 <__stack+0x51>
				myModbusFrame.excepCode = INVALID_DATA_ADDRESS;
     93e:	82 e0       	ldi	r24, 0x02	; 2
     940:	80 93 5e 02 	sts	0x025E, r24	; 0x80025e <myModbusFrame+0x3>
				commFlags.iFlags.isExceptionCode = 1;
     944:	80 91 51 02 	lds	r24, 0x0251	; 0x800251 <commFlags>
     948:	88 60       	ori	r24, 0x08	; 8
     94a:	80 93 51 02 	sts	0x0251, r24	; 0x800251 <commFlags>
				return;
     94e:	45 c2       	rjmp	.+1162   	; 0xdda <__stack+0x4db>
			}
			
			*((uint8_t *)(regAddress)) = myWord.ui8[1];
     950:	dc 01       	movw	r26, r24
     952:	2c 93       	st	X, r18
			*((uint8_t *)(regAddress+1)) = myWord.ui8[0];
     954:	20 91 54 02 	lds	r18, 0x0254	; 0x800254 <myWord>
     958:	11 96       	adiw	r26, 0x01	; 1
     95a:	2c 93       	st	X, r18
		
			if(commFlags.iFlags.isBroadcast){
     95c:	20 91 51 02 	lds	r18, 0x0251	; 0x800251 <commFlags>
     960:	24 ff       	sbrs	r18, 4
     962:	05 c0       	rjmp	.+10     	; 0x96e <__stack+0x6f>
				commFlags.iFlags.isBroadcast = 0;
     964:	82 2f       	mov	r24, r18
     966:	8f 7e       	andi	r24, 0xEF	; 239
     968:	80 93 51 02 	sts	0x0251, r24	; 0x800251 <commFlags>
				return;
     96c:	36 c2       	rjmp	.+1132   	; 0xdda <__stack+0x4db>
			}
		
			bufferTx[indexTxW++] = (uint8_t)MODBUS_SLAVE_ADDRESS;
     96e:	a0 91 4b 01 	lds	r26, 0x014B	; 0x80014b <indexTxW>
     972:	e1 e0       	ldi	r30, 0x01	; 1
     974:	ea 0f       	add	r30, r26
     976:	b0 e0       	ldi	r27, 0x00	; 0
     978:	20 91 ff 03 	lds	r18, 0x03FF	; 0x8003ff <slaveAddress>
     97c:	ad 59       	subi	r26, 0x9D	; 157
     97e:	bd 4f       	sbci	r27, 0xFD	; 253
     980:	2c 93       	st	X, r18
			bufferTx[indexTxW++] = WRITE_SINGLE_REGISTER;
     982:	a1 e0       	ldi	r26, 0x01	; 1
     984:	ae 0f       	add	r26, r30
     986:	f0 e0       	ldi	r31, 0x00	; 0
     988:	ed 59       	subi	r30, 0x9D	; 157
     98a:	fd 4f       	sbci	r31, 0xFD	; 253
     98c:	26 e0       	ldi	r18, 0x06	; 6
     98e:	20 83       	st	Z, r18
			myWord.ui16[0] = regAddress;
     990:	c4 e5       	ldi	r28, 0x54	; 84
     992:	d2 e0       	ldi	r29, 0x02	; 2
     994:	99 83       	std	Y+1, r25	; 0x01
     996:	88 83       	st	Y, r24
			bufferTx[indexTxW++] = myWord.ui8[1];
     998:	e1 e0       	ldi	r30, 0x01	; 1
     99a:	ea 0f       	add	r30, r26
     99c:	b0 e0       	ldi	r27, 0x00	; 0
     99e:	29 81       	ldd	r18, Y+1	; 0x01
     9a0:	ad 59       	subi	r26, 0x9D	; 157
     9a2:	bd 4f       	sbci	r27, 0xFD	; 253
     9a4:	2c 93       	st	X, r18
			bufferTx[indexTxW++] = myWord.ui8[0];
     9a6:	a1 e0       	ldi	r26, 0x01	; 1
     9a8:	ae 0f       	add	r26, r30
     9aa:	f0 e0       	ldi	r31, 0x00	; 0
     9ac:	28 81       	ld	r18, Y
     9ae:	ed 59       	subi	r30, 0x9D	; 157
     9b0:	fd 4f       	sbci	r31, 0xFD	; 253
     9b2:	20 83       	st	Z, r18
			bufferTx[indexTxW++] = *((uint8_t *)(regAddress));
     9b4:	e1 e0       	ldi	r30, 0x01	; 1
     9b6:	ea 0f       	add	r30, r26
     9b8:	e0 93 4b 01 	sts	0x014B, r30	; 0x80014b <indexTxW>
     9bc:	b0 e0       	ldi	r27, 0x00	; 0
     9be:	ec 01       	movw	r28, r24
     9c0:	28 81       	ld	r18, Y
     9c2:	ad 59       	subi	r26, 0x9D	; 157
     9c4:	bd 4f       	sbci	r27, 0xFD	; 253
     9c6:	2c 93       	st	X, r18
			bufferTx[indexTxW++] = *((uint8_t *)(regAddress+1));
     9c8:	21 e0       	ldi	r18, 0x01	; 1
     9ca:	2e 0f       	add	r18, r30
     9cc:	20 93 4b 01 	sts	0x014B, r18	; 0x80014b <indexTxW>
     9d0:	f0 e0       	ldi	r31, 0x00	; 0
     9d2:	89 81       	ldd	r24, Y+1	; 0x01
     9d4:	ed 59       	subi	r30, 0x9D	; 157
     9d6:	fd 4f       	sbci	r31, 0xFD	; 253
     9d8:	80 83       	st	Z, r24
		
			for(uint8_t i = indexTxR; i < indexTxW;i++){
     9da:	c0 91 52 02 	lds	r28, 0x0252	; 0x800252 <indexTxR>
     9de:	08 c0       	rjmp	.+16     	; 0x9f0 <__stack+0xf1>
				MODBUS_CalculateCRC(bufferTx[i]);
     9e0:	ec 2f       	mov	r30, r28
     9e2:	f0 e0       	ldi	r31, 0x00	; 0
     9e4:	ed 59       	subi	r30, 0x9D	; 157
     9e6:	fd 4f       	sbci	r31, 0xFD	; 253
     9e8:	80 81       	ld	r24, Z
     9ea:	0e 94 5b 02 	call	0x4b6	; 0x4b6 <MODBUS_CalculateCRC>
			bufferTx[indexTxW++] = myWord.ui8[1];
			bufferTx[indexTxW++] = myWord.ui8[0];
			bufferTx[indexTxW++] = *((uint8_t *)(regAddress));
			bufferTx[indexTxW++] = *((uint8_t *)(regAddress+1));
		
			for(uint8_t i = indexTxR; i < indexTxW;i++){
     9ee:	cf 5f       	subi	r28, 0xFF	; 255
     9f0:	e0 91 4b 01 	lds	r30, 0x014B	; 0x80014b <indexTxW>
     9f4:	ce 17       	cp	r28, r30
     9f6:	a0 f3       	brcs	.-24     	; 0x9e0 <__stack+0xe1>
				MODBUS_CalculateCRC(bufferTx[i]);
			}
			myWord.ui16[0] = myModbusFrame.crcSlave;
     9f8:	90 91 5f 02 	lds	r25, 0x025F	; 0x80025f <myModbusFrame+0x4>
     9fc:	80 91 60 02 	lds	r24, 0x0260	; 0x800260 <myModbusFrame+0x5>
     a00:	a4 e5       	ldi	r26, 0x54	; 84
     a02:	b2 e0       	ldi	r27, 0x02	; 2
     a04:	9c 93       	st	X, r25
     a06:	11 96       	adiw	r26, 0x01	; 1
     a08:	8c 93       	st	X, r24
     a0a:	11 97       	sbiw	r26, 0x01	; 1
			bufferTx[indexTxW++] = myWord.ui8[0];
     a0c:	81 e0       	ldi	r24, 0x01	; 1
     a0e:	8e 0f       	add	r24, r30
     a10:	f0 e0       	ldi	r31, 0x00	; 0
     a12:	ed 59       	subi	r30, 0x9D	; 157
     a14:	fd 4f       	sbci	r31, 0xFD	; 253
     a16:	90 83       	st	Z, r25
			bufferTx[indexTxW++] = myWord.ui8[1];
     a18:	91 e0       	ldi	r25, 0x01	; 1
     a1a:	98 0f       	add	r25, r24
     a1c:	90 93 4b 01 	sts	0x014B, r25	; 0x80014b <indexTxW>
     a20:	e8 2f       	mov	r30, r24
     a22:	f0 e0       	ldi	r31, 0x00	; 0
     a24:	11 96       	adiw	r26, 0x01	; 1
     a26:	8c 91       	ld	r24, X
     a28:	ed 59       	subi	r30, 0x9D	; 157
     a2a:	fd 4f       	sbci	r31, 0xFD	; 253
     a2c:	80 83       	st	Z, r24
		break;
     a2e:	d5 c1       	rjmp	.+938    	; 0xdda <__stack+0x4db>
		case DIAGNOSTICS:
			myModbusFrame.errorCode = 0x88;
     a30:	88 e8       	ldi	r24, 0x88	; 136
     a32:	80 93 5d 02 	sts	0x025D, r24	; 0x80025d <myModbusFrame+0x2>
			if(commFlags.iFlags.isBroadcast){
     a36:	80 91 51 02 	lds	r24, 0x0251	; 0x800251 <commFlags>
     a3a:	84 ff       	sbrs	r24, 4
     a3c:	04 c0       	rjmp	.+8      	; 0xa46 <__stack+0x147>
				commFlags.iFlags.isBroadcast = 0;
     a3e:	8f 7e       	andi	r24, 0xEF	; 239
     a40:	80 93 51 02 	sts	0x0251, r24	; 0x800251 <commFlags>
				return;
     a44:	ca c1       	rjmp	.+916    	; 0xdda <__stack+0x4db>
			}
			//Subfuncion
			myWord.ui8[1] = bufferRx[indexRxR++];
     a46:	a0 91 59 02 	lds	r26, 0x0259	; 0x800259 <indexRxR>
     a4a:	e1 e0       	ldi	r30, 0x01	; 1
     a4c:	ea 0f       	add	r30, r26
     a4e:	e0 93 59 02 	sts	0x0259, r30	; 0x800259 <indexRxR>
     a52:	b0 e0       	ldi	r27, 0x00	; 0
     a54:	af 5a       	subi	r26, 0xAF	; 175
     a56:	be 4f       	sbci	r27, 0xFE	; 254
     a58:	8c 91       	ld	r24, X
     a5a:	c4 e5       	ldi	r28, 0x54	; 84
     a5c:	d2 e0       	ldi	r29, 0x02	; 2
     a5e:	89 83       	std	Y+1, r24	; 0x01
			myWord.ui8[0] = bufferRx[indexRxR++];
     a60:	a1 e0       	ldi	r26, 0x01	; 1
     a62:	ae 0f       	add	r26, r30
     a64:	a0 93 59 02 	sts	0x0259, r26	; 0x800259 <indexRxR>
     a68:	f0 e0       	ldi	r31, 0x00	; 0
     a6a:	ef 5a       	subi	r30, 0xAF	; 175
     a6c:	fe 4f       	sbci	r31, 0xFE	; 254
     a6e:	80 81       	ld	r24, Z
     a70:	88 83       	st	Y, r24
			subfunction = myWord.ui16[0];
     a72:	88 81       	ld	r24, Y
     a74:	99 81       	ldd	r25, Y+1	; 0x01
			myWord.ui8[1] = bufferRx[indexRxR++];
     a76:	e1 e0       	ldi	r30, 0x01	; 1
     a78:	ea 0f       	add	r30, r26
     a7a:	e0 93 59 02 	sts	0x0259, r30	; 0x800259 <indexRxR>
     a7e:	b0 e0       	ldi	r27, 0x00	; 0
     a80:	af 5a       	subi	r26, 0xAF	; 175
     a82:	be 4f       	sbci	r27, 0xFE	; 254
     a84:	2c 91       	ld	r18, X
     a86:	29 83       	std	Y+1, r18	; 0x01
			myWord.ui8[0] = bufferRx[indexRxR++];
     a88:	21 e0       	ldi	r18, 0x01	; 1
     a8a:	2e 0f       	add	r18, r30
     a8c:	20 93 59 02 	sts	0x0259, r18	; 0x800259 <indexRxR>
     a90:	f0 e0       	ldi	r31, 0x00	; 0
     a92:	ef 5a       	subi	r30, 0xAF	; 175
     a94:	fe 4f       	sbci	r31, 0xFE	; 254
     a96:	20 81       	ld	r18, Z
     a98:	28 83       	st	Y, r18
			regValue = myWord.ui16[0];
     a9a:	28 81       	ld	r18, Y
     a9c:	39 81       	ldd	r19, Y+1	; 0x01
			
			switch(subfunction){
     a9e:	81 30       	cpi	r24, 0x01	; 1
     aa0:	91 05       	cpc	r25, r1
     aa2:	29 f0       	breq	.+10     	; 0xaae <__stack+0x1af>
     aa4:	98 f1       	brcs	.+102    	; 0xb0c <__stack+0x20d>
     aa6:	82 30       	cpi	r24, 0x02	; 2
     aa8:	91 05       	cpc	r25, r1
     aaa:	b9 f0       	breq	.+46     	; 0xada <__stack+0x1db>
     aac:	22 c0       	rjmp	.+68     	; 0xaf2 <__stack+0x1f3>
				case RETURN_QUERY_DATA:
				//Eco
				break;
				case RESTART_COMMUNICATIONS:
					if(regValue == 0x0000 || regValue == 0xFF00){
     aae:	21 15       	cp	r18, r1
     ab0:	31 05       	cpc	r19, r1
     ab2:	21 f0       	breq	.+8      	; 0xabc <__stack+0x1bd>
     ab4:	21 15       	cp	r18, r1
     ab6:	df ef       	ldi	r29, 0xFF	; 255
     ab8:	3d 07       	cpc	r19, r29
     aba:	31 f4       	brne	.+12     	; 0xac8 <__stack+0x1c9>
						//Eco
						commFlags.iFlags.restartComms = 1; ////
     abc:	40 91 51 02 	lds	r20, 0x0251	; 0x800251 <commFlags>
     ac0:	40 64       	ori	r20, 0x40	; 64
     ac2:	40 93 51 02 	sts	0x0251, r20	; 0x800251 <commFlags>
						}else{
						myModbusFrame.excepCode = INVALID_DATA_VALUE;
						commFlags.iFlags.isExceptionCode = 1;
						return;
					}
				break;
     ac6:	22 c0       	rjmp	.+68     	; 0xb0c <__stack+0x20d>
				case RESTART_COMMUNICATIONS:
					if(regValue == 0x0000 || regValue == 0xFF00){
						//Eco
						commFlags.iFlags.restartComms = 1; ////
						}else{
						myModbusFrame.excepCode = INVALID_DATA_VALUE;
     ac8:	83 e0       	ldi	r24, 0x03	; 3
     aca:	80 93 5e 02 	sts	0x025E, r24	; 0x80025e <myModbusFrame+0x3>
						commFlags.iFlags.isExceptionCode = 1;
     ace:	80 91 51 02 	lds	r24, 0x0251	; 0x800251 <commFlags>
     ad2:	88 60       	ori	r24, 0x08	; 8
     ad4:	80 93 51 02 	sts	0x0251, r24	; 0x800251 <commFlags>
						return;
     ad8:	80 c1       	rjmp	.+768    	; 0xdda <__stack+0x4db>
					}
				break;
				case RETURN_DIAGNOSTICS_REGISTER:
					if(regValue == 0x0000){
     ada:	21 15       	cp	r18, r1
     adc:	31 05       	cpc	r19, r1
     ade:	b1 f0       	breq	.+44     	; 0xb0c <__stack+0x20d>
						//Registro de diagnostico
						//regValue  = diagnosticsRegister;
						// regValue |= diagnosticsRegister;
						}else{
						myModbusFrame.excepCode = INVALID_DATA_VALUE;
     ae0:	83 e0       	ldi	r24, 0x03	; 3
     ae2:	80 93 5e 02 	sts	0x025E, r24	; 0x80025e <myModbusFrame+0x3>
						commFlags.iFlags.isExceptionCode = 1;
     ae6:	80 91 51 02 	lds	r24, 0x0251	; 0x800251 <commFlags>
     aea:	88 60       	ori	r24, 0x08	; 8
     aec:	80 93 51 02 	sts	0x0251, r24	; 0x800251 <commFlags>
						return;
     af0:	74 c1       	rjmp	.+744    	; 0xdda <__stack+0x4db>
					}
				break;
				default:
					myModbusFrame.excepCode = INVALID_FUNCTION;
     af2:	81 e0       	ldi	r24, 0x01	; 1
     af4:	80 93 5e 02 	sts	0x025E, r24	; 0x80025e <myModbusFrame+0x3>
					commFlags.iFlags.isExceptionCode = 1;
     af8:	80 91 51 02 	lds	r24, 0x0251	; 0x800251 <commFlags>
     afc:	88 60       	ori	r24, 0x08	; 8
     afe:	80 93 51 02 	sts	0x0251, r24	; 0x800251 <commFlags>
					indexRxR = indexRxW;
     b02:	80 91 5a 02 	lds	r24, 0x025A	; 0x80025a <indexRxW>
     b06:	80 93 59 02 	sts	0x0259, r24	; 0x800259 <indexRxR>
				return;
     b0a:	67 c1       	rjmp	.+718    	; 0xdda <__stack+0x4db>
			}
				bufferTx[indexTxW++] = (uint8_t)MODBUS_SLAVE_ADDRESS;
     b0c:	a0 91 4b 01 	lds	r26, 0x014B	; 0x80014b <indexTxW>
     b10:	e1 e0       	ldi	r30, 0x01	; 1
     b12:	ea 0f       	add	r30, r26
     b14:	b0 e0       	ldi	r27, 0x00	; 0
     b16:	40 91 ff 03 	lds	r20, 0x03FF	; 0x8003ff <slaveAddress>
     b1a:	ad 59       	subi	r26, 0x9D	; 157
     b1c:	bd 4f       	sbci	r27, 0xFD	; 253
     b1e:	4c 93       	st	X, r20
				bufferTx[indexTxW++] = DIAGNOSTICS;
     b20:	c1 e0       	ldi	r28, 0x01	; 1
     b22:	ce 0f       	add	r28, r30
     b24:	f0 e0       	ldi	r31, 0x00	; 0
     b26:	ed 59       	subi	r30, 0x9D	; 157
     b28:	fd 4f       	sbci	r31, 0xFD	; 253
     b2a:	48 e0       	ldi	r20, 0x08	; 8
     b2c:	40 83       	st	Z, r20
				myWord.ui16[0] = subfunction;
     b2e:	a4 e5       	ldi	r26, 0x54	; 84
     b30:	b2 e0       	ldi	r27, 0x02	; 2
     b32:	11 96       	adiw	r26, 0x01	; 1
     b34:	9c 93       	st	X, r25
     b36:	8e 93       	st	-X, r24
				bufferTx[indexTxW++] = myWord.ui8[1];
     b38:	e1 e0       	ldi	r30, 0x01	; 1
     b3a:	ec 0f       	add	r30, r28
     b3c:	d0 e0       	ldi	r29, 0x00	; 0
     b3e:	11 96       	adiw	r26, 0x01	; 1
     b40:	8c 91       	ld	r24, X
     b42:	11 97       	sbiw	r26, 0x01	; 1
     b44:	cd 59       	subi	r28, 0x9D	; 157
     b46:	dd 4f       	sbci	r29, 0xFD	; 253
     b48:	88 83       	st	Y, r24
				bufferTx[indexTxW++] = myWord.ui8[0];
     b4a:	c1 e0       	ldi	r28, 0x01	; 1
     b4c:	ce 0f       	add	r28, r30
     b4e:	f0 e0       	ldi	r31, 0x00	; 0
     b50:	8c 91       	ld	r24, X
     b52:	ed 59       	subi	r30, 0x9D	; 157
     b54:	fd 4f       	sbci	r31, 0xFD	; 253
     b56:	80 83       	st	Z, r24
				myWord.ui16[0] = regValue;
     b58:	11 96       	adiw	r26, 0x01	; 1
     b5a:	3c 93       	st	X, r19
     b5c:	2e 93       	st	-X, r18
				bufferTx[indexTxW++] = myWord.ui8[1];
     b5e:	e1 e0       	ldi	r30, 0x01	; 1
     b60:	ec 0f       	add	r30, r28
     b62:	d0 e0       	ldi	r29, 0x00	; 0
     b64:	11 96       	adiw	r26, 0x01	; 1
     b66:	8c 91       	ld	r24, X
     b68:	11 97       	sbiw	r26, 0x01	; 1
     b6a:	cd 59       	subi	r28, 0x9D	; 157
     b6c:	dd 4f       	sbci	r29, 0xFD	; 253
     b6e:	88 83       	st	Y, r24
				bufferTx[indexTxW++] = myWord.ui8[0];
     b70:	81 e0       	ldi	r24, 0x01	; 1
     b72:	8e 0f       	add	r24, r30
     b74:	80 93 4b 01 	sts	0x014B, r24	; 0x80014b <indexTxW>
     b78:	f0 e0       	ldi	r31, 0x00	; 0
     b7a:	8c 91       	ld	r24, X
     b7c:	ed 59       	subi	r30, 0x9D	; 157
     b7e:	fd 4f       	sbci	r31, 0xFD	; 253
     b80:	80 83       	st	Z, r24
				for(uint8_t i=indexTxR; i < indexTxW; i++){
     b82:	c0 91 52 02 	lds	r28, 0x0252	; 0x800252 <indexTxR>
     b86:	08 c0       	rjmp	.+16     	; 0xb98 <__stack+0x299>
					MODBUS_CalculateCRC(bufferTx[i]);
     b88:	ec 2f       	mov	r30, r28
     b8a:	f0 e0       	ldi	r31, 0x00	; 0
     b8c:	ed 59       	subi	r30, 0x9D	; 157
     b8e:	fd 4f       	sbci	r31, 0xFD	; 253
     b90:	80 81       	ld	r24, Z
     b92:	0e 94 5b 02 	call	0x4b6	; 0x4b6 <MODBUS_CalculateCRC>
				bufferTx[indexTxW++] = myWord.ui8[1];
				bufferTx[indexTxW++] = myWord.ui8[0];
				myWord.ui16[0] = regValue;
				bufferTx[indexTxW++] = myWord.ui8[1];
				bufferTx[indexTxW++] = myWord.ui8[0];
				for(uint8_t i=indexTxR; i < indexTxW; i++){
     b96:	cf 5f       	subi	r28, 0xFF	; 255
     b98:	e0 91 4b 01 	lds	r30, 0x014B	; 0x80014b <indexTxW>
     b9c:	ce 17       	cp	r28, r30
     b9e:	a0 f3       	brcs	.-24     	; 0xb88 <__stack+0x289>
					MODBUS_CalculateCRC(bufferTx[i]);
				}
				myWord.ui16[0] = myModbusFrame.crcSlave;
     ba0:	90 91 5f 02 	lds	r25, 0x025F	; 0x80025f <myModbusFrame+0x4>
     ba4:	80 91 60 02 	lds	r24, 0x0260	; 0x800260 <myModbusFrame+0x5>
     ba8:	a4 e5       	ldi	r26, 0x54	; 84
     baa:	b2 e0       	ldi	r27, 0x02	; 2
     bac:	9c 93       	st	X, r25
     bae:	11 96       	adiw	r26, 0x01	; 1
     bb0:	8c 93       	st	X, r24
     bb2:	11 97       	sbiw	r26, 0x01	; 1
				bufferTx[indexTxW++] = myWord.ui8[0];
     bb4:	81 e0       	ldi	r24, 0x01	; 1
     bb6:	8e 0f       	add	r24, r30
     bb8:	f0 e0       	ldi	r31, 0x00	; 0
     bba:	ed 59       	subi	r30, 0x9D	; 157
     bbc:	fd 4f       	sbci	r31, 0xFD	; 253
     bbe:	90 83       	st	Z, r25
				bufferTx[indexTxW++] = myWord.ui8[1];
     bc0:	91 e0       	ldi	r25, 0x01	; 1
     bc2:	98 0f       	add	r25, r24
     bc4:	90 93 4b 01 	sts	0x014B, r25	; 0x80014b <indexTxW>
     bc8:	e8 2f       	mov	r30, r24
     bca:	f0 e0       	ldi	r31, 0x00	; 0
     bcc:	11 96       	adiw	r26, 0x01	; 1
     bce:	8c 91       	ld	r24, X
     bd0:	ed 59       	subi	r30, 0x9D	; 157
     bd2:	fd 4f       	sbci	r31, 0xFD	; 253
     bd4:	80 83       	st	Z, r24
				break;
     bd6:	01 c1       	rjmp	.+514    	; 0xdda <__stack+0x4db>
		case WRITE_MULTIPLE_REGISTERS: //Incompleto
			myModbusFrame.errorCode = 0x90;
     bd8:	80 e9       	ldi	r24, 0x90	; 144
     bda:	80 93 5d 02 	sts	0x025D, r24	; 0x80025d <myModbusFrame+0x2>
			//Direccion inicial
			myWord.ui8[1] = bufferRx[indexRxR++];
     bde:	e0 91 59 02 	lds	r30, 0x0259	; 0x800259 <indexRxR>
     be2:	a1 e0       	ldi	r26, 0x01	; 1
     be4:	ae 0f       	add	r26, r30
     be6:	a0 93 59 02 	sts	0x0259, r26	; 0x800259 <indexRxR>
     bea:	f0 e0       	ldi	r31, 0x00	; 0
     bec:	ef 5a       	subi	r30, 0xAF	; 175
     bee:	fe 4f       	sbci	r31, 0xFE	; 254
     bf0:	80 81       	ld	r24, Z
     bf2:	c4 e5       	ldi	r28, 0x54	; 84
     bf4:	d2 e0       	ldi	r29, 0x02	; 2
     bf6:	89 83       	std	Y+1, r24	; 0x01
			myWord.ui8[0] = bufferRx[indexRxR++];
     bf8:	e1 e0       	ldi	r30, 0x01	; 1
     bfa:	ea 0f       	add	r30, r26
     bfc:	e0 93 59 02 	sts	0x0259, r30	; 0x800259 <indexRxR>
     c00:	b0 e0       	ldi	r27, 0x00	; 0
     c02:	af 5a       	subi	r26, 0xAF	; 175
     c04:	be 4f       	sbci	r27, 0xFE	; 254
     c06:	8c 91       	ld	r24, X
     c08:	88 83       	st	Y, r24
			regAddress = myWord.ui16[0];
     c0a:	88 81       	ld	r24, Y
     c0c:	99 81       	ldd	r25, Y+1	; 0x01
			//Cantidad de registros
			myWord.ui8[1] = bufferRx[indexRxR++];
     c0e:	a1 e0       	ldi	r26, 0x01	; 1
     c10:	ae 0f       	add	r26, r30
     c12:	a0 93 59 02 	sts	0x0259, r26	; 0x800259 <indexRxR>
     c16:	f0 e0       	ldi	r31, 0x00	; 0
     c18:	ef 5a       	subi	r30, 0xAF	; 175
     c1a:	fe 4f       	sbci	r31, 0xFE	; 254
     c1c:	20 81       	ld	r18, Z
     c1e:	29 83       	std	Y+1, r18	; 0x01
			myWord.ui8[0] = bufferRx[indexRxR++];
     c20:	e1 e0       	ldi	r30, 0x01	; 1
     c22:	ea 0f       	add	r30, r26
     c24:	e0 93 59 02 	sts	0x0259, r30	; 0x800259 <indexRxR>
     c28:	b0 e0       	ldi	r27, 0x00	; 0
     c2a:	af 5a       	subi	r26, 0xAF	; 175
     c2c:	be 4f       	sbci	r27, 0xFE	; 254
     c2e:	2c 91       	ld	r18, X
     c30:	28 83       	st	Y, r18
			regCant = myWord.ui16[0];
     c32:	48 81       	ld	r20, Y
     c34:	59 81       	ldd	r21, Y+1	; 0x01
			//Cantidad de bytes
			byteCount = bufferRx[indexRxR++];
     c36:	21 e0       	ldi	r18, 0x01	; 1
     c38:	2e 0f       	add	r18, r30
     c3a:	20 93 59 02 	sts	0x0259, r18	; 0x800259 <indexRxR>
     c3e:	f0 e0       	ldi	r31, 0x00	; 0
     c40:	ef 5a       	subi	r30, 0xAF	; 175
     c42:	fe 4f       	sbci	r31, 0xFE	; 254
     c44:	20 81       	ld	r18, Z
		
			//Controlar cantidad de registros
			if((regCant < 1 || regCant > 0x007B) || (byteCount != (regCant*2))){
     c46:	ba 01       	movw	r22, r20
     c48:	61 50       	subi	r22, 0x01	; 1
     c4a:	71 09       	sbc	r23, r1
     c4c:	6b 37       	cpi	r22, 0x7B	; 123
     c4e:	71 05       	cpc	r23, r1
     c50:	38 f4       	brcc	.+14     	; 0xc60 <__stack+0x361>
     c52:	30 e0       	ldi	r19, 0x00	; 0
     c54:	ba 01       	movw	r22, r20
     c56:	66 0f       	add	r22, r22
     c58:	77 1f       	adc	r23, r23
     c5a:	26 17       	cp	r18, r22
     c5c:	37 07       	cpc	r19, r23
     c5e:	49 f0       	breq	.+18     	; 0xc72 <__stack+0x373>
				myModbusFrame.excepCode = INVALID_DATA_VALUE;
     c60:	83 e0       	ldi	r24, 0x03	; 3
     c62:	80 93 5e 02 	sts	0x025E, r24	; 0x80025e <myModbusFrame+0x3>
				commFlags.iFlags.isExceptionCode = 1;
     c66:	80 91 51 02 	lds	r24, 0x0251	; 0x800251 <commFlags>
     c6a:	88 60       	ori	r24, 0x08	; 8
     c6c:	80 93 51 02 	sts	0x0251, r24	; 0x800251 <commFlags>
				return;
     c70:	b4 c0       	rjmp	.+360    	; 0xdda <__stack+0x4db>
			}

			//Controlar validez direcciones
			if((regAddress < START_CONFIG_ADDRESS) || (regAddress>END_CONFIG_ADDRESS)){
     c72:	9c 01       	movw	r18, r24
     c74:	34 50       	subi	r19, 0x04	; 4
     c76:	22 31       	cpi	r18, 0x12	; 18
     c78:	31 05       	cpc	r19, r1
     c7a:	48 f0       	brcs	.+18     	; 0xc8e <__stack+0x38f>
				myModbusFrame.excepCode = INVALID_DATA_ADDRESS;
     c7c:	82 e0       	ldi	r24, 0x02	; 2
     c7e:	80 93 5e 02 	sts	0x025E, r24	; 0x80025e <myModbusFrame+0x3>
				commFlags.iFlags.isExceptionCode = 1;
     c82:	80 91 51 02 	lds	r24, 0x0251	; 0x800251 <commFlags>
     c86:	88 60       	ori	r24, 0x08	; 8
     c88:	80 93 51 02 	sts	0x0251, r24	; 0x800251 <commFlags>
				return;
     c8c:	a6 c0       	rjmp	.+332    	; 0xdda <__stack+0x4db>
			}else{
				if(regAddress+((regCant -1)*2) > END_CONFIG_ADDRESS){
     c8e:	9a 01       	movw	r18, r20
     c90:	21 50       	subi	r18, 0x01	; 1
     c92:	30 48       	sbci	r19, 0x80	; 128
     c94:	22 0f       	add	r18, r18
     c96:	33 1f       	adc	r19, r19
     c98:	28 0f       	add	r18, r24
     c9a:	39 1f       	adc	r19, r25
     c9c:	22 31       	cpi	r18, 0x12	; 18
     c9e:	34 40       	sbci	r19, 0x04	; 4
     ca0:	b8 f0       	brcs	.+46     	; 0xcd0 <__stack+0x3d1>
					//error address
					myModbusFrame.excepCode = INVALID_DATA_ADDRESS;
     ca2:	82 e0       	ldi	r24, 0x02	; 2
     ca4:	80 93 5e 02 	sts	0x025E, r24	; 0x80025e <myModbusFrame+0x3>
					commFlags.iFlags.isExceptionCode = 1;
     ca8:	80 91 51 02 	lds	r24, 0x0251	; 0x800251 <commFlags>
     cac:	88 60       	ori	r24, 0x08	; 8
     cae:	80 93 51 02 	sts	0x0251, r24	; 0x800251 <commFlags>
					return;
     cb2:	93 c0       	rjmp	.+294    	; 0xdda <__stack+0x4db>
				}
			}

			for(uint8_t i=0; i<(regCant*2);i++){
				*((uint8_t *)(regAddress)) = bufferRx[indexRxR++];
     cb4:	e0 91 59 02 	lds	r30, 0x0259	; 0x800259 <indexRxR>
     cb8:	31 e0       	ldi	r19, 0x01	; 1
     cba:	3e 0f       	add	r19, r30
     cbc:	30 93 59 02 	sts	0x0259, r19	; 0x800259 <indexRxR>
     cc0:	f0 e0       	ldi	r31, 0x00	; 0
     cc2:	ef 5a       	subi	r30, 0xAF	; 175
     cc4:	fe 4f       	sbci	r31, 0xFE	; 254
     cc6:	30 81       	ld	r19, Z
     cc8:	dc 01       	movw	r26, r24
     cca:	3c 93       	st	X, r19
					commFlags.iFlags.isExceptionCode = 1;
					return;
				}
			}

			for(uint8_t i=0; i<(regCant*2);i++){
     ccc:	2f 5f       	subi	r18, 0xFF	; 255
     cce:	01 c0       	rjmp	.+2      	; 0xcd2 <__stack+0x3d3>
     cd0:	20 e0       	ldi	r18, 0x00	; 0
     cd2:	e2 2f       	mov	r30, r18
     cd4:	f0 e0       	ldi	r31, 0x00	; 0
     cd6:	e6 17       	cp	r30, r22
     cd8:	f7 07       	cpc	r31, r23
     cda:	60 f3       	brcs	.-40     	; 0xcb4 <__stack+0x3b5>
				*((uint8_t *)(regAddress)) = bufferRx[indexRxR++];
			}
		
			if(commFlags.iFlags.isBroadcast){
     cdc:	20 91 51 02 	lds	r18, 0x0251	; 0x800251 <commFlags>
     ce0:	24 ff       	sbrs	r18, 4
     ce2:	05 c0       	rjmp	.+10     	; 0xcee <__stack+0x3ef>
				commFlags.iFlags.isBroadcast = 0;
     ce4:	82 2f       	mov	r24, r18
     ce6:	8f 7e       	andi	r24, 0xEF	; 239
     ce8:	80 93 51 02 	sts	0x0251, r24	; 0x800251 <commFlags>
				return;
     cec:	76 c0       	rjmp	.+236    	; 0xdda <__stack+0x4db>
			}
			bufferTx[indexTxW++] = (uint8_t)MODBUS_SLAVE_ADDRESS;
     cee:	a0 91 4b 01 	lds	r26, 0x014B	; 0x80014b <indexTxW>
     cf2:	e1 e0       	ldi	r30, 0x01	; 1
     cf4:	ea 0f       	add	r30, r26
     cf6:	b0 e0       	ldi	r27, 0x00	; 0
     cf8:	20 91 ff 03 	lds	r18, 0x03FF	; 0x8003ff <slaveAddress>
     cfc:	ad 59       	subi	r26, 0x9D	; 157
     cfe:	bd 4f       	sbci	r27, 0xFD	; 253
     d00:	2c 93       	st	X, r18
			bufferTx[indexTxW++] = WRITE_MULTIPLE_REGISTERS;
     d02:	c1 e0       	ldi	r28, 0x01	; 1
     d04:	ce 0f       	add	r28, r30
     d06:	f0 e0       	ldi	r31, 0x00	; 0
     d08:	ed 59       	subi	r30, 0x9D	; 157
     d0a:	fd 4f       	sbci	r31, 0xFD	; 253
     d0c:	20 e1       	ldi	r18, 0x10	; 16
     d0e:	20 83       	st	Z, r18
			myWord.ui16[0] = regAddress;
     d10:	a4 e5       	ldi	r26, 0x54	; 84
     d12:	b2 e0       	ldi	r27, 0x02	; 2
     d14:	11 96       	adiw	r26, 0x01	; 1
     d16:	9c 93       	st	X, r25
     d18:	8e 93       	st	-X, r24
			bufferTx[indexTxW++] = myWord.ui8[1];
     d1a:	e1 e0       	ldi	r30, 0x01	; 1
     d1c:	ec 0f       	add	r30, r28
     d1e:	d0 e0       	ldi	r29, 0x00	; 0
     d20:	11 96       	adiw	r26, 0x01	; 1
     d22:	8c 91       	ld	r24, X
     d24:	11 97       	sbiw	r26, 0x01	; 1
     d26:	cd 59       	subi	r28, 0x9D	; 157
     d28:	dd 4f       	sbci	r29, 0xFD	; 253
     d2a:	88 83       	st	Y, r24
			bufferTx[indexTxW++] = myWord.ui8[0];
     d2c:	c1 e0       	ldi	r28, 0x01	; 1
     d2e:	ce 0f       	add	r28, r30
     d30:	f0 e0       	ldi	r31, 0x00	; 0
     d32:	8c 91       	ld	r24, X
     d34:	ed 59       	subi	r30, 0x9D	; 157
     d36:	fd 4f       	sbci	r31, 0xFD	; 253
     d38:	80 83       	st	Z, r24
			myWord.ui16[0] = regCant;
     d3a:	11 96       	adiw	r26, 0x01	; 1
     d3c:	5c 93       	st	X, r21
     d3e:	4e 93       	st	-X, r20
			bufferTx[indexTxW++] = myWord.ui8[1];
     d40:	e1 e0       	ldi	r30, 0x01	; 1
     d42:	ec 0f       	add	r30, r28
     d44:	d0 e0       	ldi	r29, 0x00	; 0
     d46:	11 96       	adiw	r26, 0x01	; 1
     d48:	8c 91       	ld	r24, X
     d4a:	11 97       	sbiw	r26, 0x01	; 1
     d4c:	cd 59       	subi	r28, 0x9D	; 157
     d4e:	dd 4f       	sbci	r29, 0xFD	; 253
     d50:	88 83       	st	Y, r24
			bufferTx[indexTxW++] = myWord.ui8[0];
     d52:	81 e0       	ldi	r24, 0x01	; 1
     d54:	8e 0f       	add	r24, r30
     d56:	80 93 4b 01 	sts	0x014B, r24	; 0x80014b <indexTxW>
     d5a:	f0 e0       	ldi	r31, 0x00	; 0
     d5c:	8c 91       	ld	r24, X
     d5e:	ed 59       	subi	r30, 0x9D	; 157
     d60:	fd 4f       	sbci	r31, 0xFD	; 253
     d62:	80 83       	st	Z, r24
			for(uint8_t i = indexTxR; i < indexTxW;i++){
     d64:	c0 91 52 02 	lds	r28, 0x0252	; 0x800252 <indexTxR>
     d68:	08 c0       	rjmp	.+16     	; 0xd7a <__stack+0x47b>
				MODBUS_CalculateCRC(bufferTx[i]);
     d6a:	ec 2f       	mov	r30, r28
     d6c:	f0 e0       	ldi	r31, 0x00	; 0
     d6e:	ed 59       	subi	r30, 0x9D	; 157
     d70:	fd 4f       	sbci	r31, 0xFD	; 253
     d72:	80 81       	ld	r24, Z
     d74:	0e 94 5b 02 	call	0x4b6	; 0x4b6 <MODBUS_CalculateCRC>
			bufferTx[indexTxW++] = myWord.ui8[1];
			bufferTx[indexTxW++] = myWord.ui8[0];
			myWord.ui16[0] = regCant;
			bufferTx[indexTxW++] = myWord.ui8[1];
			bufferTx[indexTxW++] = myWord.ui8[0];
			for(uint8_t i = indexTxR; i < indexTxW;i++){
     d78:	cf 5f       	subi	r28, 0xFF	; 255
     d7a:	e0 91 4b 01 	lds	r30, 0x014B	; 0x80014b <indexTxW>
     d7e:	ce 17       	cp	r28, r30
     d80:	a0 f3       	brcs	.-24     	; 0xd6a <__stack+0x46b>
				MODBUS_CalculateCRC(bufferTx[i]);
			}
			myWord.ui16[0] = myModbusFrame.crcSlave;
     d82:	90 91 5f 02 	lds	r25, 0x025F	; 0x80025f <myModbusFrame+0x4>
     d86:	80 91 60 02 	lds	r24, 0x0260	; 0x800260 <myModbusFrame+0x5>
     d8a:	a4 e5       	ldi	r26, 0x54	; 84
     d8c:	b2 e0       	ldi	r27, 0x02	; 2
     d8e:	9c 93       	st	X, r25
     d90:	11 96       	adiw	r26, 0x01	; 1
     d92:	8c 93       	st	X, r24
     d94:	11 97       	sbiw	r26, 0x01	; 1
			bufferTx[indexTxW++] = myWord.ui8[0];
     d96:	81 e0       	ldi	r24, 0x01	; 1
     d98:	8e 0f       	add	r24, r30
     d9a:	f0 e0       	ldi	r31, 0x00	; 0
     d9c:	ed 59       	subi	r30, 0x9D	; 157
     d9e:	fd 4f       	sbci	r31, 0xFD	; 253
     da0:	90 83       	st	Z, r25
			bufferTx[indexTxW++] = myWord.ui8[1];
     da2:	91 e0       	ldi	r25, 0x01	; 1
     da4:	98 0f       	add	r25, r24
     da6:	90 93 4b 01 	sts	0x014B, r25	; 0x80014b <indexTxW>
     daa:	e8 2f       	mov	r30, r24
     dac:	f0 e0       	ldi	r31, 0x00	; 0
     dae:	11 96       	adiw	r26, 0x01	; 1
     db0:	8c 91       	ld	r24, X
     db2:	ed 59       	subi	r30, 0x9D	; 157
     db4:	fd 4f       	sbci	r31, 0xFD	; 253
     db6:	80 83       	st	Z, r24
		break;
     db8:	10 c0       	rjmp	.+32     	; 0xdda <__stack+0x4db>
		default:
			if(commFlags.iFlags.isBroadcast){
     dba:	80 91 51 02 	lds	r24, 0x0251	; 0x800251 <commFlags>
     dbe:	84 fd       	sbrc	r24, 4
     dc0:	0c c0       	rjmp	.+24     	; 0xdda <__stack+0x4db>
				return;
			}
		myModbusFrame.excepCode = INVALID_FUNCTION;
     dc2:	81 e0       	ldi	r24, 0x01	; 1
     dc4:	80 93 5e 02 	sts	0x025E, r24	; 0x80025e <myModbusFrame+0x3>
		commFlags.iFlags.isExceptionCode = 1;
     dc8:	80 91 51 02 	lds	r24, 0x0251	; 0x800251 <commFlags>
     dcc:	88 60       	ori	r24, 0x08	; 8
     dce:	80 93 51 02 	sts	0x0251, r24	; 0x800251 <commFlags>
		indexRxR = indexRxW;
     dd2:	80 91 5a 02 	lds	r24, 0x025A	; 0x80025a <indexRxW>
     dd6:	80 93 59 02 	sts	0x0259, r24	; 0x800259 <indexRxR>
		break;
	}
	 
}
     dda:	df 91       	pop	r29
     ddc:	cf 91       	pop	r28
     dde:	08 95       	ret

00000de0 <MODBUS_SendExceptionCode>:

void MODBUS_SendExceptionCode(){
     de0:	cf 93       	push	r28
     de2:	df 93       	push	r29
	commFlags.iFlags.isExceptionCode = 0;
     de4:	80 91 51 02 	lds	r24, 0x0251	; 0x800251 <commFlags>
     de8:	87 7f       	andi	r24, 0xF7	; 247
     dea:	80 93 51 02 	sts	0x0251, r24	; 0x800251 <commFlags>
	bufferTx[indexTxW++] = (uint8_t)MODBUS_SLAVE_ADDRESS;
     dee:	e0 91 4b 01 	lds	r30, 0x014B	; 0x80014b <indexTxW>
     df2:	a1 e0       	ldi	r26, 0x01	; 1
     df4:	ae 0f       	add	r26, r30
     df6:	f0 e0       	ldi	r31, 0x00	; 0
     df8:	80 91 ff 03 	lds	r24, 0x03FF	; 0x8003ff <slaveAddress>
     dfc:	ed 59       	subi	r30, 0x9D	; 157
     dfe:	fd 4f       	sbci	r31, 0xFD	; 253
     e00:	80 83       	st	Z, r24
	bufferTx[indexTxW++] = myModbusFrame.errorCode;
     e02:	e1 e0       	ldi	r30, 0x01	; 1
     e04:	ea 0f       	add	r30, r26
     e06:	b0 e0       	ldi	r27, 0x00	; 0
     e08:	cb e5       	ldi	r28, 0x5B	; 91
     e0a:	d2 e0       	ldi	r29, 0x02	; 2
     e0c:	8a 81       	ldd	r24, Y+2	; 0x02
     e0e:	ad 59       	subi	r26, 0x9D	; 157
     e10:	bd 4f       	sbci	r27, 0xFD	; 253
     e12:	8c 93       	st	X, r24
	bufferTx[indexTxW++] = myModbusFrame.excepCode;
     e14:	81 e0       	ldi	r24, 0x01	; 1
     e16:	8e 0f       	add	r24, r30
     e18:	80 93 4b 01 	sts	0x014B, r24	; 0x80014b <indexTxW>
     e1c:	f0 e0       	ldi	r31, 0x00	; 0
     e1e:	8b 81       	ldd	r24, Y+3	; 0x03
     e20:	ed 59       	subi	r30, 0x9D	; 157
     e22:	fd 4f       	sbci	r31, 0xFD	; 253
     e24:	80 83       	st	Z, r24
	for(uint8_t i = indexTxR; i < indexTxW;i++){
     e26:	c0 91 52 02 	lds	r28, 0x0252	; 0x800252 <indexTxR>
     e2a:	08 c0       	rjmp	.+16     	; 0xe3c <MODBUS_SendExceptionCode+0x5c>
		MODBUS_CalculateCRC(bufferTx[i]);
     e2c:	ec 2f       	mov	r30, r28
     e2e:	f0 e0       	ldi	r31, 0x00	; 0
     e30:	ed 59       	subi	r30, 0x9D	; 157
     e32:	fd 4f       	sbci	r31, 0xFD	; 253
     e34:	80 81       	ld	r24, Z
     e36:	0e 94 5b 02 	call	0x4b6	; 0x4b6 <MODBUS_CalculateCRC>
void MODBUS_SendExceptionCode(){
	commFlags.iFlags.isExceptionCode = 0;
	bufferTx[indexTxW++] = (uint8_t)MODBUS_SLAVE_ADDRESS;
	bufferTx[indexTxW++] = myModbusFrame.errorCode;
	bufferTx[indexTxW++] = myModbusFrame.excepCode;
	for(uint8_t i = indexTxR; i < indexTxW;i++){
     e3a:	cf 5f       	subi	r28, 0xFF	; 255
     e3c:	e0 91 4b 01 	lds	r30, 0x014B	; 0x80014b <indexTxW>
     e40:	ce 17       	cp	r28, r30
     e42:	a0 f3       	brcs	.-24     	; 0xe2c <MODBUS_SendExceptionCode+0x4c>
		MODBUS_CalculateCRC(bufferTx[i]);
	}
	myWord.ui16[0] = myModbusFrame.crcSlave;
     e44:	90 91 5f 02 	lds	r25, 0x025F	; 0x80025f <myModbusFrame+0x4>
     e48:	80 91 60 02 	lds	r24, 0x0260	; 0x800260 <myModbusFrame+0x5>
     e4c:	a4 e5       	ldi	r26, 0x54	; 84
     e4e:	b2 e0       	ldi	r27, 0x02	; 2
     e50:	9c 93       	st	X, r25
     e52:	11 96       	adiw	r26, 0x01	; 1
     e54:	8c 93       	st	X, r24
     e56:	11 97       	sbiw	r26, 0x01	; 1
	bufferTx[indexTxW++] = myWord.ui8[0];
     e58:	81 e0       	ldi	r24, 0x01	; 1
     e5a:	8e 0f       	add	r24, r30
     e5c:	f0 e0       	ldi	r31, 0x00	; 0
     e5e:	ed 59       	subi	r30, 0x9D	; 157
     e60:	fd 4f       	sbci	r31, 0xFD	; 253
     e62:	90 83       	st	Z, r25
	bufferTx[indexTxW++] = myWord.ui8[1];
     e64:	91 e0       	ldi	r25, 0x01	; 1
     e66:	98 0f       	add	r25, r24
     e68:	90 93 4b 01 	sts	0x014B, r25	; 0x80014b <indexTxW>
     e6c:	e8 2f       	mov	r30, r24
     e6e:	f0 e0       	ldi	r31, 0x00	; 0
     e70:	11 96       	adiw	r26, 0x01	; 1
     e72:	8c 91       	ld	r24, X
     e74:	ed 59       	subi	r30, 0x9D	; 157
     e76:	fd 4f       	sbci	r31, 0xFD	; 253
     e78:	80 83       	st	Z, r24
}
     e7a:	df 91       	pop	r29
     e7c:	cf 91       	pop	r28
     e7e:	08 95       	ret

00000e80 <main>:
/*
    Main application
*/

int main(void){
	slaveAddress = 0x02;
     e80:	82 e0       	ldi	r24, 0x02	; 2
     e82:	80 93 ff 03 	sts	0x03FF, r24	; 0x8003ff <slaveAddress>
	//slaveAddress = EEPROM_Read(0x01);
	
    SYSTEM_Initialize();
     e86:	0e 94 04 08 	call	0x1008	; 0x1008 <SYSTEM_Initialize>
	USART0_Initialize();
     e8a:	0e 94 f3 08 	call	0x11e6	; 0x11e6 <USART0_Initialize>
	TC0_Initialize();
     e8e:	0e 94 0b 08 	call	0x1016	; 0x1016 <TC0_Initialize>
	TC1_Initialize();
     e92:	0e 94 54 08 	call	0x10a8	; 0x10a8 <TC1_Initialize>
	InitializeEvents();
     e96:	0e 94 fe 00 	call	0x1fc	; 0x1fc <InitializeEvents>
	
	sei();
     e9a:	78 94       	sei
	
	TMR0_SetHandler(do10ms);
     e9c:	82 e8       	ldi	r24, 0x82	; 130
     e9e:	90 e0       	ldi	r25, 0x00	; 0
     ea0:	0e 94 24 08 	call	0x1048	; 0x1048 <TMR0_SetHandler>
	TMR1_SetHandler(do10us);
     ea4:	8a e5       	ldi	r24, 0x5A	; 90
     ea6:	90 e0       	ldi	r25, 0x00	; 0
     ea8:	0e 94 9c 08 	call	0x1138	; 0x1138 <TMR1_SetHandler>
	USART0_ReceiveInterruptEnable();
     eac:	0e 94 c6 00 	call	0x18c	; 0x18c <USART0_ReceiveInterruptEnable>
	
	uint8_t hbState = 0;
	decodeState = IDLE;
     eb0:	10 92 50 01 	sts	0x0150, r1	; 0x800150 <decodeState>
	hbTime = PERIOD250MS;
     eb4:	89 e1       	ldi	r24, 0x19	; 25
     eb6:	80 93 0a 01 	sts	0x010A, r24	; 0x80010a <hbTime>
	auxTik = 25000;
     eba:	88 ea       	ldi	r24, 0xA8	; 168
     ebc:	91 e6       	ldi	r25, 0x61	; 97
     ebe:	90 93 08 01 	sts	0x0108, r25	; 0x800108 <auxTik+0x1>
     ec2:	80 93 07 01 	sts	0x0107, r24	; 0x800107 <auxTik>
	commFlags.aFlags = 0;
	commFlags.iFlags.silenceTime = 1;
     ec6:	84 e0       	ldi	r24, 0x04	; 4
     ec8:	80 93 51 02 	sts	0x0251, r24	; 0x800251 <commFlags>
	indexTxW = 0;
     ecc:	10 92 4b 01 	sts	0x014B, r1	; 0x80014b <indexTxW>
	indexTxR = 0;
     ed0:	10 92 52 02 	sts	0x0252, r1	; 0x800252 <indexTxR>
	indexRxW = 0;
     ed4:	10 92 5a 02 	sts	0x025A, r1	; 0x80025a <indexRxW>
	indexRxR = 0;
     ed8:	10 92 59 02 	sts	0x0259, r1	; 0x800259 <indexRxR>
 
	unixTik = PERIOD500MS;
     edc:	82 e3       	ldi	r24, 0x32	; 50
     ede:	80 93 09 01 	sts	0x0109, r24	; 0x800109 <unixTik>

	/*-----LECTURA ENTRADAS-----------------------*/
	newValueA = ~(PORTC & MASK_PORTC);
     ee2:	88 b1       	in	r24, 0x08	; 8
     ee4:	8f 70       	andi	r24, 0x0F	; 15
     ee6:	80 95       	com	r24
     ee8:	80 93 05 01 	sts	0x0105, r24	; 0x800105 <newValueA>
	outValues = newValueA;
     eec:	80 93 04 01 	sts	0x0104, r24	; 0x800104 <outValues>
	inputFlags.aFlags_input = 0;
     ef0:	10 92 58 02 	sts	0x0258, r1	; 0x800258 <inputFlags>
	commFlags.aFlags = 0;
     ef4:	10 92 51 02 	sts	0x0251, r1	; 0x800251 <commFlags>
	is500ms=0;
     ef8:	10 92 00 01 	sts	0x0100, r1	; 0x800100 <__DATA_REGION_ORIGIN__>

	tikBetweenTime[0] = 0;
     efc:	e3 e6       	ldi	r30, 0x63	; 99
     efe:	f3 e0       	ldi	r31, 0x03	; 3
     f00:	11 82       	std	Z+1, r1	; 0x01
     f02:	10 82       	st	Z, r1
	tikBetweenTime[1] = 0;
     f04:	13 82       	std	Z+3, r1	; 0x03
     f06:	12 82       	std	Z+2, r1	; 0x02
	tikBetweenTime[2] = 0;
     f08:	15 82       	std	Z+5, r1	; 0x05
     f0a:	14 82       	std	Z+4, r1	; 0x04
	tikBetweenTime[3] = 0;
     f0c:	17 82       	std	Z+7, r1	; 0x07
     f0e:	16 82       	std	Z+6, r1	; 0x06

	modbusRegister.unixTime				= 1770766800;
     f10:	e0 e0       	ldi	r30, 0x00	; 0
     f12:	f4 e0       	ldi	r31, 0x04	; 4
     f14:	80 ed       	ldi	r24, 0xD0	; 208
     f16:	91 ec       	ldi	r25, 0xC1	; 193
     f18:	ab e8       	ldi	r26, 0x8B	; 139
     f1a:	b9 e6       	ldi	r27, 0x69	; 105
     f1c:	80 83       	st	Z, r24
     f1e:	91 83       	std	Z+1, r25	; 0x01
     f20:	a2 83       	std	Z+2, r26	; 0x02
     f22:	b3 83       	std	Z+3, r27	; 0x03
	modbusRegister.diagnosticsRegister	= 0x3333; //Ver que valor darle que nos sirva
     f24:	83 e3       	ldi	r24, 0x33	; 51
     f26:	93 e3       	ldi	r25, 0x33	; 51
     f28:	95 83       	std	Z+5, r25	; 0x05
     f2a:	84 83       	std	Z+4, r24	; 0x04
	modbusRegister.newEventCounter		= 0x0000; 
     f2c:	17 82       	std	Z+7, r1	; 0x07
     f2e:	16 82       	std	Z+6, r1	; 0x06
	modbusRegister.brConfig				= 0x00;
     f30:	10 86       	std	Z+8, r1	; 0x08
	modbusRegister.parity				= 0x88;
     f32:	88 e8       	ldi	r24, 0x88	; 136
     f34:	81 87       	std	Z+9, r24	; 0x09
	modbusRegister.timeBtw[0]			= 0x0;
     f36:	13 86       	std	Z+11, r1	; 0x0b
     f38:	12 86       	std	Z+10, r1	; 0x0a
	modbusRegister.timeBtw[1]			= 0x0;
     f3a:	15 86       	std	Z+13, r1	; 0x0d
     f3c:	14 86       	std	Z+12, r1	; 0x0c
	modbusRegister.timeBtw[2]			= 0x0;
     f3e:	17 86       	std	Z+15, r1	; 0x0f
     f40:	16 86       	std	Z+14, r1	; 0x0e
	modbusRegister.timeBtw[3]			= 0x0;
     f42:	11 8a       	std	Z+17, r1	; 0x11
     f44:	10 8a       	std	Z+16, r1	; 0x10
  
  
	while(1){
		
			if(!hbTime){ //Heartbeat
     f46:	80 91 0a 01 	lds	r24, 0x010A	; 0x80010a <hbTime>
     f4a:	81 11       	cpse	r24, r1
     f4c:	07 c0       	rjmp	.+14     	; 0xf5c <main+0xdc>
				PORTB ^= (1<<5);
     f4e:	95 b1       	in	r25, 0x05	; 5
     f50:	80 e2       	ldi	r24, 0x20	; 32
     f52:	89 27       	eor	r24, r25
     f54:	85 b9       	out	0x05, r24	; 5
				//hbState ^= (1<<5);
				hbTime = PERIOD250MS;
     f56:	89 e1       	ldi	r24, 0x19	; 25
     f58:	80 93 0a 01 	sts	0x010A, r24	; 0x80010a <hbTime>
			}
					 
			if(commFlags.iFlags.dataReady){ //DECODIFICA SI EL FRAME SE RECIBIO CORRECTAMENTE
     f5c:	80 91 51 02 	lds	r24, 0x0251	; 0x800251 <commFlags>
     f60:	81 ff       	sbrs	r24, 1
     f62:	05 c0       	rjmp	.+10     	; 0xf6e <main+0xee>
				commFlags.iFlags.dataReady = 0;
     f64:	8d 7f       	andi	r24, 0xFD	; 253
     f66:	80 93 51 02 	sts	0x0251, r24	; 0x800251 <commFlags>
				MODBUS_ProcessFunction();
     f6a:	0e 94 5a 03 	call	0x6b4	; 0x6b4 <MODBUS_ProcessFunction>
			}

			if(indexTxR != indexTxW){ //Si hay datos para transmitir, transmite todo lo que tiene
     f6e:	90 91 52 02 	lds	r25, 0x0252	; 0x800252 <indexTxR>
     f72:	80 91 4b 01 	lds	r24, 0x014B	; 0x80014b <indexTxW>
     f76:	98 17       	cp	r25, r24
     f78:	39 f0       	breq	.+14     	; 0xf88 <main+0x108>
				USART0_ReceiveInterruptDisable();
     f7a:	0e 94 cc 00 	call	0x198	; 0x198 <USART0_ReceiveInterruptDisable>
				PORTD |= 0x4; //MAX HIGH
     f7e:	8b b1       	in	r24, 0x0b	; 11
     f80:	84 60       	ori	r24, 0x04	; 4
     f82:	8b b9       	out	0x0b, r24	; 11
				UARTsendByte();
     f84:	0e 94 ae 00 	call	0x15c	; 0x15c <UARTsendByte>
			}
			if(indexTxR == indexTxW){ //Si no hay datos para transmitir vuelve a la interrupcion
     f88:	90 91 52 02 	lds	r25, 0x0252	; 0x800252 <indexTxR>
     f8c:	80 91 4b 01 	lds	r24, 0x014B	; 0x80014b <indexTxW>
     f90:	98 13       	cpse	r25, r24
     f92:	0e c0       	rjmp	.+28     	; 0xfb0 <main+0x130>
				if(USART0_IsTxDone()){ //IS TRANSMIT COMPLETE
     f94:	0e 94 d2 08 	call	0x11a4	; 0x11a4 <USART0_IsTxDone>
     f98:	88 23       	and	r24, r24
     f9a:	51 f0       	breq	.+20     	; 0xfb0 <main+0x130>
					UCSR0A |= (1<<TXC0);           // limpiar TXC0
     f9c:	e0 ec       	ldi	r30, 0xC0	; 192
     f9e:	f0 e0       	ldi	r31, 0x00	; 0
     fa0:	80 81       	ld	r24, Z
     fa2:	80 64       	ori	r24, 0x40	; 64
     fa4:	80 83       	st	Z, r24
					USART0_ReceiveInterruptEnable();
     fa6:	0e 94 c6 00 	call	0x18c	; 0x18c <USART0_ReceiveInterruptEnable>
					PORTD &= ~ 0x4; //MAX_SetLow();
     faa:	8b b1       	in	r24, 0x0b	; 11
     fac:	8b 7f       	andi	r24, 0xFB	; 251
     fae:	8b b9       	out	0x0b, r24	; 11
				}
			}

			if(commFlags.iFlags.isExceptionCode){ 
     fb0:	80 91 51 02 	lds	r24, 0x0251	; 0x800251 <commFlags>
     fb4:	83 fd       	sbrc	r24, 3
				MODBUS_SendExceptionCode();
     fb6:	0e 94 f0 06 	call	0xde0	; 0xde0 <MODBUS_SendExceptionCode>
			}
 
			if(commFlags.iFlags.restartComms){ //resetear usart segun baudrate y paridad
     fba:	80 91 51 02 	lds	r24, 0x0251	; 0x800251 <commFlags>
     fbe:	86 ff       	sbrs	r24, 6
     fc0:	03 c0       	rjmp	.+6      	; 0xfc8 <main+0x148>
				commFlags.iFlags.restartComms = 0;
     fc2:	8f 7b       	andi	r24, 0xBF	; 191
     fc4:	80 93 51 02 	sts	0x0251, r24	; 0x800251 <commFlags>
			}
			
	//---------------------------- PROGRAMA LEDS---------------------------------------------
		
		if(commFlags.iFlags.isEvent1){
     fc8:	80 91 51 02 	lds	r24, 0x0251	; 0x800251 <commFlags>
     fcc:	80 ff       	sbrs	r24, 0
     fce:	bb cf       	rjmp	.-138    	; 0xf46 <main+0xc6>
			//deshabilitar interrupcion
			TC0_Disable_CompareA_Interrupt();
     fd0:	0e 94 1e 08 	call	0x103c	; 0x103c <TC0_Disable_CompareA_Interrupt>
			RegInput();
     fd4:	0e 94 92 01 	call	0x324	; 0x324 <RegInput>
     fd8:	b6 cf       	rjmp	.-148    	; 0xf46 <main+0xc6>

00000fda <CPU_Initialize>:
     fda:	10 92 64 00 	sts	0x0064, r1	; 0x800064 <__TEXT_REGION_LENGTH__+0x7f8064>
     fde:	10 92 61 00 	sts	0x0061, r1	; 0x800061 <__TEXT_REGION_LENGTH__+0x7f8061>
     fe2:	13 be       	out	0x33, r1	; 51
     fe4:	15 be       	out	0x35, r1	; 53
     fe6:	08 95       	ret

00000fe8 <CPUINT_Initialize>:
     fe8:	15 be       	out	0x35, r1	; 53
     fea:	1f be       	out	0x3f, r1	; 63
     fec:	80 e0       	ldi	r24, 0x00	; 0
     fee:	08 95       	ret

00000ff0 <PIN_MANAGER_Initialize>:
     ff0:	8f e3       	ldi	r24, 0x3F	; 63
     ff2:	84 b9       	out	0x04, r24	; 4
     ff4:	17 b8       	out	0x07, r1	; 7
     ff6:	86 e1       	ldi	r24, 0x16	; 22
     ff8:	8a b9       	out	0x0a, r24	; 10
     ffa:	15 b8       	out	0x05, r1	; 5
     ffc:	18 b8       	out	0x08, r1	; 8
     ffe:	1b b8       	out	0x0b, r1	; 11
    1000:	13 b8       	out	0x03, r1	; 3
    1002:	16 b8       	out	0x06, r1	; 6
    1004:	19 b8       	out	0x09, r1	; 9
    1006:	08 95       	ret

00001008 <SYSTEM_Initialize>:
    1008:	0e 94 ed 07 	call	0xfda	; 0xfda <CPU_Initialize>
    100c:	0e 94 f8 07 	call	0xff0	; 0xff0 <PIN_MANAGER_Initialize>
    1010:	0e 94 f4 07 	call	0xfe8	; 0xfe8 <CPUINT_Initialize>
    1014:	08 95       	ret

00001016 <TC0_Initialize>:
    1016:	8b e9       	ldi	r24, 0x9B	; 155
    1018:	87 bd       	out	0x27, r24	; 39
    101a:	18 bc       	out	0x28, r1	; 40
    101c:	16 bc       	out	0x26, r1	; 38
    101e:	13 bc       	out	0x23, r1	; 35
    1020:	82 e0       	ldi	r24, 0x02	; 2
    1022:	84 bd       	out	0x24, r24	; 36
    1024:	95 e0       	ldi	r25, 0x05	; 5
    1026:	95 bd       	out	0x25, r25	; 37
    1028:	80 93 6e 00 	sts	0x006E, r24	; 0x80006e <__TEXT_REGION_LENGTH__+0x7f806e>
    102c:	80 e0       	ldi	r24, 0x00	; 0
    102e:	08 95       	ret

00001030 <TC0_Enable_CompareA_Interrupt>:
    1030:	ee e6       	ldi	r30, 0x6E	; 110
    1032:	f0 e0       	ldi	r31, 0x00	; 0
    1034:	80 81       	ld	r24, Z
    1036:	82 60       	ori	r24, 0x02	; 2
    1038:	80 83       	st	Z, r24
    103a:	08 95       	ret

0000103c <TC0_Disable_CompareA_Interrupt>:
    103c:	ee e6       	ldi	r30, 0x6E	; 110
    103e:	f0 e0       	ldi	r31, 0x00	; 0
    1040:	80 81       	ld	r24, Z
    1042:	82 70       	andi	r24, 0x02	; 2
    1044:	80 83       	st	Z, r24
    1046:	08 95       	ret

00001048 <TMR0_SetHandler>:
    1048:	90 93 10 01 	sts	0x0110, r25	; 0x800110 <TMR0Handler+0x1>
    104c:	80 93 0f 01 	sts	0x010F, r24	; 0x80010f <TMR0Handler>
    1050:	08 95       	ret

00001052 <__vector_14>:
    1052:	1f 92       	push	r1
    1054:	0f 92       	push	r0
    1056:	0f b6       	in	r0, 0x3f	; 63
    1058:	0f 92       	push	r0
    105a:	11 24       	eor	r1, r1
    105c:	2f 93       	push	r18
    105e:	3f 93       	push	r19
    1060:	4f 93       	push	r20
    1062:	5f 93       	push	r21
    1064:	6f 93       	push	r22
    1066:	7f 93       	push	r23
    1068:	8f 93       	push	r24
    106a:	9f 93       	push	r25
    106c:	af 93       	push	r26
    106e:	bf 93       	push	r27
    1070:	ef 93       	push	r30
    1072:	ff 93       	push	r31
    1074:	81 e0       	ldi	r24, 0x01	; 1
    1076:	85 bb       	out	0x15, r24	; 21
    1078:	e0 91 0f 01 	lds	r30, 0x010F	; 0x80010f <TMR0Handler>
    107c:	f0 91 10 01 	lds	r31, 0x0110	; 0x800110 <TMR0Handler+0x1>
    1080:	30 97       	sbiw	r30, 0x00	; 0
    1082:	09 f0       	breq	.+2      	; 0x1086 <__vector_14+0x34>
    1084:	09 95       	icall
    1086:	ff 91       	pop	r31
    1088:	ef 91       	pop	r30
    108a:	bf 91       	pop	r27
    108c:	af 91       	pop	r26
    108e:	9f 91       	pop	r25
    1090:	8f 91       	pop	r24
    1092:	7f 91       	pop	r23
    1094:	6f 91       	pop	r22
    1096:	5f 91       	pop	r21
    1098:	4f 91       	pop	r20
    109a:	3f 91       	pop	r19
    109c:	2f 91       	pop	r18
    109e:	0f 90       	pop	r0
    10a0:	0f be       	out	0x3f, r0	; 63
    10a2:	0f 90       	pop	r0
    10a4:	1f 90       	pop	r1
    10a6:	18 95       	reti

000010a8 <TC1_Initialize>:
    10a8:	8f e9       	ldi	r24, 0x9F	; 159
    10aa:	90 e0       	ldi	r25, 0x00	; 0
    10ac:	90 93 89 00 	sts	0x0089, r25	; 0x800089 <__TEXT_REGION_LENGTH__+0x7f8089>
    10b0:	80 93 88 00 	sts	0x0088, r24	; 0x800088 <__TEXT_REGION_LENGTH__+0x7f8088>
    10b4:	81 e0       	ldi	r24, 0x01	; 1
    10b6:	90 e0       	ldi	r25, 0x00	; 0
    10b8:	90 93 8b 00 	sts	0x008B, r25	; 0x80008b <__TEXT_REGION_LENGTH__+0x7f808b>
    10bc:	80 93 8a 00 	sts	0x008A, r24	; 0x80008a <__TEXT_REGION_LENGTH__+0x7f808a>
    10c0:	10 92 87 00 	sts	0x0087, r1	; 0x800087 <__TEXT_REGION_LENGTH__+0x7f8087>
    10c4:	10 92 86 00 	sts	0x0086, r1	; 0x800086 <__TEXT_REGION_LENGTH__+0x7f8086>
    10c8:	10 92 85 00 	sts	0x0085, r1	; 0x800085 <__TEXT_REGION_LENGTH__+0x7f8085>
    10cc:	10 92 84 00 	sts	0x0084, r1	; 0x800084 <__TEXT_REGION_LENGTH__+0x7f8084>
    10d0:	13 bc       	out	0x23, r1	; 35
    10d2:	10 92 80 00 	sts	0x0080, r1	; 0x800080 <__TEXT_REGION_LENGTH__+0x7f8080>
    10d6:	89 e0       	ldi	r24, 0x09	; 9
    10d8:	80 93 81 00 	sts	0x0081, r24	; 0x800081 <__TEXT_REGION_LENGTH__+0x7f8081>
    10dc:	10 92 82 00 	sts	0x0082, r1	; 0x800082 <__TEXT_REGION_LENGTH__+0x7f8082>
    10e0:	82 e0       	ldi	r24, 0x02	; 2
    10e2:	80 93 6f 00 	sts	0x006F, r24	; 0x80006f <__TEXT_REGION_LENGTH__+0x7f806f>
    10e6:	80 e0       	ldi	r24, 0x00	; 0
    10e8:	08 95       	ret

000010ea <__vector_12>:
    10ea:	1f 92       	push	r1
    10ec:	0f 92       	push	r0
    10ee:	0f b6       	in	r0, 0x3f	; 63
    10f0:	0f 92       	push	r0
    10f2:	11 24       	eor	r1, r1
    10f4:	8f 93       	push	r24
    10f6:	82 e0       	ldi	r24, 0x02	; 2
    10f8:	86 bb       	out	0x16, r24	; 22
    10fa:	8f 91       	pop	r24
    10fc:	0f 90       	pop	r0
    10fe:	0f be       	out	0x3f, r0	; 63
    1100:	0f 90       	pop	r0
    1102:	1f 90       	pop	r1
    1104:	18 95       	reti

00001106 <__vector_13>:
    1106:	1f 92       	push	r1
    1108:	0f 92       	push	r0
    110a:	0f b6       	in	r0, 0x3f	; 63
    110c:	0f 92       	push	r0
    110e:	11 24       	eor	r1, r1
    1110:	16 ba       	out	0x16, r1	; 22
    1112:	0f 90       	pop	r0
    1114:	0f be       	out	0x3f, r0	; 63
    1116:	0f 90       	pop	r0
    1118:	1f 90       	pop	r1
    111a:	18 95       	reti

0000111c <__vector_10>:
    111c:	1f 92       	push	r1
    111e:	0f 92       	push	r0
    1120:	0f b6       	in	r0, 0x3f	; 63
    1122:	0f 92       	push	r0
    1124:	11 24       	eor	r1, r1
    1126:	8f 93       	push	r24
    1128:	85 e0       	ldi	r24, 0x05	; 5
    112a:	86 bb       	out	0x16, r24	; 22
    112c:	8f 91       	pop	r24
    112e:	0f 90       	pop	r0
    1130:	0f be       	out	0x3f, r0	; 63
    1132:	0f 90       	pop	r0
    1134:	1f 90       	pop	r1
    1136:	18 95       	reti

00001138 <TMR1_SetHandler>:
    1138:	90 93 12 01 	sts	0x0112, r25	; 0x800112 <TMR1Handler+0x1>
    113c:	80 93 11 01 	sts	0x0111, r24	; 0x800111 <TMR1Handler>
    1140:	08 95       	ret

00001142 <__vector_11>:
    1142:	1f 92       	push	r1
    1144:	0f 92       	push	r0
    1146:	0f b6       	in	r0, 0x3f	; 63
    1148:	0f 92       	push	r0
    114a:	11 24       	eor	r1, r1
    114c:	2f 93       	push	r18
    114e:	3f 93       	push	r19
    1150:	4f 93       	push	r20
    1152:	5f 93       	push	r21
    1154:	6f 93       	push	r22
    1156:	7f 93       	push	r23
    1158:	8f 93       	push	r24
    115a:	9f 93       	push	r25
    115c:	af 93       	push	r26
    115e:	bf 93       	push	r27
    1160:	ef 93       	push	r30
    1162:	ff 93       	push	r31
    1164:	81 e0       	ldi	r24, 0x01	; 1
    1166:	86 bb       	out	0x16, r24	; 22
    1168:	e0 91 11 01 	lds	r30, 0x0111	; 0x800111 <TMR1Handler>
    116c:	f0 91 12 01 	lds	r31, 0x0112	; 0x800112 <TMR1Handler+0x1>
    1170:	30 97       	sbiw	r30, 0x00	; 0
    1172:	09 f0       	breq	.+2      	; 0x1176 <__vector_11+0x34>
    1174:	09 95       	icall
    1176:	ff 91       	pop	r31
    1178:	ef 91       	pop	r30
    117a:	bf 91       	pop	r27
    117c:	af 91       	pop	r26
    117e:	9f 91       	pop	r25
    1180:	8f 91       	pop	r24
    1182:	7f 91       	pop	r23
    1184:	6f 91       	pop	r22
    1186:	5f 91       	pop	r21
    1188:	4f 91       	pop	r20
    118a:	3f 91       	pop	r19
    118c:	2f 91       	pop	r18
    118e:	0f 90       	pop	r0
    1190:	0f be       	out	0x3f, r0	; 63
    1192:	0f 90       	pop	r0
    1194:	1f 90       	pop	r1
    1196:	18 95       	reti

00001198 <USART0_IsTxReady>:
    1198:	80 91 c0 00 	lds	r24, 0x00C0	; 0x8000c0 <__TEXT_REGION_LENGTH__+0x7f80c0>
    119c:	85 fb       	bst	r24, 5
    119e:	88 27       	eor	r24, r24
    11a0:	80 f9       	bld	r24, 0
    11a2:	08 95       	ret

000011a4 <USART0_IsTxDone>:
    11a4:	80 91 c0 00 	lds	r24, 0x00C0	; 0x8000c0 <__TEXT_REGION_LENGTH__+0x7f80c0>
    11a8:	86 fb       	bst	r24, 6
    11aa:	88 27       	eor	r24, r24
    11ac:	80 f9       	bld	r24, 0
    11ae:	08 95       	ret

000011b0 <USART0_Write>:
    11b0:	80 93 c6 00 	sts	0x00C6, r24	; 0x8000c6 <__TEXT_REGION_LENGTH__+0x7f80c6>
    11b4:	08 95       	ret

000011b6 <USART0_DefaultFramingErrorCallback>:
    11b6:	08 95       	ret

000011b8 <USART0_DefaultOverrunErrorCallback>:
    11b8:	08 95       	ret

000011ba <USART0_DefaultParityErrorCallback>:
    11ba:	08 95       	ret

000011bc <USART0_FramingErrorCallbackRegister>:
    11bc:	00 97       	sbiw	r24, 0x00	; 0
    11be:	21 f0       	breq	.+8      	; 0x11c8 <USART0_FramingErrorCallbackRegister+0xc>
    11c0:	90 93 18 01 	sts	0x0118, r25	; 0x800118 <USART0_FramingErrorHandler+0x1>
    11c4:	80 93 17 01 	sts	0x0117, r24	; 0x800117 <USART0_FramingErrorHandler>
    11c8:	08 95       	ret

000011ca <USART0_OverrunErrorCallbackRegister>:
    11ca:	00 97       	sbiw	r24, 0x00	; 0
    11cc:	21 f0       	breq	.+8      	; 0x11d6 <USART0_OverrunErrorCallbackRegister+0xc>
    11ce:	90 93 16 01 	sts	0x0116, r25	; 0x800116 <USART0_OverrunErrorHandler+0x1>
    11d2:	80 93 15 01 	sts	0x0115, r24	; 0x800115 <USART0_OverrunErrorHandler>
    11d6:	08 95       	ret

000011d8 <USART0_ParityErrorCallbackRegister>:
    11d8:	00 97       	sbiw	r24, 0x00	; 0
    11da:	21 f0       	breq	.+8      	; 0x11e4 <USART0_ParityErrorCallbackRegister+0xc>
    11dc:	90 93 14 01 	sts	0x0114, r25	; 0x800114 <USART0_ParityErrorHandler+0x1>
    11e0:	80 93 13 01 	sts	0x0113, r24	; 0x800113 <USART0_ParityErrorHandler>
    11e4:	08 95       	ret

000011e6 <USART0_Initialize>:
    11e6:	8f ec       	ldi	r24, 0xCF	; 207
    11e8:	90 e0       	ldi	r25, 0x00	; 0
    11ea:	90 93 c5 00 	sts	0x00C5, r25	; 0x8000c5 <__TEXT_REGION_LENGTH__+0x7f80c5>
    11ee:	80 93 c4 00 	sts	0x00C4, r24	; 0x8000c4 <__TEXT_REGION_LENGTH__+0x7f80c4>
    11f2:	82 e0       	ldi	r24, 0x02	; 2
    11f4:	80 93 c0 00 	sts	0x00C0, r24	; 0x8000c0 <__TEXT_REGION_LENGTH__+0x7f80c0>
    11f8:	88 e1       	ldi	r24, 0x18	; 24
    11fa:	80 93 c1 00 	sts	0x00C1, r24	; 0x8000c1 <__TEXT_REGION_LENGTH__+0x7f80c1>
    11fe:	86 e0       	ldi	r24, 0x06	; 6
    1200:	80 93 c2 00 	sts	0x00C2, r24	; 0x8000c2 <__TEXT_REGION_LENGTH__+0x7f80c2>
    1204:	8b ed       	ldi	r24, 0xDB	; 219
    1206:	98 e0       	ldi	r25, 0x08	; 8
    1208:	0e 94 de 08 	call	0x11bc	; 0x11bc <USART0_FramingErrorCallbackRegister>
    120c:	8c ed       	ldi	r24, 0xDC	; 220
    120e:	98 e0       	ldi	r25, 0x08	; 8
    1210:	0e 94 e5 08 	call	0x11ca	; 0x11ca <USART0_OverrunErrorCallbackRegister>
    1214:	8d ed       	ldi	r24, 0xDD	; 221
    1216:	98 e0       	ldi	r25, 0x08	; 8
    1218:	0e 94 ec 08 	call	0x11d8	; 0x11d8 <USART0_ParityErrorCallbackRegister>
    121c:	10 92 1a 01 	sts	0x011A, r1	; 0x80011a <usart0RxLastError+0x1>
    1220:	10 92 19 01 	sts	0x0119, r1	; 0x800119 <usart0RxLastError>
    1224:	08 95       	ret

00001226 <__tablejump2__>:
    1226:	ee 0f       	add	r30, r30
    1228:	ff 1f       	adc	r31, r31
    122a:	05 90       	lpm	r0, Z+
    122c:	f4 91       	lpm	r31, Z
    122e:	e0 2d       	mov	r30, r0
    1230:	09 94       	ijmp

00001232 <_exit>:
    1232:	f8 94       	cli

00001234 <__stop_program>:
    1234:	ff cf       	rjmp	.-2      	; 0x1234 <__stop_program>
